
horror.elf:     file format elf32-littlearm


Disassembly of section .crt0:

08000000 <__text_start>:
 8000000:	ea00002e 	b	80000c0 <rom_header_end>
	...
 80000b0:	00963130 	.word	0x00963130
	...
 80000bc:	0000f000 	.word	0x0000f000

080000c0 <rom_header_end>:
 80000c0:	ea000006 	b	80000e0 <start_vector>

080000c4 <__boot_method>:
	...

080000c5 <__slave_number>:
	...

080000e0 <start_vector>:
 80000e0:	e3a00301 	mov	r0, #67108864	; 0x4000000
 80000e4:	e5800208 	str	r0, [r0, #520]	; 0x208
 80000e8:	e3a00012 	mov	r0, #18
 80000ec:	e129f000 	msr	CPSR_fc, r0
 80000f0:	e59fd0b8 	ldr	sp, [pc, #184]	; 80001b0 <CIDExit+0x2>
 80000f4:	e3a0001f 	mov	r0, #31
 80000f8:	e129f000 	msr	CPSR_fc, r0
 80000fc:	e59fd0b0 	ldr	sp, [pc, #176]	; 80001b4 <CIDExit+0x6>
 8000100:	e28f0001 	add	r0, pc, #1
 8000104:	e12fff10 	bx	r0
 8000108:	482b      	ldr	r0, [pc, #172]	; (80001b8 <CIDExit+0xa>)
 800010a:	0140      	lsls	r0, r0, #5
 800010c:	d20b      	bcs.n	8000126 <DoEWRAMClear>
 800010e:	4678      	mov	r0, pc
 8000110:	0140      	lsls	r0, r0, #5
 8000112:	d30d      	bcc.n	8000130 <SkipEWRAMClear>
 8000114:	2202      	movs	r2, #2
 8000116:	0612      	lsls	r2, r2, #24
 8000118:	4b28      	ldr	r3, [pc, #160]	; (80001bc <CIDExit+0xe>)
 800011a:	1a9b      	subs	r3, r3, r2
 800011c:	1c16      	adds	r6, r2, #0
 800011e:	0091      	lsls	r1, r2, #2
 8000120:	f000 f83d 	bl	800019e <CopyMem>
 8000124:	4730      	bx	r6

08000126 <DoEWRAMClear>:
 8000126:	2140      	movs	r1, #64	; 0x40
 8000128:	0309      	lsls	r1, r1, #12
 800012a:	01c8      	lsls	r0, r1, #7
 800012c:	f000 f82c 	bl	8000188 <ClearMem>

08000130 <SkipEWRAMClear>:
 8000130:	4823      	ldr	r0, [pc, #140]	; (80001c0 <CIDExit+0x12>)
 8000132:	4924      	ldr	r1, [pc, #144]	; (80001c4 <CIDExit+0x16>)
 8000134:	1a09      	subs	r1, r1, r0
 8000136:	f000 f827 	bl	8000188 <ClearMem>
 800013a:	4823      	ldr	r0, [pc, #140]	; (80001c8 <CIDExit+0x1a>)
 800013c:	4923      	ldr	r1, [pc, #140]	; (80001cc <CIDExit+0x1e>)
 800013e:	1a09      	subs	r1, r1, r0
 8000140:	f000 f822 	bl	8000188 <ClearMem>
 8000144:	4922      	ldr	r1, [pc, #136]	; (80001d0 <CIDExit+0x22>)
 8000146:	4a23      	ldr	r2, [pc, #140]	; (80001d4 <CIDExit+0x26>)
 8000148:	4c23      	ldr	r4, [pc, #140]	; (80001d8 <CIDExit+0x2a>)
 800014a:	f000 f827 	bl	800019c <CopyMemChk>
 800014e:	4923      	ldr	r1, [pc, #140]	; (80001dc <CIDExit+0x2e>)
 8000150:	4a23      	ldr	r2, [pc, #140]	; (80001e0 <CIDExit+0x32>)
 8000152:	4c24      	ldr	r4, [pc, #144]	; (80001e4 <CIDExit+0x36>)
 8000154:	f000 f822 	bl	800019c <CopyMemChk>
 8000158:	4a23      	ldr	r2, [pc, #140]	; (80001e8 <CIDExit+0x3a>)
 800015a:	4924      	ldr	r1, [pc, #144]	; (80001ec <CIDExit+0x3e>)
 800015c:	1a53      	subs	r3, r2, r1
 800015e:	d002      	beq.n	8000166 <CIW0Skip>
 8000160:	4a23      	ldr	r2, [pc, #140]	; (80001f0 <CIDExit+0x42>)
 8000162:	f000 f81c 	bl	800019e <CopyMem>

08000166 <CIW0Skip>:
 8000166:	4923      	ldr	r1, [pc, #140]	; (80001f4 <CIDExit+0x46>)
 8000168:	4a23      	ldr	r2, [pc, #140]	; (80001f8 <CIDExit+0x4a>)
 800016a:	4c24      	ldr	r4, [pc, #144]	; (80001fc <CIDExit+0x4e>)
 800016c:	f000 f816 	bl	800019c <CopyMemChk>

08000170 <CEW0Skip>:
 8000170:	4923      	ldr	r1, [pc, #140]	; (8000200 <CIDExit+0x52>)
 8000172:	4824      	ldr	r0, [pc, #144]	; (8000204 <CIDExit+0x56>)
 8000174:	6008      	str	r0, [r1, #0]
 8000176:	4b24      	ldr	r3, [pc, #144]	; (8000208 <CIDExit+0x5a>)
 8000178:	f000 f80f 	bl	800019a <_blx_r3_stub>
 800017c:	2000      	movs	r0, #0
 800017e:	2100      	movs	r1, #0
 8000180:	4b22      	ldr	r3, [pc, #136]	; (800020c <CIDExit+0x5e>)
 8000182:	f000 f80a 	bl	800019a <_blx_r3_stub>
 8000186:	df00      	svc	0

08000188 <ClearMem>:
 8000188:	2203      	movs	r2, #3
 800018a:	1889      	adds	r1, r1, r2
 800018c:	4391      	bics	r1, r2
 800018e:	d003      	beq.n	8000198 <ClearMX>
 8000190:	2200      	movs	r2, #0

08000192 <ClrLoop>:
 8000192:	c004      	stmia	r0!, {r2}
 8000194:	3904      	subs	r1, #4
 8000196:	d1fc      	bne.n	8000192 <ClrLoop>

08000198 <ClearMX>:
 8000198:	4770      	bx	lr

0800019a <_blx_r3_stub>:
 800019a:	4718      	bx	r3

0800019c <CopyMemChk>:
 800019c:	1aa3      	subs	r3, r4, r2

0800019e <CopyMem>:
 800019e:	2003      	movs	r0, #3
 80001a0:	181b      	adds	r3, r3, r0
 80001a2:	4383      	bics	r3, r0
 80001a4:	d003      	beq.n	80001ae <CIDExit>

080001a6 <CIDLoop>:
 80001a6:	c901      	ldmia	r1!, {r0}
 80001a8:	c201      	stmia	r2!, {r0}
 80001aa:	3b04      	subs	r3, #4
 80001ac:	d1fb      	bne.n	80001a6 <CIDLoop>

080001ae <CIDExit>:
 80001ae:	4770      	bx	lr
 80001b0:	03007fa0 	.word	0x03007fa0
 80001b4:	03007f00 	.word	0x03007f00
 80001b8:	08000000 	.word	0x08000000
 80001bc:	02000000 	.word	0x02000000
 80001c0:	030001e0 	.word	0x030001e0
 80001c4:	03000b84 	.word	0x03000b84
 80001c8:	02000000 	.word	0x02000000
 80001cc:	02000000 	.word	0x02000000
 80001d0:	08035f6c 	.word	0x08035f6c
 80001d4:	03000b84 	.word	0x03000b84
 80001d8:	03001770 	.word	0x03001770
 80001dc:	08035d8c 	.word	0x08035d8c
 80001e0:	03000000 	.word	0x03000000
 80001e4:	030001e0 	.word	0x030001e0
 80001e8:	08036b58 	.word	0x08036b58
 80001ec:	08036b58 	.word	0x08036b58
 80001f0:	03001770 	.word	0x03001770
 80001f4:	08036b58 	.word	0x08036b58
 80001f8:	02000000 	.word	0x02000000
 80001fc:	02000000 	.word	0x02000000
 8000200:	03000b80 	.word	0x03000b80
 8000204:	02040000 	.word	0x02040000
 8000208:	080072c4 	.word	0x080072c4
 800020c:	08000341 	.word	0x08000341

Disassembly of section .init:

08000210 <_init>:
 8000210:	e1a0c00d 	mov	ip, sp
 8000214:	e92ddff8 	push	{r3, r4, r5, r6, r7, r8, r9, sl, fp, ip, lr, pc}
 8000218:	e24cb004 	sub	fp, ip, #4
 800021c:	e24bd028 	sub	sp, fp, #40	; 0x28
 8000220:	e89d6ff0 	ldm	sp, {r4, r5, r6, r7, r8, r9, sl, fp, sp, lr}
 8000224:	e12fff1e 	bx	lr

Disassembly of section .text:

08000228 <__do_global_dtors_aux>:
 8000228:	e92d4010 	push	{r4, lr}
 800022c:	e59f4028 	ldr	r4, [pc, #40]	; 800025c <__do_global_dtors_aux+0x34>
 8000230:	e5d43000 	ldrb	r3, [r4]
 8000234:	e3530000 	cmp	r3, #0
 8000238:	1a000005 	bne	8000254 <__do_global_dtors_aux+0x2c>
 800023c:	e59f301c 	ldr	r3, [pc, #28]	; 8000260 <__do_global_dtors_aux+0x38>
 8000240:	e3530000 	cmp	r3, #0
 8000244:	159f0018 	ldrne	r0, [pc, #24]	; 8000264 <__do_global_dtors_aux+0x3c>
 8000248:	11a00000 	movne	r0, r0
 800024c:	e3a03001 	mov	r3, #1
 8000250:	e5c43000 	strb	r3, [r4]
 8000254:	e8bd4010 	pop	{r4, lr}
 8000258:	e12fff1e 	bx	lr
 800025c:	030001e0 	.word	0x030001e0
 8000260:	00000000 	.word	0x00000000
 8000264:	08035d88 	.word	0x08035d88

08000268 <frame_dummy>:
 8000268:	e59f301c 	ldr	r3, [pc, #28]	; 800028c <frame_dummy+0x24>
 800026c:	e3530000 	cmp	r3, #0
 8000270:	012fff1e 	bxeq	lr
 8000274:	e92d4010 	push	{r4, lr}
 8000278:	e59f1010 	ldr	r1, [pc, #16]	; 8000290 <frame_dummy+0x28>
 800027c:	e59f0010 	ldr	r0, [pc, #16]	; 8000294 <frame_dummy+0x2c>
 8000280:	e1a00000 	nop			; (mov r0, r0)
 8000284:	e8bd4010 	pop	{r4, lr}
 8000288:	e12fff1e 	bx	lr
 800028c:	00000000 	.word	0x00000000
 8000290:	030001e4 	.word	0x030001e4
 8000294:	08035d88 	.word	0x08035d88

08000298 <gameloop>:
 8000298:	b5f0      	push	{r4, r5, r6, r7, lr}
 800029a:	4657      	mov	r7, sl
 800029c:	469a      	mov	sl, r3
 800029e:	2310      	movs	r3, #16
 80002a0:	464e      	mov	r6, r9
 80002a2:	46de      	mov	lr, fp
 80002a4:	4645      	mov	r5, r8
 80002a6:	469b      	mov	fp, r3
 80002a8:	3308      	adds	r3, #8
 80002aa:	469c      	mov	ip, r3
 80002ac:	b5e0      	push	{r5, r6, r7, lr}
 80002ae:	b085      	sub	sp, #20
 80002b0:	9d0e      	ldr	r5, [sp, #56]	; 0x38
 80002b2:	44ac      	add	ip, r5
 80002b4:	4663      	mov	r3, ip
 80002b6:	0004      	movs	r4, r0
 80002b8:	000e      	movs	r6, r1
 80002ba:	4691      	mov	r9, r2
 80002bc:	9f0f      	ldr	r7, [sp, #60]	; 0x3c
 80002be:	9303      	str	r3, [sp, #12]
 80002c0:	44ab      	add	fp, r5
 80002c2:	e02a      	b.n	800031a <gameloop+0x82>
 80002c4:	0021      	movs	r1, r4
 80002c6:	0028      	movs	r0, r5
 80002c8:	682b      	ldr	r3, [r5, #0]
 80002ca:	f000 f837 	bl	800033c <gameloop+0xa4>
 80002ce:	9b03      	ldr	r3, [sp, #12]
 80002d0:	465a      	mov	r2, fp
 80002d2:	4649      	mov	r1, r9
 80002d4:	0030      	movs	r0, r6
 80002d6:	f005 fb59 	bl	800598c <mchar_setPosition>
 80002da:	0030      	movs	r0, r6
 80002dc:	f005 f99c 	bl	8005618 <mchar_setDraw>
 80002e0:	4648      	mov	r0, r9
 80002e2:	f005 fc9d 	bl	8005c20 <moam_setUpdate>
 80002e6:	0028      	movs	r0, r5
 80002e8:	f005 ffc2 	bl	8006270 <mscr_setDraw>
 80002ec:	6a63      	ldr	r3, [r4, #36]	; 0x24
 80002ee:	4698      	mov	r8, r3
 80002f0:	2b00      	cmp	r3, #0
 80002f2:	d006      	beq.n	8000302 <gameloop+0x6a>
 80002f4:	4653      	mov	r3, sl
 80002f6:	0022      	movs	r2, r4
 80002f8:	0031      	movs	r1, r6
 80002fa:	0028      	movs	r0, r5
 80002fc:	9700      	str	r7, [sp, #0]
 80002fe:	f000 f81e 	bl	800033e <gameloop+0xa6>
 8000302:	6ae3      	ldr	r3, [r4, #44]	; 0x2c
 8000304:	0022      	movs	r2, r4
 8000306:	4698      	mov	r8, r3
 8000308:	0031      	movs	r1, r6
 800030a:	4653      	mov	r3, sl
 800030c:	0028      	movs	r0, r5
 800030e:	9700      	str	r7, [sp, #0]
 8000310:	f000 f815 	bl	800033e <gameloop+0xa6>
 8000314:	f008 f85c 	bl	80083d0 <__msound_mixStereo_veneer>
 8000318:	df05      	svc	5
 800031a:	f005 fccd 	bl	8005cb8 <mprinter_clear>
 800031e:	0038      	movs	r0, r7
 8000320:	f005 fc14 	bl	8005b4c <mchar_actione_reinit>
 8000324:	68a3      	ldr	r3, [r4, #8]
 8000326:	2b00      	cmp	r3, #0
 8000328:	d1cc      	bne.n	80002c4 <gameloop+0x2c>
 800032a:	0030      	movs	r0, r6
 800032c:	f005 fa16 	bl	800575c <mchar_action>
 8000330:	003a      	movs	r2, r7
 8000332:	0021      	movs	r1, r4
 8000334:	0030      	movs	r0, r6
 8000336:	f005 fa3b 	bl	80057b0 <mchar_resolveAction>
 800033a:	e7c3      	b.n	80002c4 <gameloop+0x2c>
 800033c:	4718      	bx	r3
 800033e:	4740      	bx	r8

08000340 <main>:
 8000340:	b570      	push	{r4, r5, r6, lr}
 8000342:	b0a0      	sub	sp, #128	; 0x80
 8000344:	ac14      	add	r4, sp, #80	; 0x50
 8000346:	0022      	movs	r2, r4
 8000348:	4b2b      	ldr	r3, [pc, #172]	; (80003f8 <main+0xb8>)
 800034a:	cb23      	ldmia	r3!, {r0, r1, r5}
 800034c:	c223      	stmia	r2!, {r0, r1, r5}
 800034e:	cb23      	ldmia	r3!, {r0, r1, r5}
 8000350:	c223      	stmia	r2!, {r0, r1, r5}
 8000352:	cb23      	ldmia	r3!, {r0, r1, r5}
 8000354:	c223      	stmia	r2!, {r0, r1, r5}
 8000356:	cb23      	ldmia	r3!, {r0, r1, r5}
 8000358:	c223      	stmia	r2!, {r0, r1, r5}
 800035a:	f006 fa83 	bl	8006864 <sprite_vram_init>
 800035e:	f006 faed 	bl	800693c <sprite_palette_init>
 8000362:	4b26      	ldr	r3, [pc, #152]	; (80003fc <main+0xbc>)
 8000364:	2080      	movs	r0, #128	; 0x80
 8000366:	931f      	str	r3, [sp, #124]	; 0x7c
 8000368:	2380      	movs	r3, #128	; 0x80
 800036a:	ad04      	add	r5, sp, #16
 800036c:	00c0      	lsls	r0, r0, #3
 800036e:	802b      	strh	r3, [r5, #0]
 8000370:	f008 f842 	bl	80083f8 <__malloc_from_thumb>
 8000374:	9005      	str	r0, [sp, #20]
 8000376:	a806      	add	r0, sp, #24
 8000378:	f005 fb80 	bl	8005a7c <mchar_initControlType>
 800037c:	0028      	movs	r0, r5
 800037e:	f005 fc39 	bl	8005bf4 <moam_initBuffer>
 8000382:	210f      	movs	r1, #15
 8000384:	a80a      	add	r0, sp, #40	; 0x28
 8000386:	f005 f971 	bl	800566c <mchar_init>
 800038a:	2114      	movs	r1, #20
 800038c:	a808      	add	r0, sp, #32
 800038e:	f005 fbbb 	bl	8005b08 <mchar_actione_init>
 8000392:	aa06      	add	r2, sp, #24
 8000394:	a903      	add	r1, sp, #12
 8000396:	a80a      	add	r0, sp, #40	; 0x28
 8000398:	f005 f998 	bl	80056cc <mchar_getPlayerCharacter>
 800039c:	2300      	movs	r3, #0
 800039e:	2260      	movs	r2, #96	; 0x60
 80003a0:	2118      	movs	r1, #24
 80003a2:	9803      	ldr	r0, [sp, #12]
 80003a4:	9300      	str	r3, [sp, #0]
 80003a6:	f000 ff0f 	bl	80011c8 <commonCharacterSetPosition>
 80003aa:	9a03      	ldr	r2, [sp, #12]
 80003ac:	ae0d      	add	r6, sp, #52	; 0x34
 80003ae:	2300      	movs	r3, #0
 80003b0:	0021      	movs	r1, r4
 80003b2:	0030      	movs	r0, r6
 80003b4:	323c      	adds	r2, #60	; 0x3c
 80003b6:	f005 fda5 	bl	8005f04 <mscr_initCharMoveRef>
 80003ba:	4b11      	ldr	r3, [pc, #68]	; (8000400 <main+0xc0>)
 80003bc:	9316      	str	r3, [sp, #88]	; 0x58
 80003be:	ab08      	add	r3, sp, #32
 80003c0:	0022      	movs	r2, r4
 80003c2:	a90a      	add	r1, sp, #40	; 0x28
 80003c4:	0030      	movs	r0, r6
 80003c6:	9300      	str	r3, [sp, #0]
 80003c8:	ab06      	add	r3, sp, #24
 80003ca:	f006 fbc1 	bl	8006b50 <mapCommon_transferToMap>
 80003ce:	480d      	ldr	r0, [pc, #52]	; (8000404 <main+0xc4>)
 80003d0:	f005 fbf8 	bl	8005bc4 <mgame_setUpdater>
 80003d4:	f005 fd90 	bl	8005ef8 <initDisplay2BG>
 80003d8:	f005 ff8a 	bl	80062f0 <msound_init>
 80003dc:	f005 ffd0 	bl	8006380 <msound_setUpStereo>
 80003e0:	f005 fc3c 	bl	8005c5c <mprinter_init>
 80003e4:	ab08      	add	r3, sp, #32
 80003e6:	9301      	str	r3, [sp, #4]
 80003e8:	002a      	movs	r2, r5
 80003ea:	0020      	movs	r0, r4
 80003ec:	9600      	str	r6, [sp, #0]
 80003ee:	ab06      	add	r3, sp, #24
 80003f0:	a90a      	add	r1, sp, #40	; 0x28
 80003f2:	f7ff ff51 	bl	8000298 <gameloop>
 80003f6:	46c0      	nop			; (mov r8, r8)
 80003f8:	0800ec20 	.word	0x0800ec20
 80003fc:	08006b4d 	.word	0x08006b4d
 8000400:	0800ec10 	.word	0x0800ec10
 8000404:	08006cc8 	.word	0x08006cc8

08000408 <alisa_getBoundingBoxStanding>:
 8000408:	2301      	movs	r3, #1
 800040a:	b510      	push	{r4, lr}
 800040c:	600b      	str	r3, [r1, #0]
 800040e:	8f81      	ldrh	r1, [r0, #60]	; 0x3c
 8000410:	8fc3      	ldrh	r3, [r0, #62]	; 0x3e
 8000412:	1fcc      	subs	r4, r1, #7
 8000414:	8014      	strh	r4, [r2, #0]
 8000416:	1fdc      	subs	r4, r3, #7
 8000418:	3307      	adds	r3, #7
 800041a:	80d3      	strh	r3, [r2, #6]
 800041c:	2335      	movs	r3, #53	; 0x35
 800041e:	3107      	adds	r1, #7
 8000420:	8091      	strh	r1, [r2, #4]
 8000422:	2138      	movs	r1, #56	; 0x38
 8000424:	8054      	strh	r4, [r2, #2]
 8000426:	5cc3      	ldrb	r3, [r0, r3]
 8000428:	7b10      	ldrb	r0, [r2, #12]
 800042a:	075b      	lsls	r3, r3, #29
 800042c:	4001      	ands	r1, r0
 800042e:	0f5b      	lsrs	r3, r3, #29
 8000430:	430b      	orrs	r3, r1
 8000432:	7313      	strb	r3, [r2, #12]
 8000434:	bc10      	pop	{r4}
 8000436:	bc01      	pop	{r0}
 8000438:	4700      	bx	r0
 800043a:	46c0      	nop			; (mov r8, r8)

0800043c <alisa_doAction>:
 800043c:	2236      	movs	r2, #54	; 0x36
 800043e:	b570      	push	{r4, r5, r6, lr}
 8000440:	5c82      	ldrb	r2, [r0, r2]
 8000442:	0004      	movs	r4, r0
 8000444:	000d      	movs	r5, r1
 8000446:	2a07      	cmp	r2, #7
 8000448:	d806      	bhi.n	8000458 <alisa_doAction+0x1c>
 800044a:	4907      	ldr	r1, [pc, #28]	; (8000468 <alisa_doAction+0x2c>)
 800044c:	0092      	lsls	r2, r2, #2
 800044e:	5856      	ldr	r6, [r2, r1]
 8000450:	2200      	movs	r2, #0
 8000452:	0029      	movs	r1, r5
 8000454:	f000 fb78 	bl	8000b48 <alisa_getBoundingBoxMoving+0x38>
 8000458:	0029      	movs	r1, r5
 800045a:	0020      	movs	r0, r4
 800045c:	f002 fa40 	bl	80028e0 <commonCheckForEvents>
 8000460:	bc70      	pop	{r4, r5, r6}
 8000462:	bc01      	pop	{r0}
 8000464:	4700      	bx	r0
 8000466:	46c0      	nop			; (mov r8, r8)
 8000468:	08008440 	.word	0x08008440

0800046c <alisa_setPosition>:
 800046c:	b570      	push	{r4, r5, r6, lr}
 800046e:	0004      	movs	r4, r0
 8000470:	0025      	movs	r5, r4
 8000472:	8fc3      	ldrh	r3, [r0, #62]	; 0x3e
 8000474:	8850      	ldrh	r0, [r2, #2]
 8000476:	1a1b      	subs	r3, r3, r0
 8000478:	3520      	adds	r5, #32
 800047a:	3b1a      	subs	r3, #26
 800047c:	712b      	strb	r3, [r5, #4]
 800047e:	8812      	ldrh	r2, [r2, #0]
 8000480:	8fa3      	ldrh	r3, [r4, #60]	; 0x3c
 8000482:	480e      	ldr	r0, [pc, #56]	; (80004bc <alisa_setPosition+0x50>)
 8000484:	1a9b      	subs	r3, r3, r2
 8000486:	6a62      	ldr	r2, [r4, #36]	; 0x24
 8000488:	4002      	ands	r2, r0
 800048a:	0020      	movs	r0, r4
 800048c:	3b08      	subs	r3, #8
 800048e:	05db      	lsls	r3, r3, #23
 8000490:	0bdb      	lsrs	r3, r3, #15
 8000492:	4313      	orrs	r3, r2
 8000494:	6263      	str	r3, [r4, #36]	; 0x24
 8000496:	301c      	adds	r0, #28
 8000498:	f000 ff54 	bl	8001344 <commonSetToOamBuffer>
 800049c:	2202      	movs	r2, #2
 800049e:	79ab      	ldrb	r3, [r5, #6]
 80004a0:	4313      	orrs	r3, r2
 80004a2:	71ab      	strb	r3, [r5, #6]
 80004a4:	2323      	movs	r3, #35	; 0x23
 80004a6:	69e2      	ldr	r2, [r4, #28]
 80004a8:	5ce3      	ldrb	r3, [r4, r3]
 80004aa:	6812      	ldr	r2, [r2, #0]
 80004ac:	065b      	lsls	r3, r3, #25
 80004ae:	0d9b      	lsrs	r3, r3, #22
 80004b0:	18d3      	adds	r3, r2, r3
 80004b2:	88d8      	ldrh	r0, [r3, #6]
 80004b4:	bc70      	pop	{r4, r5, r6}
 80004b6:	bc02      	pop	{r1}
 80004b8:	4708      	bx	r1
 80004ba:	46c0      	nop			; (mov r8, r8)
 80004bc:	fffe00ff 	.word	0xfffe00ff

080004c0 <alisa_actionStand>:
 80004c0:	2221      	movs	r2, #33	; 0x21
 80004c2:	237b      	movs	r3, #123	; 0x7b
 80004c4:	b570      	push	{r4, r5, r6, lr}
 80004c6:	5c81      	ldrb	r1, [r0, r2]
 80004c8:	400b      	ands	r3, r1
 80004ca:	5483      	strb	r3, [r0, r2]
 80004cc:	0004      	movs	r4, r0
 80004ce:	f001 f88b 	bl	80015e8 <commonInitializeAction>
 80004d2:	2801      	cmp	r0, #1
 80004d4:	d106      	bne.n	80004e4 <alisa_actionStand+0x24>
 80004d6:	6a22      	ldr	r2, [r4, #32]
 80004d8:	4b0f      	ldr	r3, [pc, #60]	; (8000518 <alisa_actionStand+0x58>)
 80004da:	401a      	ands	r2, r3
 80004dc:	2384      	movs	r3, #132	; 0x84
 80004de:	021b      	lsls	r3, r3, #8
 80004e0:	4313      	orrs	r3, r2
 80004e2:	6223      	str	r3, [r4, #32]
 80004e4:	2100      	movs	r1, #0
 80004e6:	2336      	movs	r3, #54	; 0x36
 80004e8:	2035      	movs	r0, #53	; 0x35
 80004ea:	250f      	movs	r5, #15
 80004ec:	6461      	str	r1, [r4, #68]	; 0x44
 80004ee:	5ce2      	ldrb	r2, [r4, r3]
 80004f0:	3b02      	subs	r3, #2
 80004f2:	54e2      	strb	r2, [r4, r3]
 80004f4:	3303      	adds	r3, #3
 80004f6:	5ce2      	ldrb	r2, [r4, r3]
 80004f8:	5c23      	ldrb	r3, [r4, r0]
 80004fa:	402a      	ands	r2, r5
 80004fc:	43ab      	bics	r3, r5
 80004fe:	4313      	orrs	r3, r2
 8000500:	5423      	strb	r3, [r4, r0]
 8000502:	061b      	lsls	r3, r3, #24
 8000504:	8721      	strh	r1, [r4, #56]	; 0x38
 8000506:	4a05      	ldr	r2, [pc, #20]	; (800051c <alisa_actionStand+0x5c>)
 8000508:	171b      	asrs	r3, r3, #28
 800050a:	009b      	lsls	r3, r3, #2
 800050c:	589b      	ldr	r3, [r3, r2]
 800050e:	61e3      	str	r3, [r4, #28]
 8000510:	bc70      	pop	{r4, r5, r6}
 8000512:	bc01      	pop	{r0}
 8000514:	4700      	bx	r0
 8000516:	46c0      	nop			; (mov r8, r8)
 8000518:	80ff7bff 	.word	0x80ff7bff
 800051c:	03000ca4 	.word	0x03000ca4

08000520 <alisa_actionRun>:
 8000520:	b5f8      	push	{r3, r4, r5, r6, r7, lr}
 8000522:	2521      	movs	r5, #33	; 0x21
 8000524:	267b      	movs	r6, #123	; 0x7b
 8000526:	5d43      	ldrb	r3, [r0, r5]
 8000528:	4033      	ands	r3, r6
 800052a:	5543      	strb	r3, [r0, r5]
 800052c:	0004      	movs	r4, r0
 800052e:	f001 f871 	bl	8001614 <commonUpdateAnimation>
 8000532:	2801      	cmp	r0, #1
 8000534:	d105      	bne.n	8000542 <alisa_actionRun+0x22>
 8000536:	5d63      	ldrb	r3, [r4, r5]
 8000538:	401e      	ands	r6, r3
 800053a:	237c      	movs	r3, #124	; 0x7c
 800053c:	425b      	negs	r3, r3
 800053e:	4333      	orrs	r3, r6
 8000540:	5563      	strb	r3, [r4, r5]
 8000542:	2336      	movs	r3, #54	; 0x36
 8000544:	2234      	movs	r2, #52	; 0x34
 8000546:	5ce3      	ldrb	r3, [r4, r3]
 8000548:	5ca2      	ldrb	r2, [r4, r2]
 800054a:	429a      	cmp	r2, r3
 800054c:	d02f      	beq.n	80005ae <alisa_actionRun+0x8e>
 800054e:	2238      	movs	r2, #56	; 0x38
 8000550:	2105      	movs	r1, #5
 8000552:	2501      	movs	r5, #1
 8000554:	2600      	movs	r6, #0
 8000556:	54a1      	strb	r1, [r4, r2]
 8000558:	2234      	movs	r2, #52	; 0x34
 800055a:	200f      	movs	r0, #15
 800055c:	54a3      	strb	r3, [r4, r2]
 800055e:	2337      	movs	r3, #55	; 0x37
 8000560:	0007      	movs	r7, r0
 8000562:	5ce1      	ldrb	r1, [r4, r3]
 8000564:	3201      	adds	r2, #1
 8000566:	5ca3      	ldrb	r3, [r4, r2]
 8000568:	0709      	lsls	r1, r1, #28
 800056a:	1709      	asrs	r1, r1, #28
 800056c:	400f      	ands	r7, r1
 800056e:	4383      	bics	r3, r0
 8000570:	433b      	orrs	r3, r7
 8000572:	54a3      	strb	r3, [r4, r2]
 8000574:	008a      	lsls	r2, r1, #2
 8000576:	1852      	adds	r2, r2, r1
 8000578:	4815      	ldr	r0, [pc, #84]	; (80005d0 <alisa_actionRun+0xb0>)
 800057a:	1992      	adds	r2, r2, r6
 800057c:	0092      	lsls	r2, r2, #2
 800057e:	5811      	ldr	r1, [r2, r0]
 8000580:	2044      	movs	r0, #68	; 0x44
 8000582:	5221      	strh	r1, [r4, r0]
 8000584:	8fa0      	ldrh	r0, [r4, #60]	; 0x3c
 8000586:	1809      	adds	r1, r1, r0
 8000588:	87a1      	strh	r1, [r4, #60]	; 0x3c
 800058a:	4912      	ldr	r1, [pc, #72]	; (80005d4 <alisa_actionRun+0xb4>)
 800058c:	5852      	ldr	r2, [r2, r1]
 800058e:	2146      	movs	r1, #70	; 0x46
 8000590:	5262      	strh	r2, [r4, r1]
 8000592:	8fe1      	ldrh	r1, [r4, #62]	; 0x3e
 8000594:	1852      	adds	r2, r2, r1
 8000596:	87e2      	strh	r2, [r4, #62]	; 0x3e
 8000598:	2239      	movs	r2, #57	; 0x39
 800059a:	061b      	lsls	r3, r3, #24
 800059c:	54a5      	strb	r5, [r4, r2]
 800059e:	171b      	asrs	r3, r3, #28
 80005a0:	4a0d      	ldr	r2, [pc, #52]	; (80005d8 <alisa_actionRun+0xb8>)
 80005a2:	009b      	lsls	r3, r3, #2
 80005a4:	589b      	ldr	r3, [r3, r2]
 80005a6:	61e3      	str	r3, [r4, #28]
 80005a8:	bcf8      	pop	{r3, r4, r5, r6, r7}
 80005aa:	bc01      	pop	{r0}
 80005ac:	4700      	bx	r0
 80005ae:	2239      	movs	r2, #57	; 0x39
 80005b0:	2138      	movs	r1, #56	; 0x38
 80005b2:	5ca2      	ldrb	r2, [r4, r2]
 80005b4:	5c65      	ldrb	r5, [r4, r1]
 80005b6:	42aa      	cmp	r2, r5
 80005b8:	41ad      	sbcs	r5, r5
 80005ba:	426d      	negs	r5, r5
 80005bc:	4355      	muls	r5, r2
 80005be:	2280      	movs	r2, #128	; 0x80
 80005c0:	0452      	lsls	r2, r2, #17
 80005c2:	4694      	mov	ip, r2
 80005c4:	062d      	lsls	r5, r5, #24
 80005c6:	0e2e      	lsrs	r6, r5, #24
 80005c8:	4465      	add	r5, ip
 80005ca:	0e2d      	lsrs	r5, r5, #24
 80005cc:	e7c4      	b.n	8000558 <alisa_actionRun+0x38>
 80005ce:	46c0      	nop			; (mov r8, r8)
 80005d0:	080086c8 	.word	0x080086c8
 80005d4:	08008628 	.word	0x08008628
 80005d8:	03000cc4 	.word	0x03000cc4

080005dc <alisa_actionPrepareDash>:
 80005dc:	b570      	push	{r4, r5, r6, lr}
 80005de:	2521      	movs	r5, #33	; 0x21
 80005e0:	267b      	movs	r6, #123	; 0x7b
 80005e2:	5d43      	ldrb	r3, [r0, r5]
 80005e4:	4033      	ands	r3, r6
 80005e6:	5543      	strb	r3, [r0, r5]
 80005e8:	0004      	movs	r4, r0
 80005ea:	f001 f813 	bl	8001614 <commonUpdateAnimation>
 80005ee:	2801      	cmp	r0, #1
 80005f0:	d105      	bne.n	80005fe <alisa_actionPrepareDash+0x22>
 80005f2:	5d63      	ldrb	r3, [r4, r5]
 80005f4:	401e      	ands	r6, r3
 80005f6:	237c      	movs	r3, #124	; 0x7c
 80005f8:	425b      	negs	r3, r3
 80005fa:	4333      	orrs	r3, r6
 80005fc:	5563      	strb	r3, [r4, r5]
 80005fe:	2300      	movs	r3, #0
 8000600:	2135      	movs	r1, #53	; 0x35
 8000602:	200f      	movs	r0, #15
 8000604:	8723      	strh	r3, [r4, #56]	; 0x38
 8000606:	3336      	adds	r3, #54	; 0x36
 8000608:	5ce2      	ldrb	r2, [r4, r3]
 800060a:	3b02      	subs	r3, #2
 800060c:	54e2      	strb	r2, [r4, r3]
 800060e:	3303      	adds	r3, #3
 8000610:	5ce2      	ldrb	r2, [r4, r3]
 8000612:	5c63      	ldrb	r3, [r4, r1]
 8000614:	4002      	ands	r2, r0
 8000616:	4383      	bics	r3, r0
 8000618:	4313      	orrs	r3, r2
 800061a:	5463      	strb	r3, [r4, r1]
 800061c:	061b      	lsls	r3, r3, #24
 800061e:	4a04      	ldr	r2, [pc, #16]	; (8000630 <alisa_actionPrepareDash+0x54>)
 8000620:	171b      	asrs	r3, r3, #28
 8000622:	009b      	lsls	r3, r3, #2
 8000624:	589b      	ldr	r3, [r3, r2]
 8000626:	61e3      	str	r3, [r4, #28]
 8000628:	bc70      	pop	{r4, r5, r6}
 800062a:	bc01      	pop	{r0}
 800062c:	4700      	bx	r0
 800062e:	46c0      	nop			; (mov r8, r8)
 8000630:	03000bc4 	.word	0x03000bc4

08000634 <alisa_actionDashForward>:
 8000634:	b5f8      	push	{r3, r4, r5, r6, r7, lr}
 8000636:	2521      	movs	r5, #33	; 0x21
 8000638:	267b      	movs	r6, #123	; 0x7b
 800063a:	5d43      	ldrb	r3, [r0, r5]
 800063c:	4033      	ands	r3, r6
 800063e:	5543      	strb	r3, [r0, r5]
 8000640:	0004      	movs	r4, r0
 8000642:	f000 ffe7 	bl	8001614 <commonUpdateAnimation>
 8000646:	2801      	cmp	r0, #1
 8000648:	d105      	bne.n	8000656 <alisa_actionDashForward+0x22>
 800064a:	5d63      	ldrb	r3, [r4, r5]
 800064c:	401e      	ands	r6, r3
 800064e:	237c      	movs	r3, #124	; 0x7c
 8000650:	425b      	negs	r3, r3
 8000652:	4333      	orrs	r3, r6
 8000654:	5563      	strb	r3, [r4, r5]
 8000656:	2336      	movs	r3, #54	; 0x36
 8000658:	5ce2      	ldrb	r2, [r4, r3]
 800065a:	3b02      	subs	r3, #2
 800065c:	5ce3      	ldrb	r3, [r4, r3]
 800065e:	4293      	cmp	r3, r2
 8000660:	d038      	beq.n	80006d4 <alisa_actionDashForward+0xa0>
 8000662:	2104      	movs	r1, #4
 8000664:	2338      	movs	r3, #56	; 0x38
 8000666:	2000      	movs	r0, #0
 8000668:	54e1      	strb	r1, [r4, r3]
 800066a:	3903      	subs	r1, #3
 800066c:	260f      	movs	r6, #15
 800066e:	2334      	movs	r3, #52	; 0x34
 8000670:	2535      	movs	r5, #53	; 0x35
 8000672:	0037      	movs	r7, r6
 8000674:	54e2      	strb	r2, [r4, r3]
 8000676:	3303      	adds	r3, #3
 8000678:	5ce3      	ldrb	r3, [r4, r3]
 800067a:	5d62      	ldrb	r2, [r4, r5]
 800067c:	071b      	lsls	r3, r3, #28
 800067e:	171b      	asrs	r3, r3, #28
 8000680:	401f      	ands	r7, r3
 8000682:	43b2      	bics	r2, r6
 8000684:	433a      	orrs	r2, r7
 8000686:	5562      	strb	r2, [r4, r5]
 8000688:	2239      	movs	r2, #57	; 0x39
 800068a:	54a0      	strb	r0, [r4, r2]
 800068c:	3a16      	subs	r2, #22
 800068e:	5ca5      	ldrb	r5, [r4, r2]
 8000690:	325c      	adds	r2, #92	; 0x5c
 8000692:	402a      	ands	r2, r5
 8000694:	2a01      	cmp	r2, #1
 8000696:	d110      	bne.n	80006ba <alisa_actionDashForward+0x86>
 8000698:	009b      	lsls	r3, r3, #2
 800069a:	181b      	adds	r3, r3, r0
 800069c:	2044      	movs	r0, #68	; 0x44
 800069e:	4a15      	ldr	r2, [pc, #84]	; (80006f4 <alisa_actionDashForward+0xc0>)
 80006a0:	009b      	lsls	r3, r3, #2
 80006a2:	589a      	ldr	r2, [r3, r2]
 80006a4:	5222      	strh	r2, [r4, r0]
 80006a6:	8fa0      	ldrh	r0, [r4, #60]	; 0x3c
 80006a8:	1812      	adds	r2, r2, r0
 80006aa:	87a2      	strh	r2, [r4, #60]	; 0x3c
 80006ac:	4a12      	ldr	r2, [pc, #72]	; (80006f8 <alisa_actionDashForward+0xc4>)
 80006ae:	589b      	ldr	r3, [r3, r2]
 80006b0:	2246      	movs	r2, #70	; 0x46
 80006b2:	52a3      	strh	r3, [r4, r2]
 80006b4:	8fe2      	ldrh	r2, [r4, #62]	; 0x3e
 80006b6:	189b      	adds	r3, r3, r2
 80006b8:	87e3      	strh	r3, [r4, #62]	; 0x3e
 80006ba:	2339      	movs	r3, #57	; 0x39
 80006bc:	54e1      	strb	r1, [r4, r3]
 80006be:	3b04      	subs	r3, #4
 80006c0:	5ce3      	ldrb	r3, [r4, r3]
 80006c2:	061b      	lsls	r3, r3, #24
 80006c4:	4a0d      	ldr	r2, [pc, #52]	; (80006fc <alisa_actionDashForward+0xc8>)
 80006c6:	171b      	asrs	r3, r3, #28
 80006c8:	009b      	lsls	r3, r3, #2
 80006ca:	589b      	ldr	r3, [r3, r2]
 80006cc:	61e3      	str	r3, [r4, #28]
 80006ce:	bcf8      	pop	{r3, r4, r5, r6, r7}
 80006d0:	bc01      	pop	{r0}
 80006d2:	4700      	bx	r0
 80006d4:	2339      	movs	r3, #57	; 0x39
 80006d6:	5ce1      	ldrb	r1, [r4, r3]
 80006d8:	3b01      	subs	r3, #1
 80006da:	5ce3      	ldrb	r3, [r4, r3]
 80006dc:	4299      	cmp	r1, r3
 80006de:	419b      	sbcs	r3, r3
 80006e0:	425b      	negs	r3, r3
 80006e2:	434b      	muls	r3, r1
 80006e4:	2180      	movs	r1, #128	; 0x80
 80006e6:	0449      	lsls	r1, r1, #17
 80006e8:	468c      	mov	ip, r1
 80006ea:	061b      	lsls	r3, r3, #24
 80006ec:	0e18      	lsrs	r0, r3, #24
 80006ee:	4463      	add	r3, ip
 80006f0:	0e19      	lsrs	r1, r3, #24
 80006f2:	e7bb      	b.n	800066c <alisa_actionDashForward+0x38>
 80006f4:	080085a8 	.word	0x080085a8
 80006f8:	08008528 	.word	0x08008528
 80006fc:	03000be4 	.word	0x03000be4

08000700 <alisa_actionDashBackward>:
 8000700:	b5f8      	push	{r3, r4, r5, r6, r7, lr}
 8000702:	2521      	movs	r5, #33	; 0x21
 8000704:	267b      	movs	r6, #123	; 0x7b
 8000706:	5d43      	ldrb	r3, [r0, r5]
 8000708:	4033      	ands	r3, r6
 800070a:	5543      	strb	r3, [r0, r5]
 800070c:	0004      	movs	r4, r0
 800070e:	f000 ff81 	bl	8001614 <commonUpdateAnimation>
 8000712:	2801      	cmp	r0, #1
 8000714:	d105      	bne.n	8000722 <alisa_actionDashBackward+0x22>
 8000716:	5d63      	ldrb	r3, [r4, r5]
 8000718:	401e      	ands	r6, r3
 800071a:	237c      	movs	r3, #124	; 0x7c
 800071c:	425b      	negs	r3, r3
 800071e:	4333      	orrs	r3, r6
 8000720:	5563      	strb	r3, [r4, r5]
 8000722:	2336      	movs	r3, #54	; 0x36
 8000724:	5ce2      	ldrb	r2, [r4, r3]
 8000726:	3b02      	subs	r3, #2
 8000728:	5ce3      	ldrb	r3, [r4, r3]
 800072a:	4293      	cmp	r3, r2
 800072c:	d036      	beq.n	800079c <alisa_actionDashBackward+0x9c>
 800072e:	2104      	movs	r1, #4
 8000730:	2338      	movs	r3, #56	; 0x38
 8000732:	2000      	movs	r0, #0
 8000734:	54e1      	strb	r1, [r4, r3]
 8000736:	3903      	subs	r1, #3
 8000738:	260f      	movs	r6, #15
 800073a:	2334      	movs	r3, #52	; 0x34
 800073c:	2535      	movs	r5, #53	; 0x35
 800073e:	0037      	movs	r7, r6
 8000740:	54e2      	strb	r2, [r4, r3]
 8000742:	3303      	adds	r3, #3
 8000744:	5ce3      	ldrb	r3, [r4, r3]
 8000746:	5d62      	ldrb	r2, [r4, r5]
 8000748:	071b      	lsls	r3, r3, #28
 800074a:	171b      	asrs	r3, r3, #28
 800074c:	401f      	ands	r7, r3
 800074e:	43b2      	bics	r2, r6
 8000750:	433a      	orrs	r2, r7
 8000752:	5562      	strb	r2, [r4, r5]
 8000754:	2239      	movs	r2, #57	; 0x39
 8000756:	54a0      	strb	r0, [r4, r2]
 8000758:	3a16      	subs	r2, #22
 800075a:	5ca2      	ldrb	r2, [r4, r2]
 800075c:	0652      	lsls	r2, r2, #25
 800075e:	d110      	bne.n	8000782 <alisa_actionDashBackward+0x82>
 8000760:	009b      	lsls	r3, r3, #2
 8000762:	181b      	adds	r3, r3, r0
 8000764:	2044      	movs	r0, #68	; 0x44
 8000766:	4a15      	ldr	r2, [pc, #84]	; (80007bc <alisa_actionDashBackward+0xbc>)
 8000768:	009b      	lsls	r3, r3, #2
 800076a:	589a      	ldr	r2, [r3, r2]
 800076c:	5222      	strh	r2, [r4, r0]
 800076e:	8fa0      	ldrh	r0, [r4, #60]	; 0x3c
 8000770:	1812      	adds	r2, r2, r0
 8000772:	87a2      	strh	r2, [r4, #60]	; 0x3c
 8000774:	4a12      	ldr	r2, [pc, #72]	; (80007c0 <alisa_actionDashBackward+0xc0>)
 8000776:	589b      	ldr	r3, [r3, r2]
 8000778:	2246      	movs	r2, #70	; 0x46
 800077a:	52a3      	strh	r3, [r4, r2]
 800077c:	8fe2      	ldrh	r2, [r4, #62]	; 0x3e
 800077e:	189b      	adds	r3, r3, r2
 8000780:	87e3      	strh	r3, [r4, #62]	; 0x3e
 8000782:	2339      	movs	r3, #57	; 0x39
 8000784:	54e1      	strb	r1, [r4, r3]
 8000786:	3b04      	subs	r3, #4
 8000788:	5ce3      	ldrb	r3, [r4, r3]
 800078a:	061b      	lsls	r3, r3, #24
 800078c:	4a0d      	ldr	r2, [pc, #52]	; (80007c4 <alisa_actionDashBackward+0xc4>)
 800078e:	171b      	asrs	r3, r3, #28
 8000790:	009b      	lsls	r3, r3, #2
 8000792:	589b      	ldr	r3, [r3, r2]
 8000794:	61e3      	str	r3, [r4, #28]
 8000796:	bcf8      	pop	{r3, r4, r5, r6, r7}
 8000798:	bc01      	pop	{r0}
 800079a:	4700      	bx	r0
 800079c:	2339      	movs	r3, #57	; 0x39
 800079e:	5ce1      	ldrb	r1, [r4, r3]
 80007a0:	3b01      	subs	r3, #1
 80007a2:	5ce3      	ldrb	r3, [r4, r3]
 80007a4:	4299      	cmp	r1, r3
 80007a6:	419b      	sbcs	r3, r3
 80007a8:	425b      	negs	r3, r3
 80007aa:	434b      	muls	r3, r1
 80007ac:	2180      	movs	r1, #128	; 0x80
 80007ae:	0449      	lsls	r1, r1, #17
 80007b0:	468c      	mov	ip, r1
 80007b2:	061b      	lsls	r3, r3, #24
 80007b4:	0e18      	lsrs	r0, r3, #24
 80007b6:	4463      	add	r3, ip
 80007b8:	0e19      	lsrs	r1, r3, #24
 80007ba:	e7bd      	b.n	8000738 <alisa_actionDashBackward+0x38>
 80007bc:	080085a8 	.word	0x080085a8
 80007c0:	08008528 	.word	0x08008528
 80007c4:	03000ba4 	.word	0x03000ba4

080007c8 <alisa_actionStunned>:
 80007c8:	b570      	push	{r4, r5, r6, lr}
 80007ca:	2521      	movs	r5, #33	; 0x21
 80007cc:	267b      	movs	r6, #123	; 0x7b
 80007ce:	5d43      	ldrb	r3, [r0, r5]
 80007d0:	4033      	ands	r3, r6
 80007d2:	5543      	strb	r3, [r0, r5]
 80007d4:	0004      	movs	r4, r0
 80007d6:	f000 ff1d 	bl	8001614 <commonUpdateAnimation>
 80007da:	2801      	cmp	r0, #1
 80007dc:	d105      	bne.n	80007ea <alisa_actionStunned+0x22>
 80007de:	5d63      	ldrb	r3, [r4, r5]
 80007e0:	401e      	ands	r6, r3
 80007e2:	237c      	movs	r3, #124	; 0x7c
 80007e4:	425b      	negs	r3, r3
 80007e6:	4333      	orrs	r3, r6
 80007e8:	5563      	strb	r3, [r4, r5]
 80007ea:	2300      	movs	r3, #0
 80007ec:	2135      	movs	r1, #53	; 0x35
 80007ee:	200f      	movs	r0, #15
 80007f0:	8723      	strh	r3, [r4, #56]	; 0x38
 80007f2:	3336      	adds	r3, #54	; 0x36
 80007f4:	5ce2      	ldrb	r2, [r4, r3]
 80007f6:	3b02      	subs	r3, #2
 80007f8:	54e2      	strb	r2, [r4, r3]
 80007fa:	3303      	adds	r3, #3
 80007fc:	5ce2      	ldrb	r2, [r4, r3]
 80007fe:	5c63      	ldrb	r3, [r4, r1]
 8000800:	4002      	ands	r2, r0
 8000802:	4383      	bics	r3, r0
 8000804:	4313      	orrs	r3, r2
 8000806:	5463      	strb	r3, [r4, r1]
 8000808:	061b      	lsls	r3, r3, #24
 800080a:	4a04      	ldr	r2, [pc, #16]	; (800081c <alisa_actionStunned+0x54>)
 800080c:	171b      	asrs	r3, r3, #28
 800080e:	009b      	lsls	r3, r3, #2
 8000810:	589b      	ldr	r3, [r3, r2]
 8000812:	61e3      	str	r3, [r4, #28]
 8000814:	bc70      	pop	{r4, r5, r6}
 8000816:	bc01      	pop	{r0}
 8000818:	4700      	bx	r0
 800081a:	46c0      	nop			; (mov r8, r8)
 800081c:	03000c84 	.word	0x03000c84

08000820 <alisa_actionSlash>:
 8000820:	b5f0      	push	{r4, r5, r6, r7, lr}
 8000822:	2621      	movs	r6, #33	; 0x21
 8000824:	277b      	movs	r7, #123	; 0x7b
 8000826:	001d      	movs	r5, r3
 8000828:	5d83      	ldrb	r3, [r0, r6]
 800082a:	403b      	ands	r3, r7
 800082c:	b087      	sub	sp, #28
 800082e:	5583      	strb	r3, [r0, r6]
 8000830:	0004      	movs	r4, r0
 8000832:	f000 feef 	bl	8001614 <commonUpdateAnimation>
 8000836:	2801      	cmp	r0, #1
 8000838:	d105      	bne.n	8000846 <alisa_actionSlash+0x26>
 800083a:	5da3      	ldrb	r3, [r4, r6]
 800083c:	401f      	ands	r7, r3
 800083e:	237c      	movs	r3, #124	; 0x7c
 8000840:	425b      	negs	r3, r3
 8000842:	433b      	orrs	r3, r7
 8000844:	55a3      	strb	r3, [r4, r6]
 8000846:	200f      	movs	r0, #15
 8000848:	2300      	movs	r3, #0
 800084a:	2135      	movs	r1, #53	; 0x35
 800084c:	0006      	movs	r6, r0
 800084e:	8723      	strh	r3, [r4, #56]	; 0x38
 8000850:	3336      	adds	r3, #54	; 0x36
 8000852:	5ce2      	ldrb	r2, [r4, r3]
 8000854:	3b02      	subs	r3, #2
 8000856:	54e2      	strb	r2, [r4, r3]
 8000858:	3303      	adds	r3, #3
 800085a:	5ce2      	ldrb	r2, [r4, r3]
 800085c:	5c63      	ldrb	r3, [r4, r1]
 800085e:	0712      	lsls	r2, r2, #28
 8000860:	1712      	asrs	r2, r2, #28
 8000862:	4016      	ands	r6, r2
 8000864:	4383      	bics	r3, r0
 8000866:	4333      	orrs	r3, r6
 8000868:	5463      	strb	r3, [r4, r1]
 800086a:	4b19      	ldr	r3, [pc, #100]	; (80008d0 <alisa_actionSlash+0xb0>)
 800086c:	00d2      	lsls	r2, r2, #3
 800086e:	189b      	adds	r3, r3, r2
 8000870:	8fa0      	ldrh	r0, [r4, #60]	; 0x3c
 8000872:	8c1a      	ldrh	r2, [r3, #32]
 8000874:	a902      	add	r1, sp, #8
 8000876:	1882      	adds	r2, r0, r2
 8000878:	800a      	strh	r2, [r1, #0]
 800087a:	8c5e      	ldrh	r6, [r3, #34]	; 0x22
 800087c:	8fe2      	ldrh	r2, [r4, #62]	; 0x3e
 800087e:	1992      	adds	r2, r2, r6
 8000880:	0412      	lsls	r2, r2, #16
 8000882:	8c9e      	ldrh	r6, [r3, #36]	; 0x24
 8000884:	8cdb      	ldrh	r3, [r3, #38]	; 0x26
 8000886:	0c12      	lsrs	r2, r2, #16
 8000888:	804a      	strh	r2, [r1, #2]
 800088a:	1980      	adds	r0, r0, r6
 800088c:	18d2      	adds	r2, r2, r3
 800088e:	8108      	strh	r0, [r1, #8]
 8000890:	814a      	strh	r2, [r1, #10]
 8000892:	2302      	movs	r3, #2
 8000894:	2201      	movs	r2, #1
 8000896:	9100      	str	r1, [sp, #0]
 8000898:	0028      	movs	r0, r5
 800089a:	2101      	movs	r1, #1
 800089c:	f005 f96e 	bl	8005b7c <mchar_actione_add>
 80008a0:	22c0      	movs	r2, #192	; 0xc0
 80008a2:	8c63      	ldrh	r3, [r4, #34]	; 0x22
 80008a4:	045b      	lsls	r3, r3, #17
 80008a6:	0092      	lsls	r2, r2, #2
 80008a8:	0c5b      	lsrs	r3, r3, #17
 80008aa:	4293      	cmp	r3, r2
 80008ac:	d00a      	beq.n	80008c4 <alisa_actionSlash+0xa4>
 80008ae:	2335      	movs	r3, #53	; 0x35
 80008b0:	5ce3      	ldrb	r3, [r4, r3]
 80008b2:	4a08      	ldr	r2, [pc, #32]	; (80008d4 <alisa_actionSlash+0xb4>)
 80008b4:	071b      	lsls	r3, r3, #28
 80008b6:	169b      	asrs	r3, r3, #26
 80008b8:	589b      	ldr	r3, [r3, r2]
 80008ba:	61e3      	str	r3, [r4, #28]
 80008bc:	b007      	add	sp, #28
 80008be:	bcf0      	pop	{r4, r5, r6, r7}
 80008c0:	bc01      	pop	{r0}
 80008c2:	4700      	bx	r0
 80008c4:	2100      	movs	r1, #0
 80008c6:	4804      	ldr	r0, [pc, #16]	; (80008d8 <alisa_actionSlash+0xb8>)
 80008c8:	f005 fe02 	bl	80064d0 <msound_setChannel>
 80008cc:	e7ef      	b.n	80008ae <alisa_actionSlash+0x8e>
 80008ce:	46c0      	nop			; (mov r8, r8)
 80008d0:	08008440 	.word	0x08008440
 80008d4:	03000c24 	.word	0x03000c24
 80008d8:	080297cc 	.word	0x080297cc

080008dc <alisa_checkMapCollision>:
 80008dc:	b570      	push	{r4, r5, r6, lr}
 80008de:	000d      	movs	r5, r1
 80008e0:	0004      	movs	r4, r0
 80008e2:	f000 fc9d 	bl	8001220 <commonCharacterMapEdgeCheck>
 80008e6:	2335      	movs	r3, #53	; 0x35
 80008e8:	5ce3      	ldrb	r3, [r4, r3]
 80008ea:	4a07      	ldr	r2, [pc, #28]	; (8000908 <alisa_checkMapCollision+0x2c>)
 80008ec:	071b      	lsls	r3, r3, #28
 80008ee:	4907      	ldr	r1, [pc, #28]	; (800090c <alisa_checkMapCollision+0x30>)
 80008f0:	169b      	asrs	r3, r3, #26
 80008f2:	18d2      	adds	r2, r2, r3
 80008f4:	0020      	movs	r0, r4
 80008f6:	585b      	ldr	r3, [r3, r1]
 80008f8:	6e12      	ldr	r2, [r2, #96]	; 0x60
 80008fa:	0029      	movs	r1, r5
 80008fc:	f000 f923 	bl	8000b46 <alisa_getBoundingBoxMoving+0x36>
 8000900:	bc70      	pop	{r4, r5, r6}
 8000902:	bc01      	pop	{r0}
 8000904:	4700      	bx	r0
 8000906:	46c0      	nop			; (mov r8, r8)
 8000908:	08008440 	.word	0x08008440
 800090c:	080084c0 	.word	0x080084c0

08000910 <alisa_checkCollision>:
 8000910:	b5f0      	push	{r4, r5, r6, r7, lr}
 8000912:	001d      	movs	r5, r3
 8000914:	000f      	movs	r7, r1
 8000916:	b08b      	sub	sp, #44	; 0x2c
 8000918:	68c3      	ldr	r3, [r0, #12]
 800091a:	0016      	movs	r6, r2
 800091c:	a901      	add	r1, sp, #4
 800091e:	aa02      	add	r2, sp, #8
 8000920:	0004      	movs	r4, r0
 8000922:	f000 f910 	bl	8000b46 <alisa_getBoundingBoxMoving+0x36>
 8000926:	0028      	movs	r0, r5
 8000928:	68eb      	ldr	r3, [r5, #12]
 800092a:	aa06      	add	r2, sp, #24
 800092c:	a901      	add	r1, sp, #4
 800092e:	f000 f90a 	bl	8000b46 <alisa_getBoundingBoxMoving+0x36>
 8000932:	0038      	movs	r0, r7
 8000934:	aa06      	add	r2, sp, #24
 8000936:	a902      	add	r1, sp, #8
 8000938:	f000 ff3a 	bl	80017b0 <common_checkNext>
 800093c:	7030      	strb	r0, [r6, #0]
 800093e:	2800      	cmp	r0, #0
 8000940:	d012      	beq.n	8000968 <alisa_checkCollision+0x58>
 8000942:	466b      	mov	r3, sp
 8000944:	2135      	movs	r1, #53	; 0x35
 8000946:	7d1b      	ldrb	r3, [r3, #20]
 8000948:	5c61      	ldrb	r1, [r4, r1]
 800094a:	065b      	lsls	r3, r3, #25
 800094c:	0fdb      	lsrs	r3, r3, #31
 800094e:	0709      	lsls	r1, r1, #28
 8000950:	1709      	asrs	r1, r1, #28
 8000952:	00db      	lsls	r3, r3, #3
 8000954:	185b      	adds	r3, r3, r1
 8000956:	4a06      	ldr	r2, [pc, #24]	; (8000970 <alisa_checkCollision+0x60>)
 8000958:	009b      	lsls	r3, r3, #2
 800095a:	18d2      	adds	r2, r2, r3
 800095c:	6a13      	ldr	r3, [r2, #32]
 800095e:	0020      	movs	r0, r4
 8000960:	aa06      	add	r2, sp, #24
 8000962:	a902      	add	r1, sp, #8
 8000964:	f000 f8ef 	bl	8000b46 <alisa_getBoundingBoxMoving+0x36>
 8000968:	b00b      	add	sp, #44	; 0x2c
 800096a:	bcf0      	pop	{r4, r5, r6, r7}
 800096c:	bc01      	pop	{r0}
 800096e:	4700      	bx	r0
 8000970:	080084c0 	.word	0x080084c0

08000974 <alisa_checkActionEventCollision>:
 8000974:	b5f0      	push	{r4, r5, r6, r7, lr}
 8000976:	4657      	mov	r7, sl
 8000978:	464e      	mov	r6, r9
 800097a:	46de      	mov	lr, fp
 800097c:	4645      	mov	r5, r8
 800097e:	232c      	movs	r3, #44	; 0x2c
 8000980:	b5e0      	push	{r5, r6, r7, lr}
 8000982:	5cc3      	ldrb	r3, [r0, r3]
 8000984:	4682      	mov	sl, r0
 8000986:	4689      	mov	r9, r1
 8000988:	b089      	sub	sp, #36	; 0x24
 800098a:	2b01      	cmp	r3, #1
 800098c:	d03d      	beq.n	8000a0a <alisa_checkActionEventCollision+0x96>
 800098e:	6d03      	ldr	r3, [r0, #80]	; 0x50
 8000990:	aa04      	add	r2, sp, #16
 8000992:	469b      	mov	fp, r3
 8000994:	a903      	add	r1, sp, #12
 8000996:	68c3      	ldr	r3, [r0, #12]
 8000998:	f000 f8d5 	bl	8000b46 <alisa_getBoundingBoxMoving+0x36>
 800099c:	464b      	mov	r3, r9
 800099e:	781b      	ldrb	r3, [r3, #0]
 80009a0:	2b00      	cmp	r3, #0
 80009a2:	d032      	beq.n	8000a0a <alisa_checkActionEventCollision+0x96>
 80009a4:	2300      	movs	r3, #0
 80009a6:	2400      	movs	r4, #0
 80009a8:	4698      	mov	r8, r3
 80009aa:	9301      	str	r3, [sp, #4]
 80009ac:	464b      	mov	r3, r9
 80009ae:	685f      	ldr	r7, [r3, #4]
 80009b0:	4447      	add	r7, r8
 80009b2:	7a7a      	ldrb	r2, [r7, #9]
 80009b4:	0952      	lsrs	r2, r2, #5
 80009b6:	d00f      	beq.n	80009d8 <alisa_checkActionEventCollision+0x64>
 80009b8:	003e      	movs	r6, r7
 80009ba:	2500      	movs	r5, #0
 80009bc:	360c      	adds	r6, #12
 80009be:	0030      	movs	r0, r6
 80009c0:	a904      	add	r1, sp, #16
 80009c2:	f001 fc5b 	bl	800227c <commonPositionInBounds>
 80009c6:	7a7b      	ldrb	r3, [r7, #9]
 80009c8:	4320      	orrs	r0, r4
 80009ca:	0600      	lsls	r0, r0, #24
 80009cc:	3501      	adds	r5, #1
 80009ce:	0e04      	lsrs	r4, r0, #24
 80009d0:	3608      	adds	r6, #8
 80009d2:	095b      	lsrs	r3, r3, #5
 80009d4:	42ab      	cmp	r3, r5
 80009d6:	dcf2      	bgt.n	80009be <alisa_checkActionEventCollision+0x4a>
 80009d8:	2c00      	cmp	r4, #0
 80009da:	d00c      	beq.n	80009f6 <alisa_checkActionEventCollision+0x82>
 80009dc:	4653      	mov	r3, sl
 80009de:	4652      	mov	r2, sl
 80009e0:	8d5b      	ldrh	r3, [r3, #42]	; 0x2a
 80009e2:	3b01      	subs	r3, #1
 80009e4:	8553      	strh	r3, [r2, #42]	; 0x2a
 80009e6:	465b      	mov	r3, fp
 80009e8:	220f      	movs	r2, #15
 80009ea:	785b      	ldrb	r3, [r3, #1]
 80009ec:	4393      	bics	r3, r2
 80009ee:	3a0e      	subs	r2, #14
 80009f0:	4313      	orrs	r3, r2
 80009f2:	465a      	mov	r2, fp
 80009f4:	7053      	strb	r3, [r2, #1]
 80009f6:	2334      	movs	r3, #52	; 0x34
 80009f8:	469c      	mov	ip, r3
 80009fa:	464b      	mov	r3, r9
 80009fc:	9a01      	ldr	r2, [sp, #4]
 80009fe:	781b      	ldrb	r3, [r3, #0]
 8000a00:	3201      	adds	r2, #1
 8000a02:	9201      	str	r2, [sp, #4]
 8000a04:	44e0      	add	r8, ip
 8000a06:	4293      	cmp	r3, r2
 8000a08:	dcd0      	bgt.n	80009ac <alisa_checkActionEventCollision+0x38>
 8000a0a:	b009      	add	sp, #36	; 0x24
 8000a0c:	bcf0      	pop	{r4, r5, r6, r7}
 8000a0e:	46bb      	mov	fp, r7
 8000a10:	46b2      	mov	sl, r6
 8000a12:	46a9      	mov	r9, r5
 8000a14:	46a0      	mov	r8, r4
 8000a16:	bcf0      	pop	{r4, r5, r6, r7}
 8000a18:	bc01      	pop	{r0}
 8000a1a:	4700      	bx	r0

08000a1c <alisa_init>:
 8000a1c:	b5f0      	push	{r4, r5, r6, r7, lr}
 8000a1e:	2500      	movs	r5, #0
 8000a20:	0004      	movs	r4, r0
 8000a22:	b083      	sub	sp, #12
 8000a24:	8605      	strh	r5, [r0, #48]	; 0x30
 8000a26:	000e      	movs	r6, r1
 8000a28:	f005 ff34 	bl	8006894 <sprite_vram_findId>
 8000a2c:	2380      	movs	r3, #128	; 0x80
 8000a2e:	8c22      	ldrh	r2, [r4, #32]
 8000a30:	0580      	lsls	r0, r0, #22
 8000a32:	0d80      	lsrs	r0, r0, #22
 8000a34:	00db      	lsls	r3, r3, #3
 8000a36:	0ad2      	lsrs	r2, r2, #11
 8000a38:	02d2      	lsls	r2, r2, #11
 8000a3a:	4303      	orrs	r3, r0
 8000a3c:	4313      	orrs	r3, r2
 8000a3e:	8423      	strh	r3, [r4, #32]
 8000a40:	2102      	movs	r1, #2
 8000a42:	2000      	movs	r0, #0
 8000a44:	f005 ff92 	bl	800696c <sprite_palette_findId>
 8000a48:	0022      	movs	r2, r4
 8000a4a:	210f      	movs	r1, #15
 8000a4c:	2778      	movs	r7, #120	; 0x78
 8000a4e:	3220      	adds	r2, #32
 8000a50:	7853      	ldrb	r3, [r2, #1]
 8000a52:	4001      	ands	r1, r0
 8000a54:	00c8      	lsls	r0, r1, #3
 8000a56:	43bb      	bics	r3, r7
 8000a58:	4303      	orrs	r3, r0
 8000a5a:	7053      	strb	r3, [r2, #1]
 8000a5c:	481e      	ldr	r0, [pc, #120]	; (8000ad8 <alisa_init+0xbc>)
 8000a5e:	f005 ffdf 	bl	8006a20 <sprite_palette_copy32_ID>
 8000a62:	2321      	movs	r3, #33	; 0x21
 8000a64:	5ce1      	ldrb	r1, [r4, r3]
 8000a66:	0649      	lsls	r1, r1, #25
 8000a68:	0f09      	lsrs	r1, r1, #28
 8000a6a:	481c      	ldr	r0, [pc, #112]	; (8000adc <alisa_init+0xc0>)
 8000a6c:	3101      	adds	r1, #1
 8000a6e:	f005 ffd7 	bl	8006a20 <sprite_palette_copy32_ID>
 8000a72:	2101      	movs	r1, #1
 8000a74:	0020      	movs	r0, r4
 8000a76:	2300      	movs	r3, #0
 8000a78:	2200      	movs	r2, #0
 8000a7a:	4249      	negs	r1, r1
 8000a7c:	f000 fbba 	bl	80011f4 <commonCharacterInit>
 8000a80:	2200      	movs	r2, #0
 8000a82:	2100      	movs	r1, #0
 8000a84:	0020      	movs	r0, r4
 8000a86:	2300      	movs	r3, #0
 8000a88:	9500      	str	r5, [sp, #0]
 8000a8a:	f000 fb9d 	bl	80011c8 <commonCharacterSetPosition>
 8000a8e:	4b14      	ldr	r3, [pc, #80]	; (8000ae0 <alisa_init+0xc4>)
 8000a90:	6023      	str	r3, [r4, #0]
 8000a92:	4b14      	ldr	r3, [pc, #80]	; (8000ae4 <alisa_init+0xc8>)
 8000a94:	6063      	str	r3, [r4, #4]
 8000a96:	4b14      	ldr	r3, [pc, #80]	; (8000ae8 <alisa_init+0xcc>)
 8000a98:	60a3      	str	r3, [r4, #8]
 8000a9a:	4b14      	ldr	r3, [pc, #80]	; (8000aec <alisa_init+0xd0>)
 8000a9c:	60e3      	str	r3, [r4, #12]
 8000a9e:	4b14      	ldr	r3, [pc, #80]	; (8000af0 <alisa_init+0xd4>)
 8000aa0:	6123      	str	r3, [r4, #16]
 8000aa2:	4b14      	ldr	r3, [pc, #80]	; (8000af4 <alisa_init+0xd8>)
 8000aa4:	6163      	str	r3, [r4, #20]
 8000aa6:	4b14      	ldr	r3, [pc, #80]	; (8000af8 <alisa_init+0xdc>)
 8000aa8:	0030      	movs	r0, r6
 8000aaa:	61a3      	str	r3, [r4, #24]
 8000aac:	f005 f812 	bl	8005ad4 <mchar_getControlType>
 8000ab0:	4b12      	ldr	r3, [pc, #72]	; (8000afc <alisa_init+0xe0>)
 8000ab2:	6802      	ldr	r2, [r0, #0]
 8000ab4:	401a      	ands	r2, r3
 8000ab6:	4b12      	ldr	r3, [pc, #72]	; (8000b00 <alisa_init+0xe4>)
 8000ab8:	4313      	orrs	r3, r2
 8000aba:	6003      	str	r3, [r0, #0]
 8000abc:	4b11      	ldr	r3, [pc, #68]	; (8000b04 <alisa_init+0xe8>)
 8000abe:	6103      	str	r3, [r0, #16]
 8000ac0:	4b11      	ldr	r3, [pc, #68]	; (8000b08 <alisa_init+0xec>)
 8000ac2:	6143      	str	r3, [r0, #20]
 8000ac4:	4b11      	ldr	r3, [pc, #68]	; (8000b0c <alisa_init+0xf0>)
 8000ac6:	6185      	str	r5, [r0, #24]
 8000ac8:	61c5      	str	r5, [r0, #28]
 8000aca:	6520      	str	r0, [r4, #80]	; 0x50
 8000acc:	62a3      	str	r3, [r4, #40]	; 0x28
 8000ace:	b003      	add	sp, #12
 8000ad0:	bcf0      	pop	{r4, r5, r6, r7}
 8000ad2:	bc01      	pop	{r0}
 8000ad4:	4700      	bx	r0
 8000ad6:	46c0      	nop			; (mov r8, r8)
 8000ad8:	0802e0dc 	.word	0x0802e0dc
 8000adc:	0802f468 	.word	0x0802f468
 8000ae0:	08000c1d 	.word	0x08000c1d
 8000ae4:	0800043d 	.word	0x0800043d
 8000ae8:	0800046d 	.word	0x0800046d
 8000aec:	08000409 	.word	0x08000409
 8000af0:	08000911 	.word	0x08000911
 8000af4:	080008dd 	.word	0x080008dd
 8000af8:	08000975 	.word	0x08000975
 8000afc:	000ff0f8 	.word	0x000ff0f8
 8000b00:	c0000003 	.word	0xc0000003
 8000b04:	08000db9 	.word	0x08000db9
 8000b08:	0800100d 	.word	0x0800100d
 8000b0c:	000a000a 	.word	0x000a000a

08000b10 <alisa_getBoundingBoxMoving>:
 8000b10:	2301      	movs	r3, #1
 8000b12:	b510      	push	{r4, lr}
 8000b14:	600b      	str	r3, [r1, #0]
 8000b16:	8f81      	ldrh	r1, [r0, #60]	; 0x3c
 8000b18:	8fc3      	ldrh	r3, [r0, #62]	; 0x3e
 8000b1a:	1fcc      	subs	r4, r1, #7
 8000b1c:	8014      	strh	r4, [r2, #0]
 8000b1e:	1fdc      	subs	r4, r3, #7
 8000b20:	3307      	adds	r3, #7
 8000b22:	80d3      	strh	r3, [r2, #6]
 8000b24:	2335      	movs	r3, #53	; 0x35
 8000b26:	3107      	adds	r1, #7
 8000b28:	8091      	strh	r1, [r2, #4]
 8000b2a:	2140      	movs	r1, #64	; 0x40
 8000b2c:	8054      	strh	r4, [r2, #2]
 8000b2e:	5cc3      	ldrb	r3, [r0, r3]
 8000b30:	075b      	lsls	r3, r3, #29
 8000b32:	0f5b      	lsrs	r3, r3, #29
 8000b34:	430b      	orrs	r3, r1
 8000b36:	2138      	movs	r1, #56	; 0x38
 8000b38:	7b10      	ldrb	r0, [r2, #12]
 8000b3a:	4001      	ands	r1, r0
 8000b3c:	430b      	orrs	r3, r1
 8000b3e:	7313      	strb	r3, [r2, #12]
 8000b40:	bc10      	pop	{r4}
 8000b42:	bc01      	pop	{r0}
 8000b44:	4700      	bx	r0
 8000b46:	4718      	bx	r3
 8000b48:	4730      	bx	r6
 8000b4a:	46c0      	nop			; (mov r8, r8)

08000b4c <alisa_stunnedController>:
 8000b4c:	b530      	push	{r4, r5, lr}
 8000b4e:	b085      	sub	sp, #20
 8000b50:	466b      	mov	r3, sp
 8000b52:	2200      	movs	r2, #0
 8000b54:	3307      	adds	r3, #7
 8000b56:	701a      	strb	r2, [r3, #0]
 8000b58:	a902      	add	r1, sp, #8
 8000b5a:	aa03      	add	r2, sp, #12
 8000b5c:	0004      	movs	r4, r0
 8000b5e:	6d05      	ldr	r5, [r0, #80]	; 0x50
 8000b60:	f000 fd94 	bl	800168c <commonGetNextFrame>
 8000b64:	9b02      	ldr	r3, [sp, #8]
 8000b66:	2b3c      	cmp	r3, #60	; 0x3c
 8000b68:	dc0b      	bgt.n	8000b82 <alisa_stunnedController+0x36>
 8000b6a:	4b09      	ldr	r3, [pc, #36]	; (8000b90 <alisa_stunnedController+0x44>)
 8000b6c:	2207      	movs	r2, #7
 8000b6e:	60e3      	str	r3, [r4, #12]
 8000b70:	2336      	movs	r3, #54	; 0x36
 8000b72:	54e2      	strb	r2, [r4, r3]
 8000b74:	3b0a      	subs	r3, #10
 8000b76:	3a06      	subs	r2, #6
 8000b78:	54e2      	strb	r2, [r4, r3]
 8000b7a:	b005      	add	sp, #20
 8000b7c:	bc30      	pop	{r4, r5}
 8000b7e:	bc01      	pop	{r0}
 8000b80:	4700      	bx	r0
 8000b82:	220f      	movs	r2, #15
 8000b84:	786b      	ldrb	r3, [r5, #1]
 8000b86:	4393      	bics	r3, r2
 8000b88:	706b      	strb	r3, [r5, #1]
 8000b8a:	4b02      	ldr	r3, [pc, #8]	; (8000b94 <alisa_stunnedController+0x48>)
 8000b8c:	6023      	str	r3, [r4, #0]
 8000b8e:	e7f4      	b.n	8000b7a <alisa_stunnedController+0x2e>
 8000b90:	08000409 	.word	0x08000409
 8000b94:	08000c1d 	.word	0x08000c1d

08000b98 <alisa_dashForwardController>:
 8000b98:	b5f0      	push	{r4, r5, r6, r7, lr}
 8000b9a:	b085      	sub	sp, #20
 8000b9c:	2200      	movs	r2, #0
 8000b9e:	466b      	mov	r3, sp
 8000ba0:	270f      	movs	r7, #15
 8000ba2:	6d06      	ldr	r6, [r0, #80]	; 0x50
 8000ba4:	7875      	ldrb	r5, [r6, #1]
 8000ba6:	0004      	movs	r4, r0
 8000ba8:	719a      	strb	r2, [r3, #6]
 8000baa:	403d      	ands	r5, r7
 8000bac:	2d01      	cmp	r5, #1
 8000bae:	d016      	beq.n	8000bde <alisa_dashForwardController+0x46>
 8000bb0:	232c      	movs	r3, #44	; 0x2c
 8000bb2:	54c2      	strb	r2, [r0, r3]
 8000bb4:	4b15      	ldr	r3, [pc, #84]	; (8000c0c <alisa_dashForwardController+0x74>)
 8000bb6:	2205      	movs	r2, #5
 8000bb8:	60c3      	str	r3, [r0, #12]
 8000bba:	2336      	movs	r3, #54	; 0x36
 8000bbc:	54c2      	strb	r2, [r0, r3]
 8000bbe:	466b      	mov	r3, sp
 8000bc0:	aa03      	add	r2, sp, #12
 8000bc2:	3306      	adds	r3, #6
 8000bc4:	a902      	add	r1, sp, #8
 8000bc6:	f000 fd61 	bl	800168c <commonGetNextFrame>
 8000bca:	466b      	mov	r3, sp
 8000bcc:	799b      	ldrb	r3, [r3, #6]
 8000bce:	2b00      	cmp	r3, #0
 8000bd0:	d001      	beq.n	8000bd6 <alisa_dashForwardController+0x3e>
 8000bd2:	4b0f      	ldr	r3, [pc, #60]	; (8000c10 <alisa_dashForwardController+0x78>)
 8000bd4:	6023      	str	r3, [r4, #0]
 8000bd6:	b005      	add	sp, #20
 8000bd8:	bcf0      	pop	{r4, r5, r6, r7}
 8000bda:	bc01      	pop	{r0}
 8000bdc:	4700      	bx	r0
 8000bde:	3307      	adds	r3, #7
 8000be0:	701a      	strb	r2, [r3, #0]
 8000be2:	a902      	add	r1, sp, #8
 8000be4:	aa03      	add	r2, sp, #12
 8000be6:	f000 fd51 	bl	800168c <commonGetNextFrame>
 8000bea:	9b02      	ldr	r3, [sp, #8]
 8000bec:	2b3c      	cmp	r3, #60	; 0x3c
 8000bee:	dc09      	bgt.n	8000c04 <alisa_dashForwardController+0x6c>
 8000bf0:	2336      	movs	r3, #54	; 0x36
 8000bf2:	2207      	movs	r2, #7
 8000bf4:	54e2      	strb	r2, [r4, r3]
 8000bf6:	3b0a      	subs	r3, #10
 8000bf8:	54e5      	strb	r5, [r4, r3]
 8000bfa:	4b06      	ldr	r3, [pc, #24]	; (8000c14 <alisa_dashForwardController+0x7c>)
 8000bfc:	6023      	str	r3, [r4, #0]
 8000bfe:	4b06      	ldr	r3, [pc, #24]	; (8000c18 <alisa_dashForwardController+0x80>)
 8000c00:	60e3      	str	r3, [r4, #12]
 8000c02:	e7e8      	b.n	8000bd6 <alisa_dashForwardController+0x3e>
 8000c04:	7873      	ldrb	r3, [r6, #1]
 8000c06:	43bb      	bics	r3, r7
 8000c08:	7073      	strb	r3, [r6, #1]
 8000c0a:	e7f6      	b.n	8000bfa <alisa_dashForwardController+0x62>
 8000c0c:	08000b11 	.word	0x08000b11
 8000c10:	08000c1d 	.word	0x08000c1d
 8000c14:	08000b4d 	.word	0x08000b4d
 8000c18:	08000409 	.word	0x08000409

08000c1c <alisa_controller>:
 8000c1c:	b5f0      	push	{r4, r5, r6, r7, lr}
 8000c1e:	250f      	movs	r5, #15
 8000c20:	0029      	movs	r1, r5
 8000c22:	4b33      	ldr	r3, [pc, #204]	; (8000cf0 <alisa_controller+0xd4>)
 8000c24:	6d07      	ldr	r7, [r0, #80]	; 0x50
 8000c26:	881a      	ldrh	r2, [r3, #0]
 8000c28:	787e      	ldrb	r6, [r7, #1]
 8000c2a:	4b32      	ldr	r3, [pc, #200]	; (8000cf4 <alisa_controller+0xd8>)
 8000c2c:	0912      	lsrs	r2, r2, #4
 8000c2e:	4391      	bics	r1, r2
 8000c30:	0004      	movs	r4, r0
 8000c32:	565b      	ldrsb	r3, [r3, r1]
 8000c34:	b085      	sub	sp, #20
 8000c36:	402e      	ands	r6, r5
 8000c38:	2e01      	cmp	r6, #1
 8000c3a:	d03d      	beq.n	8000cb8 <alisa_controller+0x9c>
 8000c3c:	222c      	movs	r2, #44	; 0x2c
 8000c3e:	2100      	movs	r1, #0
 8000c40:	5481      	strb	r1, [r0, r2]
 8000c42:	3209      	adds	r2, #9
 8000c44:	5c81      	ldrb	r1, [r0, r2]
 8000c46:	204f      	movs	r0, #79	; 0x4f
 8000c48:	000e      	movs	r6, r1
 8000c4a:	4386      	bics	r6, r0
 8000c4c:	2e20      	cmp	r6, #32
 8000c4e:	d003      	beq.n	8000c58 <alisa_controller+0x3c>
 8000c50:	400d      	ands	r5, r1
 8000c52:	2120      	movs	r1, #32
 8000c54:	430d      	orrs	r5, r1
 8000c56:	54a5      	strb	r5, [r4, r2]
 8000c58:	1c5a      	adds	r2, r3, #1
 8000c5a:	d017      	beq.n	8000c8c <alisa_controller+0x70>
 8000c5c:	2236      	movs	r2, #54	; 0x36
 8000c5e:	2101      	movs	r1, #1
 8000c60:	54a1      	strb	r1, [r4, r2]
 8000c62:	21fb      	movs	r1, #251	; 0xfb
 8000c64:	0609      	lsls	r1, r1, #24
 8000c66:	468c      	mov	ip, r1
 8000c68:	3201      	adds	r2, #1
 8000c6a:	54a3      	strb	r3, [r4, r2]
 8000c6c:	061b      	lsls	r3, r3, #24
 8000c6e:	0e1a      	lsrs	r2, r3, #24
 8000c70:	4463      	add	r3, ip
 8000c72:	0e1b      	lsrs	r3, r3, #24
 8000c74:	2b02      	cmp	r3, #2
 8000c76:	d812      	bhi.n	8000c9e <alisa_controller+0x82>
 8000c78:	2235      	movs	r2, #53	; 0x35
 8000c7a:	230f      	movs	r3, #15
 8000c7c:	5ca1      	ldrb	r1, [r4, r2]
 8000c7e:	400b      	ands	r3, r1
 8000c80:	2160      	movs	r1, #96	; 0x60
 8000c82:	430b      	orrs	r3, r1
 8000c84:	54a3      	strb	r3, [r4, r2]
 8000c86:	4b1c      	ldr	r3, [pc, #112]	; (8000cf8 <alisa_controller+0xdc>)
 8000c88:	60e3      	str	r3, [r4, #12]
 8000c8a:	e004      	b.n	8000c96 <alisa_controller+0x7a>
 8000c8c:	4b1b      	ldr	r3, [pc, #108]	; (8000cfc <alisa_controller+0xe0>)
 8000c8e:	2200      	movs	r2, #0
 8000c90:	60e3      	str	r3, [r4, #12]
 8000c92:	2336      	movs	r3, #54	; 0x36
 8000c94:	54e2      	strb	r2, [r4, r3]
 8000c96:	b005      	add	sp, #20
 8000c98:	bcf0      	pop	{r4, r5, r6, r7}
 8000c9a:	bc01      	pop	{r0}
 8000c9c:	4700      	bx	r0
 8000c9e:	3a01      	subs	r2, #1
 8000ca0:	0612      	lsls	r2, r2, #24
 8000ca2:	0e12      	lsrs	r2, r2, #24
 8000ca4:	2a02      	cmp	r2, #2
 8000ca6:	d8ee      	bhi.n	8000c86 <alisa_controller+0x6a>
 8000ca8:	2235      	movs	r2, #53	; 0x35
 8000caa:	230f      	movs	r3, #15
 8000cac:	5ca1      	ldrb	r1, [r4, r2]
 8000cae:	400b      	ands	r3, r1
 8000cb0:	2120      	movs	r1, #32
 8000cb2:	430b      	orrs	r3, r1
 8000cb4:	54a3      	strb	r3, [r4, r2]
 8000cb6:	e7e6      	b.n	8000c86 <alisa_controller+0x6a>
 8000cb8:	4b11      	ldr	r3, [pc, #68]	; (8000d00 <alisa_controller+0xe4>)
 8000cba:	6003      	str	r3, [r0, #0]
 8000cbc:	466b      	mov	r3, sp
 8000cbe:	2200      	movs	r2, #0
 8000cc0:	3307      	adds	r3, #7
 8000cc2:	701a      	strb	r2, [r3, #0]
 8000cc4:	a902      	add	r1, sp, #8
 8000cc6:	aa03      	add	r2, sp, #12
 8000cc8:	f000 fce0 	bl	800168c <commonGetNextFrame>
 8000ccc:	9b02      	ldr	r3, [sp, #8]
 8000cce:	2b3c      	cmp	r3, #60	; 0x3c
 8000cd0:	dc07      	bgt.n	8000ce2 <alisa_controller+0xc6>
 8000cd2:	4b0a      	ldr	r3, [pc, #40]	; (8000cfc <alisa_controller+0xe0>)
 8000cd4:	2207      	movs	r2, #7
 8000cd6:	60e3      	str	r3, [r4, #12]
 8000cd8:	2336      	movs	r3, #54	; 0x36
 8000cda:	54e2      	strb	r2, [r4, r3]
 8000cdc:	3b0a      	subs	r3, #10
 8000cde:	54e6      	strb	r6, [r4, r3]
 8000ce0:	e7d9      	b.n	8000c96 <alisa_controller+0x7a>
 8000ce2:	787b      	ldrb	r3, [r7, #1]
 8000ce4:	43ab      	bics	r3, r5
 8000ce6:	707b      	strb	r3, [r7, #1]
 8000ce8:	4b06      	ldr	r3, [pc, #24]	; (8000d04 <alisa_controller+0xe8>)
 8000cea:	6023      	str	r3, [r4, #0]
 8000cec:	e7d3      	b.n	8000c96 <alisa_controller+0x7a>
 8000cee:	46c0      	nop			; (mov r8, r8)
 8000cf0:	04000130 	.word	0x04000130
 8000cf4:	0800a6d8 	.word	0x0800a6d8
 8000cf8:	08000b11 	.word	0x08000b11
 8000cfc:	08000409 	.word	0x08000409
 8000d00:	08000b4d 	.word	0x08000b4d
 8000d04:	08000c1d 	.word	0x08000c1d

08000d08 <alisa_dashBackwardController>:
 8000d08:	b5f0      	push	{r4, r5, r6, r7, lr}
 8000d0a:	b085      	sub	sp, #20
 8000d0c:	2200      	movs	r2, #0
 8000d0e:	466b      	mov	r3, sp
 8000d10:	270f      	movs	r7, #15
 8000d12:	6d06      	ldr	r6, [r0, #80]	; 0x50
 8000d14:	7875      	ldrb	r5, [r6, #1]
 8000d16:	0004      	movs	r4, r0
 8000d18:	719a      	strb	r2, [r3, #6]
 8000d1a:	403d      	ands	r5, r7
 8000d1c:	2d01      	cmp	r5, #1
 8000d1e:	d022      	beq.n	8000d66 <alisa_dashBackwardController+0x5e>
 8000d20:	232c      	movs	r3, #44	; 0x2c
 8000d22:	54c2      	strb	r2, [r0, r3]
 8000d24:	4b20      	ldr	r3, [pc, #128]	; (8000da8 <alisa_dashBackwardController+0xa0>)
 8000d26:	2206      	movs	r2, #6
 8000d28:	60c3      	str	r3, [r0, #12]
 8000d2a:	2336      	movs	r3, #54	; 0x36
 8000d2c:	54c2      	strb	r2, [r0, r3]
 8000d2e:	466b      	mov	r3, sp
 8000d30:	aa03      	add	r2, sp, #12
 8000d32:	3306      	adds	r3, #6
 8000d34:	a902      	add	r1, sp, #8
 8000d36:	f000 fca9 	bl	800168c <commonGetNextFrame>
 8000d3a:	466b      	mov	r3, sp
 8000d3c:	799b      	ldrb	r3, [r3, #6]
 8000d3e:	2b00      	cmp	r3, #0
 8000d40:	d103      	bne.n	8000d4a <alisa_dashBackwardController+0x42>
 8000d42:	b005      	add	sp, #20
 8000d44:	bcf0      	pop	{r4, r5, r6, r7}
 8000d46:	bc01      	pop	{r0}
 8000d48:	4700      	bx	r0
 8000d4a:	2335      	movs	r3, #53	; 0x35
 8000d4c:	2237      	movs	r2, #55	; 0x37
 8000d4e:	5ce3      	ldrb	r3, [r4, r3]
 8000d50:	061b      	lsls	r3, r3, #24
 8000d52:	171b      	asrs	r3, r3, #28
 8000d54:	54a3      	strb	r3, [r4, r2]
 8000d56:	4b15      	ldr	r3, [pc, #84]	; (8000dac <alisa_dashBackwardController+0xa4>)
 8000d58:	2200      	movs	r2, #0
 8000d5a:	2100      	movs	r1, #0
 8000d5c:	0020      	movs	r0, r4
 8000d5e:	6023      	str	r3, [r4, #0]
 8000d60:	f7ff ff5c 	bl	8000c1c <alisa_controller>
 8000d64:	e7ed      	b.n	8000d42 <alisa_dashBackwardController+0x3a>
 8000d66:	2335      	movs	r3, #53	; 0x35
 8000d68:	2137      	movs	r1, #55	; 0x37
 8000d6a:	5cc3      	ldrb	r3, [r0, r3]
 8000d6c:	061b      	lsls	r3, r3, #24
 8000d6e:	171b      	asrs	r3, r3, #28
 8000d70:	5443      	strb	r3, [r0, r1]
 8000d72:	4b0f      	ldr	r3, [pc, #60]	; (8000db0 <alisa_dashBackwardController+0xa8>)
 8000d74:	6003      	str	r3, [r0, #0]
 8000d76:	466b      	mov	r3, sp
 8000d78:	a902      	add	r1, sp, #8
 8000d7a:	3307      	adds	r3, #7
 8000d7c:	701a      	strb	r2, [r3, #0]
 8000d7e:	aa03      	add	r2, sp, #12
 8000d80:	f000 fc84 	bl	800168c <commonGetNextFrame>
 8000d84:	9b02      	ldr	r3, [sp, #8]
 8000d86:	2b3c      	cmp	r3, #60	; 0x3c
 8000d88:	dc07      	bgt.n	8000d9a <alisa_dashBackwardController+0x92>
 8000d8a:	2336      	movs	r3, #54	; 0x36
 8000d8c:	2207      	movs	r2, #7
 8000d8e:	54e2      	strb	r2, [r4, r3]
 8000d90:	3b0a      	subs	r3, #10
 8000d92:	54e5      	strb	r5, [r4, r3]
 8000d94:	4b07      	ldr	r3, [pc, #28]	; (8000db4 <alisa_dashBackwardController+0xac>)
 8000d96:	60e3      	str	r3, [r4, #12]
 8000d98:	e7d3      	b.n	8000d42 <alisa_dashBackwardController+0x3a>
 8000d9a:	7873      	ldrb	r3, [r6, #1]
 8000d9c:	43bb      	bics	r3, r7
 8000d9e:	7073      	strb	r3, [r6, #1]
 8000da0:	4b02      	ldr	r3, [pc, #8]	; (8000dac <alisa_dashBackwardController+0xa4>)
 8000da2:	6023      	str	r3, [r4, #0]
 8000da4:	e7f6      	b.n	8000d94 <alisa_dashBackwardController+0x8c>
 8000da6:	46c0      	nop			; (mov r8, r8)
 8000da8:	08000b11 	.word	0x08000b11
 8000dac:	08000c1d 	.word	0x08000c1d
 8000db0:	08000b4d 	.word	0x08000b4d
 8000db4:	08000409 	.word	0x08000409

08000db8 <alisa_slashController>:
 8000db8:	b5f0      	push	{r4, r5, r6, r7, lr}
 8000dba:	b085      	sub	sp, #20
 8000dbc:	2100      	movs	r1, #0
 8000dbe:	466b      	mov	r3, sp
 8000dc0:	270f      	movs	r7, #15
 8000dc2:	6d06      	ldr	r6, [r0, #80]	; 0x50
 8000dc4:	7875      	ldrb	r5, [r6, #1]
 8000dc6:	0004      	movs	r4, r0
 8000dc8:	7199      	strb	r1, [r3, #6]
 8000dca:	403d      	ands	r5, r7
 8000dcc:	2d01      	cmp	r5, #1
 8000dce:	d058      	beq.n	8000e82 <alisa_slashController+0xca>
 8000dd0:	232c      	movs	r3, #44	; 0x2c
 8000dd2:	54c1      	strb	r1, [r0, r3]
 8000dd4:	4b36      	ldr	r3, [pc, #216]	; (8000eb0 <alisa_slashController+0xf8>)
 8000dd6:	60c3      	str	r3, [r0, #12]
 8000dd8:	4a36      	ldr	r2, [pc, #216]	; (8000eb4 <alisa_slashController+0xfc>)
 8000dda:	6933      	ldr	r3, [r6, #16]
 8000ddc:	4293      	cmp	r3, r2
 8000dde:	d00c      	beq.n	8000dfa <alisa_slashController+0x42>
 8000de0:	2236      	movs	r2, #54	; 0x36
 8000de2:	5ca3      	ldrb	r3, [r4, r2]
 8000de4:	3b02      	subs	r3, #2
 8000de6:	061b      	lsls	r3, r3, #24
 8000de8:	0e1b      	lsrs	r3, r3, #24
 8000dea:	2b01      	cmp	r3, #1
 8000dec:	d936      	bls.n	8000e5c <alisa_slashController+0xa4>
 8000dee:	2300      	movs	r3, #0
 8000df0:	54a3      	strb	r3, [r4, r2]
 8000df2:	b005      	add	sp, #20
 8000df4:	bcf0      	pop	{r4, r5, r6, r7}
 8000df6:	bc01      	pop	{r0}
 8000df8:	4700      	bx	r0
 8000dfa:	4f2f      	ldr	r7, [pc, #188]	; (8000eb8 <alisa_slashController+0x100>)
 8000dfc:	8870      	ldrh	r0, [r6, #2]
 8000dfe:	883b      	ldrh	r3, [r7, #0]
 8000e00:	05c2      	lsls	r2, r0, #23
 8000e02:	2502      	movs	r5, #2
 8000e04:	0ed2      	lsrs	r2, r2, #27
 8000e06:	079b      	lsls	r3, r3, #30
 8000e08:	d41b      	bmi.n	8000e42 <alisa_slashController+0x8a>
 8000e0a:	883b      	ldrh	r3, [r7, #0]
 8000e0c:	439d      	bics	r5, r3
 8000e0e:	d00b      	beq.n	8000e28 <alisa_slashController+0x70>
 8000e10:	231d      	movs	r3, #29
 8000e12:	4293      	cmp	r3, r2
 8000e14:	4149      	adcs	r1, r1
 8000e16:	1853      	adds	r3, r2, r1
 8000e18:	211f      	movs	r1, #31
 8000e1a:	000a      	movs	r2, r1
 8000e1c:	401a      	ands	r2, r3
 8000e1e:	4b27      	ldr	r3, [pc, #156]	; (8000ebc <alisa_slashController+0x104>)
 8000e20:	0111      	lsls	r1, r2, #4
 8000e22:	4018      	ands	r0, r3
 8000e24:	4308      	orrs	r0, r1
 8000e26:	8070      	strh	r0, [r6, #2]
 8000e28:	2a07      	cmp	r2, #7
 8000e2a:	d9d9      	bls.n	8000de0 <alisa_slashController+0x28>
 8000e2c:	2336      	movs	r3, #54	; 0x36
 8000e2e:	5ce3      	ldrb	r3, [r4, r3]
 8000e30:	3b02      	subs	r3, #2
 8000e32:	061b      	lsls	r3, r3, #24
 8000e34:	0e1b      	lsrs	r3, r3, #24
 8000e36:	2b01      	cmp	r3, #1
 8000e38:	d910      	bls.n	8000e5c <alisa_slashController+0xa4>
 8000e3a:	2336      	movs	r3, #54	; 0x36
 8000e3c:	2203      	movs	r2, #3
 8000e3e:	54e2      	strb	r2, [r4, r3]
 8000e40:	e00c      	b.n	8000e5c <alisa_slashController+0xa4>
 8000e42:	2136      	movs	r1, #54	; 0x36
 8000e44:	4b1d      	ldr	r3, [pc, #116]	; (8000ebc <alisa_slashController+0x104>)
 8000e46:	4003      	ands	r3, r0
 8000e48:	8073      	strh	r3, [r6, #2]
 8000e4a:	5c63      	ldrb	r3, [r4, r1]
 8000e4c:	3b02      	subs	r3, #2
 8000e4e:	061b      	lsls	r3, r3, #24
 8000e50:	0e1b      	lsrs	r3, r3, #24
 8000e52:	2b01      	cmp	r3, #1
 8000e54:	d902      	bls.n	8000e5c <alisa_slashController+0xa4>
 8000e56:	2a07      	cmp	r2, #7
 8000e58:	d8ef      	bhi.n	8000e3a <alisa_slashController+0x82>
 8000e5a:	5465      	strb	r5, [r4, r1]
 8000e5c:	466b      	mov	r3, sp
 8000e5e:	0020      	movs	r0, r4
 8000e60:	3306      	adds	r3, #6
 8000e62:	aa03      	add	r2, sp, #12
 8000e64:	a902      	add	r1, sp, #8
 8000e66:	f000 fc11 	bl	800168c <commonGetNextFrame>
 8000e6a:	466b      	mov	r3, sp
 8000e6c:	799b      	ldrb	r3, [r3, #6]
 8000e6e:	2b00      	cmp	r3, #0
 8000e70:	d0bf      	beq.n	8000df2 <alisa_slashController+0x3a>
 8000e72:	4b13      	ldr	r3, [pc, #76]	; (8000ec0 <alisa_slashController+0x108>)
 8000e74:	2200      	movs	r2, #0
 8000e76:	2100      	movs	r1, #0
 8000e78:	0020      	movs	r0, r4
 8000e7a:	6023      	str	r3, [r4, #0]
 8000e7c:	f7ff fece 	bl	8000c1c <alisa_controller>
 8000e80:	e7b7      	b.n	8000df2 <alisa_slashController+0x3a>
 8000e82:	3307      	adds	r3, #7
 8000e84:	7019      	strb	r1, [r3, #0]
 8000e86:	aa03      	add	r2, sp, #12
 8000e88:	a902      	add	r1, sp, #8
 8000e8a:	f000 fbff 	bl	800168c <commonGetNextFrame>
 8000e8e:	9b02      	ldr	r3, [sp, #8]
 8000e90:	2b3c      	cmp	r3, #60	; 0x3c
 8000e92:	dc09      	bgt.n	8000ea8 <alisa_slashController+0xf0>
 8000e94:	2336      	movs	r3, #54	; 0x36
 8000e96:	2207      	movs	r2, #7
 8000e98:	54e2      	strb	r2, [r4, r3]
 8000e9a:	3b0a      	subs	r3, #10
 8000e9c:	54e5      	strb	r5, [r4, r3]
 8000e9e:	4b09      	ldr	r3, [pc, #36]	; (8000ec4 <alisa_slashController+0x10c>)
 8000ea0:	6023      	str	r3, [r4, #0]
 8000ea2:	4b03      	ldr	r3, [pc, #12]	; (8000eb0 <alisa_slashController+0xf8>)
 8000ea4:	60e3      	str	r3, [r4, #12]
 8000ea6:	e7a4      	b.n	8000df2 <alisa_slashController+0x3a>
 8000ea8:	7873      	ldrb	r3, [r6, #1]
 8000eaa:	43bb      	bics	r3, r7
 8000eac:	7073      	strb	r3, [r6, #1]
 8000eae:	e7f6      	b.n	8000e9e <alisa_slashController+0xe6>
 8000eb0:	08000409 	.word	0x08000409
 8000eb4:	08000db9 	.word	0x08000db9
 8000eb8:	04000130 	.word	0x04000130
 8000ebc:	fffffe0f 	.word	0xfffffe0f
 8000ec0:	08000c1d 	.word	0x08000c1d
 8000ec4:	08000b4d 	.word	0x08000b4d

08000ec8 <controlButtonCheck>:
 8000ec8:	b530      	push	{r4, r5, lr}
 8000eca:	4930      	ldr	r1, [pc, #192]	; (8000f8c <controlButtonCheck+0xc4>)
 8000ecc:	8809      	ldrh	r1, [r1, #0]
 8000ece:	0002      	movs	r2, r0
 8000ed0:	6d03      	ldr	r3, [r0, #80]	; 0x50
 8000ed2:	0789      	lsls	r1, r1, #30
 8000ed4:	d503      	bpl.n	8000ede <controlButtonCheck+0x16>
 8000ed6:	8859      	ldrh	r1, [r3, #2]
 8000ed8:	482d      	ldr	r0, [pc, #180]	; (8000f90 <controlButtonCheck+0xc8>)
 8000eda:	4001      	ands	r1, r0
 8000edc:	8059      	strh	r1, [r3, #2]
 8000ede:	492b      	ldr	r1, [pc, #172]	; (8000f8c <controlButtonCheck+0xc4>)
 8000ee0:	8809      	ldrh	r1, [r1, #0]
 8000ee2:	07c9      	lsls	r1, r1, #31
 8000ee4:	d503      	bpl.n	8000eee <controlButtonCheck+0x26>
 8000ee6:	203e      	movs	r0, #62	; 0x3e
 8000ee8:	78d9      	ldrb	r1, [r3, #3]
 8000eea:	4381      	bics	r1, r0
 8000eec:	70d9      	strb	r1, [r3, #3]
 8000eee:	4927      	ldr	r1, [pc, #156]	; (8000f8c <controlButtonCheck+0xc4>)
 8000ef0:	8809      	ldrh	r1, [r1, #0]
 8000ef2:	05c9      	lsls	r1, r1, #23
 8000ef4:	d503      	bpl.n	8000efe <controlButtonCheck+0x36>
 8000ef6:	2040      	movs	r0, #64	; 0x40
 8000ef8:	78d9      	ldrb	r1, [r3, #3]
 8000efa:	4301      	orrs	r1, r0
 8000efc:	70d9      	strb	r1, [r3, #3]
 8000efe:	4923      	ldr	r1, [pc, #140]	; (8000f8c <controlButtonCheck+0xc4>)
 8000f00:	8809      	ldrh	r1, [r1, #0]
 8000f02:	0589      	lsls	r1, r1, #22
 8000f04:	d504      	bpl.n	8000f10 <controlButtonCheck+0x48>
 8000f06:	2180      	movs	r1, #128	; 0x80
 8000f08:	78d8      	ldrb	r0, [r3, #3]
 8000f0a:	4249      	negs	r1, r1
 8000f0c:	4301      	orrs	r1, r0
 8000f0e:	70d9      	strb	r1, [r3, #3]
 8000f10:	481e      	ldr	r0, [pc, #120]	; (8000f8c <controlButtonCheck+0xc4>)
 8000f12:	8801      	ldrh	r1, [r0, #0]
 8000f14:	0789      	lsls	r1, r1, #30
 8000f16:	d51f      	bpl.n	8000f58 <controlButtonCheck+0x90>
 8000f18:	8801      	ldrh	r1, [r0, #0]
 8000f1a:	2000      	movs	r0, #0
 8000f1c:	07c9      	lsls	r1, r1, #31
 8000f1e:	d502      	bpl.n	8000f26 <controlButtonCheck+0x5e>
 8000f20:	bc30      	pop	{r4, r5}
 8000f22:	bc02      	pop	{r1}
 8000f24:	4708      	bx	r1
 8000f26:	243e      	movs	r4, #62	; 0x3e
 8000f28:	78d9      	ldrb	r1, [r3, #3]
 8000f2a:	400c      	ands	r4, r1
 8000f2c:	4260      	negs	r0, r4
 8000f2e:	4160      	adcs	r0, r4
 8000f30:	2c00      	cmp	r4, #0
 8000f32:	d102      	bne.n	8000f3a <controlButtonCheck+0x72>
 8000f34:	6959      	ldr	r1, [r3, #20]
 8000f36:	6011      	str	r1, [r2, #0]
 8000f38:	78d9      	ldrb	r1, [r3, #3]
 8000f3a:	2400      	movs	r4, #0
 8000f3c:	251d      	movs	r5, #29
 8000f3e:	068a      	lsls	r2, r1, #26
 8000f40:	0ed2      	lsrs	r2, r2, #27
 8000f42:	4295      	cmp	r5, r2
 8000f44:	4164      	adcs	r4, r4
 8000f46:	1912      	adds	r2, r2, r4
 8000f48:	241f      	movs	r4, #31
 8000f4a:	4022      	ands	r2, r4
 8000f4c:	341f      	adds	r4, #31
 8000f4e:	0052      	lsls	r2, r2, #1
 8000f50:	43a1      	bics	r1, r4
 8000f52:	4311      	orrs	r1, r2
 8000f54:	70d9      	strb	r1, [r3, #3]
 8000f56:	e7e3      	b.n	8000f20 <controlButtonCheck+0x58>
 8000f58:	24f8      	movs	r4, #248	; 0xf8
 8000f5a:	8859      	ldrh	r1, [r3, #2]
 8000f5c:	0064      	lsls	r4, r4, #1
 8000f5e:	400c      	ands	r4, r1
 8000f60:	4260      	negs	r0, r4
 8000f62:	4160      	adcs	r0, r4
 8000f64:	2c00      	cmp	r4, #0
 8000f66:	d102      	bne.n	8000f6e <controlButtonCheck+0xa6>
 8000f68:	6919      	ldr	r1, [r3, #16]
 8000f6a:	6011      	str	r1, [r2, #0]
 8000f6c:	8859      	ldrh	r1, [r3, #2]
 8000f6e:	2400      	movs	r4, #0
 8000f70:	251d      	movs	r5, #29
 8000f72:	05ca      	lsls	r2, r1, #23
 8000f74:	0ed2      	lsrs	r2, r2, #27
 8000f76:	4295      	cmp	r5, r2
 8000f78:	4164      	adcs	r4, r4
 8000f7a:	1912      	adds	r2, r2, r4
 8000f7c:	241f      	movs	r4, #31
 8000f7e:	4022      	ands	r2, r4
 8000f80:	4c03      	ldr	r4, [pc, #12]	; (8000f90 <controlButtonCheck+0xc8>)
 8000f82:	0112      	lsls	r2, r2, #4
 8000f84:	4021      	ands	r1, r4
 8000f86:	4311      	orrs	r1, r2
 8000f88:	8059      	strh	r1, [r3, #2]
 8000f8a:	e7c9      	b.n	8000f20 <controlButtonCheck+0x58>
 8000f8c:	04000130 	.word	0x04000130
 8000f90:	fffffe0f 	.word	0xfffffe0f

08000f94 <controlButtonHold>:
 8000f94:	b5f0      	push	{r4, r5, r6, r7, lr}
 8000f96:	6905      	ldr	r5, [r0, #16]
 8000f98:	0004      	movs	r4, r0
 8000f9a:	2000      	movs	r0, #0
 8000f9c:	428d      	cmp	r5, r1
 8000f9e:	d002      	beq.n	8000fa6 <controlButtonHold+0x12>
 8000fa0:	bcf0      	pop	{r4, r5, r6, r7}
 8000fa2:	bc02      	pop	{r1}
 8000fa4:	4708      	bx	r1
 8000fa6:	4f14      	ldr	r7, [pc, #80]	; (8000ff8 <controlButtonHold+0x64>)
 8000fa8:	8865      	ldrh	r5, [r4, #2]
 8000faa:	883e      	ldrh	r6, [r7, #0]
 8000fac:	05e9      	lsls	r1, r5, #23
 8000fae:	0ec9      	lsrs	r1, r1, #27
 8000fb0:	07b6      	lsls	r6, r6, #30
 8000fb2:	d41a      	bmi.n	8000fea <controlButtonHold+0x56>
 8000fb4:	2602      	movs	r6, #2
 8000fb6:	883f      	ldrh	r7, [r7, #0]
 8000fb8:	43be      	bics	r6, r7
 8000fba:	d00b      	beq.n	8000fd4 <controlButtonHold+0x40>
 8000fbc:	261d      	movs	r6, #29
 8000fbe:	428e      	cmp	r6, r1
 8000fc0:	4140      	adcs	r0, r0
 8000fc2:	3602      	adds	r6, #2
 8000fc4:	1808      	adds	r0, r1, r0
 8000fc6:	0031      	movs	r1, r6
 8000fc8:	4001      	ands	r1, r0
 8000fca:	480c      	ldr	r0, [pc, #48]	; (8000ffc <controlButtonHold+0x68>)
 8000fcc:	010e      	lsls	r6, r1, #4
 8000fce:	4005      	ands	r5, r0
 8000fd0:	4335      	orrs	r5, r6
 8000fd2:	8065      	strh	r5, [r4, #2]
 8000fd4:	2000      	movs	r0, #0
 8000fd6:	6011      	str	r1, [r2, #0]
 8000fd8:	8862      	ldrh	r2, [r4, #2]
 8000fda:	05d2      	lsls	r2, r2, #23
 8000fdc:	0ed2      	lsrs	r2, r2, #27
 8000fde:	0fd9      	lsrs	r1, r3, #31
 8000fe0:	429a      	cmp	r2, r3
 8000fe2:	4148      	adcs	r0, r1
 8000fe4:	0600      	lsls	r0, r0, #24
 8000fe6:	0e00      	lsrs	r0, r0, #24
 8000fe8:	e7da      	b.n	8000fa0 <controlButtonHold+0xc>
 8000fea:	6011      	str	r1, [r2, #0]
 8000fec:	4a03      	ldr	r2, [pc, #12]	; (8000ffc <controlButtonHold+0x68>)
 8000fee:	8863      	ldrh	r3, [r4, #2]
 8000ff0:	4013      	ands	r3, r2
 8000ff2:	8063      	strh	r3, [r4, #2]
 8000ff4:	3001      	adds	r0, #1
 8000ff6:	e7d3      	b.n	8000fa0 <controlButtonHold+0xc>
 8000ff8:	04000130 	.word	0x04000130
 8000ffc:	fffffe0f 	.word	0xfffffe0f

08001000 <alisa_setCharacter>:
 8001000:	4b01      	ldr	r3, [pc, #4]	; (8001008 <alisa_setCharacter+0x8>)
 8001002:	6003      	str	r3, [r0, #0]
 8001004:	4770      	bx	lr
 8001006:	46c0      	nop			; (mov r8, r8)
 8001008:	08000c1d 	.word	0x08000c1d

0800100c <alisa_prepareDashController>:
 800100c:	b5f0      	push	{r4, r5, r6, r7, lr}
 800100e:	260f      	movs	r6, #15
 8001010:	0031      	movs	r1, r6
 8001012:	4b36      	ldr	r3, [pc, #216]	; (80010ec <alisa_prepareDashController+0xe0>)
 8001014:	881a      	ldrh	r2, [r3, #0]
 8001016:	4b36      	ldr	r3, [pc, #216]	; (80010f0 <alisa_prepareDashController+0xe4>)
 8001018:	0912      	lsrs	r2, r2, #4
 800101a:	4391      	bics	r1, r2
 800101c:	b085      	sub	sp, #20
 800101e:	2200      	movs	r2, #0
 8001020:	5659      	ldrsb	r1, [r3, r1]
 8001022:	466b      	mov	r3, sp
 8001024:	6d07      	ldr	r7, [r0, #80]	; 0x50
 8001026:	787d      	ldrb	r5, [r7, #1]
 8001028:	0004      	movs	r4, r0
 800102a:	719a      	strb	r2, [r3, #6]
 800102c:	4035      	ands	r5, r6
 800102e:	2d01      	cmp	r5, #1
 8001030:	d045      	beq.n	80010be <alisa_prepareDashController+0xb2>
 8001032:	232c      	movs	r3, #44	; 0x2c
 8001034:	54c2      	strb	r2, [r0, r3]
 8001036:	4b2f      	ldr	r3, [pc, #188]	; (80010f4 <alisa_prepareDashController+0xe8>)
 8001038:	2204      	movs	r2, #4
 800103a:	60c3      	str	r3, [r0, #12]
 800103c:	2336      	movs	r3, #54	; 0x36
 800103e:	54c2      	strb	r2, [r0, r3]
 8001040:	1c4b      	adds	r3, r1, #1
 8001042:	d01d      	beq.n	8001080 <alisa_prepareDashController+0x74>
 8001044:	2337      	movs	r3, #55	; 0x37
 8001046:	54c1      	strb	r1, [r0, r3]
 8001048:	3b02      	subs	r3, #2
 800104a:	5cc3      	ldrb	r3, [r0, r3]
 800104c:	321e      	adds	r2, #30
 800104e:	5ca5      	ldrb	r5, [r4, r2]
 8001050:	061b      	lsls	r3, r3, #24
 8001052:	171b      	asrs	r3, r3, #28
 8001054:	3a1f      	subs	r2, #31
 8001056:	42aa      	cmp	r2, r5
 8001058:	4192      	sbcs	r2, r2
 800105a:	0618      	lsls	r0, r3, #24
 800105c:	1a5b      	subs	r3, r3, r1
 800105e:	1e5d      	subs	r5, r3, #1
 8001060:	41ab      	sbcs	r3, r5
 8001062:	2507      	movs	r5, #7
 8001064:	4252      	negs	r2, r2
 8001066:	0e00      	lsrs	r0, r0, #24
 8001068:	4013      	ands	r3, r2
 800106a:	1e42      	subs	r2, r0, #1
 800106c:	402a      	ands	r2, r5
 800106e:	1a52      	subs	r2, r2, r1
 8001070:	1e56      	subs	r6, r2, #1
 8001072:	41b2      	sbcs	r2, r6
 8001074:	421a      	tst	r2, r3
 8001076:	d003      	beq.n	8001080 <alisa_prepareDashController+0x74>
 8001078:	3001      	adds	r0, #1
 800107a:	4005      	ands	r5, r0
 800107c:	428d      	cmp	r5, r1
 800107e:	d116      	bne.n	80010ae <alisa_prepareDashController+0xa2>
 8001080:	466b      	mov	r3, sp
 8001082:	0020      	movs	r0, r4
 8001084:	3306      	adds	r3, #6
 8001086:	aa03      	add	r2, sp, #12
 8001088:	a902      	add	r1, sp, #8
 800108a:	f000 faff 	bl	800168c <commonGetNextFrame>
 800108e:	466b      	mov	r3, sp
 8001090:	799b      	ldrb	r3, [r3, #6]
 8001092:	2b00      	cmp	r3, #0
 8001094:	d103      	bne.n	800109e <alisa_prepareDashController+0x92>
 8001096:	b005      	add	sp, #20
 8001098:	bcf0      	pop	{r4, r5, r6, r7}
 800109a:	bc01      	pop	{r0}
 800109c:	4700      	bx	r0
 800109e:	4b16      	ldr	r3, [pc, #88]	; (80010f8 <alisa_prepareDashController+0xec>)
 80010a0:	2200      	movs	r2, #0
 80010a2:	2100      	movs	r1, #0
 80010a4:	0020      	movs	r0, r4
 80010a6:	6023      	str	r3, [r4, #0]
 80010a8:	f7ff fd76 	bl	8000b98 <alisa_dashForwardController>
 80010ac:	e7f3      	b.n	8001096 <alisa_prepareDashController+0x8a>
 80010ae:	4b13      	ldr	r3, [pc, #76]	; (80010fc <alisa_prepareDashController+0xf0>)
 80010b0:	2200      	movs	r2, #0
 80010b2:	2100      	movs	r1, #0
 80010b4:	0020      	movs	r0, r4
 80010b6:	6023      	str	r3, [r4, #0]
 80010b8:	f7ff fe26 	bl	8000d08 <alisa_dashBackwardController>
 80010bc:	e7eb      	b.n	8001096 <alisa_prepareDashController+0x8a>
 80010be:	3307      	adds	r3, #7
 80010c0:	701a      	strb	r2, [r3, #0]
 80010c2:	a902      	add	r1, sp, #8
 80010c4:	aa03      	add	r2, sp, #12
 80010c6:	f000 fae1 	bl	800168c <commonGetNextFrame>
 80010ca:	9b02      	ldr	r3, [sp, #8]
 80010cc:	2b3c      	cmp	r3, #60	; 0x3c
 80010ce:	dc09      	bgt.n	80010e4 <alisa_prepareDashController+0xd8>
 80010d0:	2336      	movs	r3, #54	; 0x36
 80010d2:	2207      	movs	r2, #7
 80010d4:	54e2      	strb	r2, [r4, r3]
 80010d6:	3b0a      	subs	r3, #10
 80010d8:	54e5      	strb	r5, [r4, r3]
 80010da:	4b09      	ldr	r3, [pc, #36]	; (8001100 <alisa_prepareDashController+0xf4>)
 80010dc:	6023      	str	r3, [r4, #0]
 80010de:	4b09      	ldr	r3, [pc, #36]	; (8001104 <alisa_prepareDashController+0xf8>)
 80010e0:	60e3      	str	r3, [r4, #12]
 80010e2:	e7d8      	b.n	8001096 <alisa_prepareDashController+0x8a>
 80010e4:	787b      	ldrb	r3, [r7, #1]
 80010e6:	43b3      	bics	r3, r6
 80010e8:	707b      	strb	r3, [r7, #1]
 80010ea:	e7f6      	b.n	80010da <alisa_prepareDashController+0xce>
 80010ec:	04000130 	.word	0x04000130
 80010f0:	0800a6d8 	.word	0x0800a6d8
 80010f4:	08000b11 	.word	0x08000b11
 80010f8:	08000b99 	.word	0x08000b99
 80010fc:	08000d09 	.word	0x08000d09
 8001100:	08000b4d 	.word	0x08000b4d
 8001104:	08000409 	.word	0x08000409

08001108 <commonDummy>:
 8001108:	2000      	movs	r0, #0
 800110a:	4770      	bx	lr

0800110c <common_noMovement>:
 800110c:	4770      	bx	lr
 800110e:	46c0      	nop			; (mov r8, r8)

08001110 <commonDoCharacterEvent>:
 8001110:	b5f0      	push	{r4, r5, r6, r7, lr}
 8001112:	2502      	movs	r5, #2
 8001114:	6d04      	ldr	r4, [r0, #80]	; 0x50
 8001116:	78e1      	ldrb	r1, [r4, #3]
 8001118:	6923      	ldr	r3, [r4, #16]
 800111a:	0889      	lsrs	r1, r1, #2
 800111c:	0089      	lsls	r1, r1, #2
 800111e:	185b      	adds	r3, r3, r1
 8001120:	78de      	ldrb	r6, [r3, #3]
 8001122:	575d      	ldrsb	r5, [r3, r5]
 8001124:	885b      	ldrh	r3, [r3, #2]
 8001126:	0219      	lsls	r1, r3, #8
 8001128:	0a1b      	lsrs	r3, r3, #8
 800112a:	430b      	orrs	r3, r1
 800112c:	86c3      	strh	r3, [r0, #54]	; 0x36
 800112e:	2335      	movs	r3, #53	; 0x35
 8001130:	5cc3      	ldrb	r3, [r0, r3]
 8001132:	071b      	lsls	r3, r3, #28
 8001134:	171b      	asrs	r3, r3, #28
 8001136:	429d      	cmp	r5, r3
 8001138:	d103      	bne.n	8001142 <commonDoCharacterEvent+0x32>
 800113a:	2334      	movs	r3, #52	; 0x34
 800113c:	5cc3      	ldrb	r3, [r0, r3]
 800113e:	42b3      	cmp	r3, r6
 8001140:	d002      	beq.n	8001148 <commonDoCharacterEvent+0x38>
 8001142:	bcf0      	pop	{r4, r5, r6, r7}
 8001144:	bc01      	pop	{r0}
 8001146:	4700      	bx	r0
 8001148:	2323      	movs	r3, #35	; 0x23
 800114a:	2122      	movs	r1, #34	; 0x22
 800114c:	69c7      	ldr	r7, [r0, #28]
 800114e:	5cc3      	ldrb	r3, [r0, r3]
 8001150:	683d      	ldr	r5, [r7, #0]
 8001152:	065b      	lsls	r3, r3, #25
 8001154:	0e5e      	lsrs	r6, r3, #25
 8001156:	0d9b      	lsrs	r3, r3, #22
 8001158:	5c41      	ldrb	r1, [r0, r1]
 800115a:	18eb      	adds	r3, r5, r3
 800115c:	889b      	ldrh	r3, [r3, #4]
 800115e:	3101      	adds	r1, #1
 8001160:	4299      	cmp	r1, r3
 8001162:	dbee      	blt.n	8001142 <commonDoCharacterEvent+0x32>
 8001164:	687b      	ldr	r3, [r7, #4]
 8001166:	3601      	adds	r6, #1
 8001168:	42b3      	cmp	r3, r6
 800116a:	dcea      	bgt.n	8001142 <commonDoCharacterEvent+0x32>
 800116c:	2100      	movs	r1, #0
 800116e:	68a3      	ldr	r3, [r4, #8]
 8001170:	6003      	str	r3, [r0, #0]
 8001172:	7893      	ldrb	r3, [r2, #2]
 8001174:	3b01      	subs	r3, #1
 8001176:	061b      	lsls	r3, r3, #24
 8001178:	0e1b      	lsrs	r3, r3, #24
 800117a:	7093      	strb	r3, [r2, #2]
 800117c:	6892      	ldr	r2, [r2, #8]
 800117e:	009b      	lsls	r3, r3, #2
 8001180:	5099      	str	r1, [r3, r2]
 8001182:	e7de      	b.n	8001142 <commonDoCharacterEvent+0x32>

08001184 <commonRemoveCharacter>:
 8001184:	2331      	movs	r3, #49	; 0x31
 8001186:	22ff      	movs	r2, #255	; 0xff
 8001188:	54c2      	strb	r2, [r0, r3]
 800118a:	4b0d      	ldr	r3, [pc, #52]	; (80011c0 <commonRemoveCharacter+0x3c>)
 800118c:	2200      	movs	r2, #0
 800118e:	63c3      	str	r3, [r0, #60]	; 0x3c
 8001190:	2340      	movs	r3, #64	; 0x40
 8001192:	2135      	movs	r1, #53	; 0x35
 8001194:	b510      	push	{r4, lr}
 8001196:	240f      	movs	r4, #15
 8001198:	52c2      	strh	r2, [r0, r3]
 800119a:	5c43      	ldrb	r3, [r0, r1]
 800119c:	43a3      	bics	r3, r4
 800119e:	5443      	strb	r3, [r0, r1]
 80011a0:	2100      	movs	r1, #0
 80011a2:	2337      	movs	r3, #55	; 0x37
 80011a4:	54c1      	strb	r1, [r0, r3]
 80011a6:	4b07      	ldr	r3, [pc, #28]	; (80011c4 <commonRemoveCharacter+0x40>)
 80011a8:	8402      	strh	r2, [r0, #32]
 80011aa:	6003      	str	r3, [r0, #0]
 80011ac:	6043      	str	r3, [r0, #4]
 80011ae:	6083      	str	r3, [r0, #8]
 80011b0:	60c3      	str	r3, [r0, #12]
 80011b2:	6103      	str	r3, [r0, #16]
 80011b4:	6143      	str	r3, [r0, #20]
 80011b6:	6183      	str	r3, [r0, #24]
 80011b8:	bc10      	pop	{r4}
 80011ba:	bc01      	pop	{r0}
 80011bc:	4700      	bx	r0
 80011be:	46c0      	nop			; (mov r8, r8)
 80011c0:	ffff0000 	.word	0xffff0000
 80011c4:	08001109 	.word	0x08001109

080011c8 <commonCharacterSetPosition>:
 80011c8:	8781      	strh	r1, [r0, #60]	; 0x3c
 80011ca:	210f      	movs	r1, #15
 80011cc:	87c2      	strh	r2, [r0, #62]	; 0x3e
 80011ce:	2240      	movs	r2, #64	; 0x40
 80011d0:	b530      	push	{r4, r5, lr}
 80011d2:	000d      	movs	r5, r1
 80011d4:	ac03      	add	r4, sp, #12
 80011d6:	5283      	strh	r3, [r0, r2]
 80011d8:	7824      	ldrb	r4, [r4, #0]
 80011da:	3a0b      	subs	r2, #11
 80011dc:	5c83      	ldrb	r3, [r0, r2]
 80011de:	0624      	lsls	r4, r4, #24
 80011e0:	1624      	asrs	r4, r4, #24
 80011e2:	4025      	ands	r5, r4
 80011e4:	438b      	bics	r3, r1
 80011e6:	432b      	orrs	r3, r5
 80011e8:	5483      	strb	r3, [r0, r2]
 80011ea:	2337      	movs	r3, #55	; 0x37
 80011ec:	54c4      	strb	r4, [r0, r3]
 80011ee:	bc30      	pop	{r4, r5}
 80011f0:	bc01      	pop	{r0}
 80011f2:	4700      	bx	r0

080011f4 <commonCharacterInit>:
 80011f4:	b570      	push	{r4, r5, r6, lr}
 80011f6:	250f      	movs	r5, #15
 80011f8:	8c44      	ldrh	r4, [r0, #34]	; 0x22
 80011fa:	0be4      	lsrs	r4, r4, #15
 80011fc:	03e4      	lsls	r4, r4, #15
 80011fe:	8444      	strh	r4, [r0, #34]	; 0x22
 8001200:	2434      	movs	r4, #52	; 0x34
 8001202:	002e      	movs	r6, r5
 8001204:	5501      	strb	r1, [r0, r4]
 8001206:	3401      	adds	r4, #1
 8001208:	5d01      	ldrb	r1, [r0, r4]
 800120a:	401e      	ands	r6, r3
 800120c:	43a9      	bics	r1, r5
 800120e:	4331      	orrs	r1, r6
 8001210:	5501      	strb	r1, [r0, r4]
 8001212:	2136      	movs	r1, #54	; 0x36
 8001214:	5442      	strb	r2, [r0, r1]
 8001216:	2237      	movs	r2, #55	; 0x37
 8001218:	5483      	strb	r3, [r0, r2]
 800121a:	bc70      	pop	{r4, r5, r6}
 800121c:	bc01      	pop	{r0}
 800121e:	4700      	bx	r0

08001220 <commonCharacterMapEdgeCheck>:
 8001220:	b5f0      	push	{r4, r5, r6, r7, lr}
 8001222:	46de      	mov	lr, fp
 8001224:	4645      	mov	r5, r8
 8001226:	4657      	mov	r7, sl
 8001228:	464e      	mov	r6, r9
 800122a:	b5e0      	push	{r5, r6, r7, lr}
 800122c:	000d      	movs	r5, r1
 800122e:	b087      	sub	sp, #28
 8001230:	ae02      	add	r6, sp, #8
 8001232:	68c3      	ldr	r3, [r0, #12]
 8001234:	0032      	movs	r2, r6
 8001236:	a901      	add	r1, sp, #4
 8001238:	0004      	movs	r4, r0
 800123a:	f001 fd15 	bl	8002c68 <commonIsFoundPosition+0x18>
 800123e:	2300      	movs	r3, #0
 8001240:	5ef2      	ldrsh	r2, [r6, r3]
 8001242:	2304      	movs	r3, #4
 8001244:	5ef0      	ldrsh	r0, [r6, r3]
 8001246:	882b      	ldrh	r3, [r5, #0]
 8001248:	469b      	mov	fp, r3
 800124a:	2302      	movs	r3, #2
 800124c:	5ef1      	ldrsh	r1, [r6, r3]
 800124e:	2306      	movs	r3, #6
 8001250:	5ef6      	ldrsh	r6, [r6, r3]
 8001252:	886b      	ldrh	r3, [r5, #2]
 8001254:	469c      	mov	ip, r3
 8001256:	2300      	movs	r3, #0
 8001258:	4692      	mov	sl, r2
 800125a:	4698      	mov	r8, r3
 800125c:	2a00      	cmp	r2, #0
 800125e:	da00      	bge.n	8001262 <commonCharacterMapEdgeCheck+0x42>
 8001260:	4690      	mov	r8, r2
 8001262:	4647      	mov	r7, r8
 8001264:	8fa3      	ldrh	r3, [r4, #60]	; 0x3c
 8001266:	1bdb      	subs	r3, r3, r7
 8001268:	041b      	lsls	r3, r3, #16
 800126a:	0c1b      	lsrs	r3, r3, #16
 800126c:	4698      	mov	r8, r3
 800126e:	87a3      	strh	r3, [r4, #60]	; 0x3c
 8001270:	2300      	movs	r3, #0
 8001272:	4699      	mov	r9, r3
 8001274:	2900      	cmp	r1, #0
 8001276:	da00      	bge.n	800127a <commonCharacterMapEdgeCheck+0x5a>
 8001278:	4689      	mov	r9, r1
 800127a:	464f      	mov	r7, r9
 800127c:	8fe3      	ldrh	r3, [r4, #62]	; 0x3e
 800127e:	1bdb      	subs	r3, r3, r7
 8001280:	2700      	movs	r7, #0
 8001282:	041b      	lsls	r3, r3, #16
 8001284:	0c1b      	lsrs	r3, r3, #16
 8001286:	46b9      	mov	r9, r7
 8001288:	87e3      	strh	r3, [r4, #62]	; 0x3e
 800128a:	4558      	cmp	r0, fp
 800128c:	dd02      	ble.n	8001294 <commonCharacterMapEdgeCheck+0x74>
 800128e:	882a      	ldrh	r2, [r5, #0]
 8001290:	1a82      	subs	r2, r0, r2
 8001292:	4691      	mov	r9, r2
 8001294:	4647      	mov	r7, r8
 8001296:	464a      	mov	r2, r9
 8001298:	1abf      	subs	r7, r7, r2
 800129a:	2200      	movs	r2, #0
 800129c:	87a7      	strh	r7, [r4, #60]	; 0x3c
 800129e:	4690      	mov	r8, r2
 80012a0:	4566      	cmp	r6, ip
 80012a2:	dd02      	ble.n	80012aa <commonCharacterMapEdgeCheck+0x8a>
 80012a4:	886d      	ldrh	r5, [r5, #2]
 80012a6:	1b72      	subs	r2, r6, r5
 80012a8:	4690      	mov	r8, r2
 80012aa:	4642      	mov	r2, r8
 80012ac:	1a9b      	subs	r3, r3, r2
 80012ae:	87e3      	strh	r3, [r4, #62]	; 0x3e
 80012b0:	6d25      	ldr	r5, [r4, #80]	; 0x50
 80012b2:	782b      	ldrb	r3, [r5, #0]
 80012b4:	4698      	mov	r8, r3
 80012b6:	2307      	movs	r3, #7
 80012b8:	4642      	mov	r2, r8
 80012ba:	4013      	ands	r3, r2
 80012bc:	2b01      	cmp	r3, #1
 80012be:	d008      	beq.n	80012d2 <commonCharacterMapEdgeCheck+0xb2>
 80012c0:	b007      	add	sp, #28
 80012c2:	bcf0      	pop	{r4, r5, r6, r7}
 80012c4:	46bb      	mov	fp, r7
 80012c6:	46b2      	mov	sl, r6
 80012c8:	46a9      	mov	r9, r5
 80012ca:	46a0      	mov	r8, r4
 80012cc:	bcf0      	pop	{r4, r5, r6, r7}
 80012ce:	bc01      	pop	{r0}
 80012d0:	4700      	bx	r0
 80012d2:	2201      	movs	r2, #1
 80012d4:	78eb      	ldrb	r3, [r5, #3]
 80012d6:	4690      	mov	r8, r2
 80012d8:	09db      	lsrs	r3, r3, #7
 80012da:	4566      	cmp	r6, ip
 80012dc:	dd2f      	ble.n	800133e <commonCharacterMapEdgeCheck+0x11e>
 80012de:	4642      	mov	r2, r8
 80012e0:	267f      	movs	r6, #127	; 0x7f
 80012e2:	4313      	orrs	r3, r2
 80012e4:	78ea      	ldrb	r2, [r5, #3]
 80012e6:	01db      	lsls	r3, r3, #7
 80012e8:	4016      	ands	r6, r2
 80012ea:	4333      	orrs	r3, r6
 80012ec:	70eb      	strb	r3, [r5, #3]
 80012ee:	6d25      	ldr	r5, [r4, #80]	; 0x50
 80012f0:	78eb      	ldrb	r3, [r5, #3]
 80012f2:	065e      	lsls	r6, r3, #25
 80012f4:	4331      	orrs	r1, r6
 80012f6:	2640      	movs	r6, #64	; 0x40
 80012f8:	4652      	mov	r2, sl
 80012fa:	0fc9      	lsrs	r1, r1, #31
 80012fc:	0189      	lsls	r1, r1, #6
 80012fe:	43b3      	bics	r3, r6
 8001300:	430b      	orrs	r3, r1
 8001302:	70eb      	strb	r3, [r5, #3]
 8001304:	6d21      	ldr	r1, [r4, #80]	; 0x50
 8001306:	78cb      	ldrb	r3, [r1, #3]
 8001308:	06dd      	lsls	r5, r3, #27
 800130a:	432a      	orrs	r2, r5
 800130c:	2510      	movs	r5, #16
 800130e:	0fd2      	lsrs	r2, r2, #31
 8001310:	0112      	lsls	r2, r2, #4
 8001312:	43ab      	bics	r3, r5
 8001314:	4313      	orrs	r3, r2
 8001316:	70cb      	strb	r3, [r1, #3]
 8001318:	6d21      	ldr	r1, [r4, #80]	; 0x50
 800131a:	78cb      	ldrb	r3, [r1, #3]
 800131c:	069b      	lsls	r3, r3, #26
 800131e:	2201      	movs	r2, #1
 8001320:	0fdb      	lsrs	r3, r3, #31
 8001322:	4558      	cmp	r0, fp
 8001324:	dd09      	ble.n	800133a <commonCharacterMapEdgeCheck+0x11a>
 8001326:	4313      	orrs	r3, r2
 8001328:	2201      	movs	r2, #1
 800132a:	2020      	movs	r0, #32
 800132c:	401a      	ands	r2, r3
 800132e:	78cb      	ldrb	r3, [r1, #3]
 8001330:	0152      	lsls	r2, r2, #5
 8001332:	4383      	bics	r3, r0
 8001334:	4313      	orrs	r3, r2
 8001336:	70cb      	strb	r3, [r1, #3]
 8001338:	e7c2      	b.n	80012c0 <commonCharacterMapEdgeCheck+0xa0>
 800133a:	2200      	movs	r2, #0
 800133c:	e7f3      	b.n	8001326 <commonCharacterMapEdgeCheck+0x106>
 800133e:	2200      	movs	r2, #0
 8001340:	4690      	mov	r8, r2
 8001342:	e7cc      	b.n	80012de <commonCharacterMapEdgeCheck+0xbe>

08001344 <commonSetToOamBuffer>:
 8001344:	b5f0      	push	{r4, r5, r6, r7, lr}
 8001346:	46de      	mov	lr, fp
 8001348:	4657      	mov	r7, sl
 800134a:	464e      	mov	r6, r9
 800134c:	4645      	mov	r5, r8
 800134e:	b5e0      	push	{r5, r6, r7, lr}
 8001350:	8884      	ldrh	r4, [r0, #4]
 8001352:	05a4      	lsls	r4, r4, #22
 8001354:	0da3      	lsrs	r3, r4, #22
 8001356:	b083      	sub	sp, #12
 8001358:	9301      	str	r3, [sp, #4]
 800135a:	79c2      	ldrb	r2, [r0, #7]
 800135c:	6803      	ldr	r3, [r0, #0]
 800135e:	0652      	lsls	r2, r2, #25
 8001360:	681b      	ldr	r3, [r3, #0]
 8001362:	0d92      	lsrs	r2, r2, #22
 8001364:	189b      	adds	r3, r3, r2
 8001366:	88da      	ldrh	r2, [r3, #6]
 8001368:	2a00      	cmp	r2, #0
 800136a:	d067      	beq.n	800143c <commonSetToOamBuffer+0xf8>
 800136c:	24ff      	movs	r4, #255	; 0xff
 800136e:	46a4      	mov	ip, r4
 8001370:	2400      	movs	r4, #0
 8001372:	2200      	movs	r2, #0
 8001374:	46a1      	mov	r9, r4
 8001376:	2705      	movs	r7, #5
 8001378:	681e      	ldr	r6, [r3, #0]
 800137a:	00d5      	lsls	r5, r2, #3
 800137c:	1976      	adds	r6, r6, r5
 800137e:	57f7      	ldrsb	r7, [r6, r7]
 8001380:	46ba      	mov	sl, r7
 8001382:	4667      	mov	r7, ip
 8001384:	2480      	movs	r4, #128	; 0x80
 8001386:	7a03      	ldrb	r3, [r0, #8]
 8001388:	79b6      	ldrb	r6, [r6, #6]
 800138a:	4453      	add	r3, sl
 800138c:	07b6      	lsls	r6, r6, #30
 800138e:	403b      	ands	r3, r7
 8001390:	0c36      	lsrs	r6, r6, #16
 8001392:	4333      	orrs	r3, r6
 8001394:	00e4      	lsls	r4, r4, #3
 8001396:	4323      	orrs	r3, r4
 8001398:	800b      	strh	r3, [r1, #0]
 800139a:	6806      	ldr	r6, [r0, #0]
 800139c:	79c3      	ldrb	r3, [r0, #7]
 800139e:	6836      	ldr	r6, [r6, #0]
 80013a0:	065b      	lsls	r3, r3, #25
 80013a2:	0d9b      	lsrs	r3, r3, #22
 80013a4:	599e      	ldr	r6, [r3, r6]
 80013a6:	1976      	adds	r6, r6, r5
 80013a8:	79b3      	ldrb	r3, [r6, #6]
 80013aa:	071f      	lsls	r7, r3, #28
 80013ac:	0fbf      	lsrs	r7, r7, #30
 80013ae:	03bf      	lsls	r7, r7, #14
 80013b0:	46b8      	mov	r8, r7
 80013b2:	06df      	lsls	r7, r3, #27
 80013b4:	0fff      	lsrs	r7, r7, #31
 80013b6:	033f      	lsls	r7, r7, #12
 80013b8:	46bb      	mov	fp, r7
 80013ba:	4647      	mov	r7, r8
 80013bc:	465c      	mov	r4, fp
 80013be:	4327      	orrs	r7, r4
 80013c0:	6884      	ldr	r4, [r0, #8]
 80013c2:	03e4      	lsls	r4, r4, #15
 80013c4:	0de4      	lsrs	r4, r4, #23
 80013c6:	46a0      	mov	r8, r4
 80013c8:	2404      	movs	r4, #4
 80013ca:	5734      	ldrsb	r4, [r6, r4]
 80013cc:	46a2      	mov	sl, r4
 80013ce:	44d0      	add	r8, sl
 80013d0:	4644      	mov	r4, r8
 80013d2:	069b      	lsls	r3, r3, #26
 80013d4:	0fdb      	lsrs	r3, r3, #31
 80013d6:	035b      	lsls	r3, r3, #13
 80013d8:	05e4      	lsls	r4, r4, #23
 80013da:	0de4      	lsrs	r4, r4, #23
 80013dc:	433b      	orrs	r3, r7
 80013de:	4323      	orrs	r3, r4
 80013e0:	804b      	strh	r3, [r1, #2]
 80013e2:	6803      	ldr	r3, [r0, #0]
 80013e4:	4698      	mov	r8, r3
 80013e6:	4644      	mov	r4, r8
 80013e8:	79c3      	ldrb	r3, [r0, #7]
 80013ea:	6824      	ldr	r4, [r4, #0]
 80013ec:	065b      	lsls	r3, r3, #25
 80013ee:	0d9b      	lsrs	r3, r3, #22
 80013f0:	591b      	ldr	r3, [r3, r4]
 80013f2:	9c01      	ldr	r4, [sp, #4]
 80013f4:	46a0      	mov	r8, r4
 80013f6:	195b      	adds	r3, r3, r5
 80013f8:	79dd      	ldrb	r5, [r3, #7]
 80013fa:	06eb      	lsls	r3, r5, #27
 80013fc:	0edb      	lsrs	r3, r3, #27
 80013fe:	4498      	add	r8, r3
 8001400:	096c      	lsrs	r4, r5, #5
 8001402:	4646      	mov	r6, r8
 8001404:	46a0      	mov	r8, r4
 8001406:	24c0      	movs	r4, #192	; 0xc0
 8001408:	7943      	ldrb	r3, [r0, #5]
 800140a:	065b      	lsls	r3, r3, #25
 800140c:	0f1b      	lsrs	r3, r3, #28
 800140e:	4443      	add	r3, r8
 8001410:	031b      	lsls	r3, r3, #12
 8001412:	0124      	lsls	r4, r4, #4
 8001414:	4333      	orrs	r3, r6
 8001416:	4323      	orrs	r3, r4
 8001418:	808b      	strh	r3, [r1, #4]
 800141a:	464b      	mov	r3, r9
 800141c:	80cb      	strh	r3, [r1, #6]
 800141e:	6803      	ldr	r3, [r0, #0]
 8001420:	4698      	mov	r8, r3
 8001422:	4644      	mov	r4, r8
 8001424:	6824      	ldr	r4, [r4, #0]
 8001426:	46a0      	mov	r8, r4
 8001428:	79c3      	ldrb	r3, [r0, #7]
 800142a:	065b      	lsls	r3, r3, #25
 800142c:	9601      	str	r6, [sp, #4]
 800142e:	0d9b      	lsrs	r3, r3, #22
 8001430:	4443      	add	r3, r8
 8001432:	88dc      	ldrh	r4, [r3, #6]
 8001434:	3201      	adds	r2, #1
 8001436:	3108      	adds	r1, #8
 8001438:	4294      	cmp	r4, r2
 800143a:	dc9c      	bgt.n	8001376 <commonSetToOamBuffer+0x32>
 800143c:	b003      	add	sp, #12
 800143e:	bcf0      	pop	{r4, r5, r6, r7}
 8001440:	46bb      	mov	fp, r7
 8001442:	46b2      	mov	sl, r6
 8001444:	46a9      	mov	r9, r5
 8001446:	46a0      	mov	r8, r4
 8001448:	bcf0      	pop	{r4, r5, r6, r7}
 800144a:	bc01      	pop	{r0}
 800144c:	4700      	bx	r0
 800144e:	46c0      	nop			; (mov r8, r8)

08001450 <commonSetToOamBufferAsObjWindow>:
 8001450:	b5f0      	push	{r4, r5, r6, r7, lr}
 8001452:	46de      	mov	lr, fp
 8001454:	4657      	mov	r7, sl
 8001456:	464e      	mov	r6, r9
 8001458:	4645      	mov	r5, r8
 800145a:	b5e0      	push	{r5, r6, r7, lr}
 800145c:	8884      	ldrh	r4, [r0, #4]
 800145e:	05a4      	lsls	r4, r4, #22
 8001460:	0da3      	lsrs	r3, r4, #22
 8001462:	b083      	sub	sp, #12
 8001464:	9301      	str	r3, [sp, #4]
 8001466:	79c2      	ldrb	r2, [r0, #7]
 8001468:	6803      	ldr	r3, [r0, #0]
 800146a:	0652      	lsls	r2, r2, #25
 800146c:	681b      	ldr	r3, [r3, #0]
 800146e:	0d92      	lsrs	r2, r2, #22
 8001470:	189b      	adds	r3, r3, r2
 8001472:	88da      	ldrh	r2, [r3, #6]
 8001474:	2a00      	cmp	r2, #0
 8001476:	d067      	beq.n	8001548 <commonSetToOamBufferAsObjWindow+0xf8>
 8001478:	24ff      	movs	r4, #255	; 0xff
 800147a:	46a4      	mov	ip, r4
 800147c:	2400      	movs	r4, #0
 800147e:	2200      	movs	r2, #0
 8001480:	46a1      	mov	r9, r4
 8001482:	2705      	movs	r7, #5
 8001484:	681e      	ldr	r6, [r3, #0]
 8001486:	00d5      	lsls	r5, r2, #3
 8001488:	1976      	adds	r6, r6, r5
 800148a:	57f7      	ldrsb	r7, [r6, r7]
 800148c:	46ba      	mov	sl, r7
 800148e:	4667      	mov	r7, ip
 8001490:	2480      	movs	r4, #128	; 0x80
 8001492:	7a03      	ldrb	r3, [r0, #8]
 8001494:	79b6      	ldrb	r6, [r6, #6]
 8001496:	4453      	add	r3, sl
 8001498:	07b6      	lsls	r6, r6, #30
 800149a:	403b      	ands	r3, r7
 800149c:	0c36      	lsrs	r6, r6, #16
 800149e:	4333      	orrs	r3, r6
 80014a0:	0124      	lsls	r4, r4, #4
 80014a2:	4323      	orrs	r3, r4
 80014a4:	800b      	strh	r3, [r1, #0]
 80014a6:	6806      	ldr	r6, [r0, #0]
 80014a8:	79c3      	ldrb	r3, [r0, #7]
 80014aa:	6836      	ldr	r6, [r6, #0]
 80014ac:	065b      	lsls	r3, r3, #25
 80014ae:	0d9b      	lsrs	r3, r3, #22
 80014b0:	599e      	ldr	r6, [r3, r6]
 80014b2:	1976      	adds	r6, r6, r5
 80014b4:	79b3      	ldrb	r3, [r6, #6]
 80014b6:	071f      	lsls	r7, r3, #28
 80014b8:	0fbf      	lsrs	r7, r7, #30
 80014ba:	03bf      	lsls	r7, r7, #14
 80014bc:	46b8      	mov	r8, r7
 80014be:	06df      	lsls	r7, r3, #27
 80014c0:	0fff      	lsrs	r7, r7, #31
 80014c2:	033f      	lsls	r7, r7, #12
 80014c4:	46bb      	mov	fp, r7
 80014c6:	4647      	mov	r7, r8
 80014c8:	465c      	mov	r4, fp
 80014ca:	4327      	orrs	r7, r4
 80014cc:	6884      	ldr	r4, [r0, #8]
 80014ce:	03e4      	lsls	r4, r4, #15
 80014d0:	0de4      	lsrs	r4, r4, #23
 80014d2:	46a0      	mov	r8, r4
 80014d4:	2404      	movs	r4, #4
 80014d6:	5734      	ldrsb	r4, [r6, r4]
 80014d8:	46a2      	mov	sl, r4
 80014da:	44d0      	add	r8, sl
 80014dc:	4644      	mov	r4, r8
 80014de:	069b      	lsls	r3, r3, #26
 80014e0:	0fdb      	lsrs	r3, r3, #31
 80014e2:	035b      	lsls	r3, r3, #13
 80014e4:	05e4      	lsls	r4, r4, #23
 80014e6:	0de4      	lsrs	r4, r4, #23
 80014e8:	433b      	orrs	r3, r7
 80014ea:	4323      	orrs	r3, r4
 80014ec:	804b      	strh	r3, [r1, #2]
 80014ee:	6803      	ldr	r3, [r0, #0]
 80014f0:	4698      	mov	r8, r3
 80014f2:	4644      	mov	r4, r8
 80014f4:	79c3      	ldrb	r3, [r0, #7]
 80014f6:	6824      	ldr	r4, [r4, #0]
 80014f8:	065b      	lsls	r3, r3, #25
 80014fa:	0d9b      	lsrs	r3, r3, #22
 80014fc:	591b      	ldr	r3, [r3, r4]
 80014fe:	9c01      	ldr	r4, [sp, #4]
 8001500:	46a0      	mov	r8, r4
 8001502:	195b      	adds	r3, r3, r5
 8001504:	79dd      	ldrb	r5, [r3, #7]
 8001506:	06eb      	lsls	r3, r5, #27
 8001508:	0edb      	lsrs	r3, r3, #27
 800150a:	4498      	add	r8, r3
 800150c:	096c      	lsrs	r4, r5, #5
 800150e:	4646      	mov	r6, r8
 8001510:	46a0      	mov	r8, r4
 8001512:	24c0      	movs	r4, #192	; 0xc0
 8001514:	7943      	ldrb	r3, [r0, #5]
 8001516:	065b      	lsls	r3, r3, #25
 8001518:	0f1b      	lsrs	r3, r3, #28
 800151a:	4443      	add	r3, r8
 800151c:	031b      	lsls	r3, r3, #12
 800151e:	0124      	lsls	r4, r4, #4
 8001520:	4333      	orrs	r3, r6
 8001522:	4323      	orrs	r3, r4
 8001524:	808b      	strh	r3, [r1, #4]
 8001526:	464b      	mov	r3, r9
 8001528:	80cb      	strh	r3, [r1, #6]
 800152a:	6803      	ldr	r3, [r0, #0]
 800152c:	4698      	mov	r8, r3
 800152e:	4644      	mov	r4, r8
 8001530:	6824      	ldr	r4, [r4, #0]
 8001532:	46a0      	mov	r8, r4
 8001534:	79c3      	ldrb	r3, [r0, #7]
 8001536:	065b      	lsls	r3, r3, #25
 8001538:	9601      	str	r6, [sp, #4]
 800153a:	0d9b      	lsrs	r3, r3, #22
 800153c:	4443      	add	r3, r8
 800153e:	88dc      	ldrh	r4, [r3, #6]
 8001540:	3201      	adds	r2, #1
 8001542:	3108      	adds	r1, #8
 8001544:	4294      	cmp	r4, r2
 8001546:	dc9c      	bgt.n	8001482 <commonSetToOamBufferAsObjWindow+0x32>
 8001548:	b003      	add	sp, #12
 800154a:	bcf0      	pop	{r4, r5, r6, r7}
 800154c:	46bb      	mov	fp, r7
 800154e:	46b2      	mov	sl, r6
 8001550:	46a9      	mov	r9, r5
 8001552:	46a0      	mov	r8, r4
 8001554:	bcf0      	pop	{r4, r5, r6, r7}
 8001556:	bc01      	pop	{r0}
 8001558:	4700      	bx	r0
 800155a:	46c0      	nop			; (mov r8, r8)

0800155c <commonDrawDisplay>:
 800155c:	b5f0      	push	{r4, r5, r6, r7, lr}
 800155e:	46c6      	mov	lr, r8
 8001560:	b500      	push	{lr}
 8001562:	7943      	ldrb	r3, [r0, #5]
 8001564:	0006      	movs	r6, r0
 8001566:	075b      	lsls	r3, r3, #29
 8001568:	d536      	bpl.n	80015d8 <commonDrawDisplay+0x7c>
 800156a:	6803      	ldr	r3, [r0, #0]
 800156c:	79c2      	ldrb	r2, [r0, #7]
 800156e:	681b      	ldr	r3, [r3, #0]
 8001570:	0652      	lsls	r2, r2, #25
 8001572:	0d92      	lsrs	r2, r2, #22
 8001574:	189b      	adds	r3, r3, r2
 8001576:	88da      	ldrh	r2, [r3, #6]
 8001578:	2a00      	cmp	r2, #0
 800157a:	d02d      	beq.n	80015d8 <commonDrawDisplay+0x7c>
 800157c:	8885      	ldrh	r5, [r0, #4]
 800157e:	4a19      	ldr	r2, [pc, #100]	; (80015e4 <commonDrawDisplay+0x88>)
 8001580:	05ad      	lsls	r5, r5, #22
 8001582:	2400      	movs	r4, #0
 8001584:	273f      	movs	r7, #63	; 0x3f
 8001586:	4690      	mov	r8, r2
 8001588:	0dad      	lsrs	r5, r5, #22
 800158a:	e014      	b.n	80015b6 <commonDrawDisplay+0x5a>
 800158c:	079a      	lsls	r2, r3, #30
 800158e:	071b      	lsls	r3, r3, #28
 8001590:	0f12      	lsrs	r2, r2, #28
 8001592:	0f9b      	lsrs	r3, r3, #30
 8001594:	18d3      	adds	r3, r2, r3
 8001596:	4642      	mov	r2, r8
 8001598:	009b      	lsls	r3, r3, #2
 800159a:	5899      	ldr	r1, [r3, r2]
 800159c:	002a      	movs	r2, r5
 800159e:	f005 f9a7 	bl	80068f0 <sprite_vram_copy32_ID>
 80015a2:	6832      	ldr	r2, [r6, #0]
 80015a4:	79f3      	ldrb	r3, [r6, #7]
 80015a6:	6812      	ldr	r2, [r2, #0]
 80015a8:	065b      	lsls	r3, r3, #25
 80015aa:	0d9b      	lsrs	r3, r3, #22
 80015ac:	18d3      	adds	r3, r2, r3
 80015ae:	88da      	ldrh	r2, [r3, #6]
 80015b0:	3401      	adds	r4, #1
 80015b2:	42a2      	cmp	r2, r4
 80015b4:	dd10      	ble.n	80015d8 <commonDrawDisplay+0x7c>
 80015b6:	681b      	ldr	r3, [r3, #0]
 80015b8:	00e2      	lsls	r2, r4, #3
 80015ba:	189b      	adds	r3, r3, r2
 80015bc:	79da      	ldrb	r2, [r3, #7]
 80015be:	6818      	ldr	r0, [r3, #0]
 80015c0:	06d2      	lsls	r2, r2, #27
 80015c2:	799b      	ldrb	r3, [r3, #6]
 80015c4:	0ed2      	lsrs	r2, r2, #27
 80015c6:	18ad      	adds	r5, r5, r2
 80015c8:	001a      	movs	r2, r3
 80015ca:	43ba      	bics	r2, r7
 80015cc:	2a40      	cmp	r2, #64	; 0x40
 80015ce:	d1dd      	bne.n	800158c <commonDrawDisplay+0x30>
 80015d0:	0029      	movs	r1, r5
 80015d2:	f005 fc2f 	bl	8006e34 <lzss2vram>
 80015d6:	e7e4      	b.n	80015a2 <commonDrawDisplay+0x46>
 80015d8:	bc80      	pop	{r7}
 80015da:	46b8      	mov	r8, r7
 80015dc:	bcf0      	pop	{r4, r5, r6, r7}
 80015de:	bc01      	pop	{r0}
 80015e0:	4700      	bx	r0
 80015e2:	46c0      	nop			; (mov r8, r8)
 80015e4:	08008768 	.word	0x08008768

080015e8 <commonInitializeAction>:
 80015e8:	2336      	movs	r3, #54	; 0x36
 80015ea:	5cc2      	ldrb	r2, [r0, r3]
 80015ec:	3b02      	subs	r3, #2
 80015ee:	5cc3      	ldrb	r3, [r0, r3]
 80015f0:	429a      	cmp	r2, r3
 80015f2:	d005      	beq.n	8001600 <commonInitializeAction+0x18>
 80015f4:	8c43      	ldrh	r3, [r0, #34]	; 0x22
 80015f6:	0bdb      	lsrs	r3, r3, #15
 80015f8:	03db      	lsls	r3, r3, #15
 80015fa:	8443      	strh	r3, [r0, #34]	; 0x22
 80015fc:	2001      	movs	r0, #1
 80015fe:	4770      	bx	lr
 8001600:	2335      	movs	r3, #53	; 0x35
 8001602:	2237      	movs	r2, #55	; 0x37
 8001604:	5cc3      	ldrb	r3, [r0, r3]
 8001606:	5680      	ldrsb	r0, [r0, r2]
 8001608:	071b      	lsls	r3, r3, #28
 800160a:	171b      	asrs	r3, r3, #28
 800160c:	1ac0      	subs	r0, r0, r3
 800160e:	1e43      	subs	r3, r0, #1
 8001610:	4198      	sbcs	r0, r3
 8001612:	e7f4      	b.n	80015fe <commonInitializeAction+0x16>

08001614 <commonUpdateAnimation>:
 8001614:	2336      	movs	r3, #54	; 0x36
 8001616:	b570      	push	{r4, r5, r6, lr}
 8001618:	5cc1      	ldrb	r1, [r0, r3]
 800161a:	3b02      	subs	r3, #2
 800161c:	69c2      	ldr	r2, [r0, #28]
 800161e:	5cc3      	ldrb	r3, [r0, r3]
 8001620:	6854      	ldr	r4, [r2, #4]
 8001622:	4299      	cmp	r1, r3
 8001624:	d007      	beq.n	8001636 <commonUpdateAnimation+0x22>
 8001626:	8c43      	ldrh	r3, [r0, #34]	; 0x22
 8001628:	0bdb      	lsrs	r3, r3, #15
 800162a:	03db      	lsls	r3, r3, #15
 800162c:	8443      	strh	r3, [r0, #34]	; 0x22
 800162e:	2001      	movs	r0, #1
 8001630:	bc70      	pop	{r4, r5, r6}
 8001632:	bc02      	pop	{r1}
 8001634:	4708      	bx	r1
 8001636:	2335      	movs	r3, #53	; 0x35
 8001638:	2137      	movs	r1, #55	; 0x37
 800163a:	5cc3      	ldrb	r3, [r0, r3]
 800163c:	5641      	ldrsb	r1, [r0, r1]
 800163e:	071b      	lsls	r3, r3, #28
 8001640:	171b      	asrs	r3, r3, #28
 8001642:	4299      	cmp	r1, r3
 8001644:	d1f3      	bne.n	800162e <commonUpdateAnimation+0x1a>
 8001646:	2322      	movs	r3, #34	; 0x22
 8001648:	0005      	movs	r5, r0
 800164a:	2123      	movs	r1, #35	; 0x23
 800164c:	5cc3      	ldrb	r3, [r0, r3]
 800164e:	3301      	adds	r3, #1
 8001650:	061b      	lsls	r3, r3, #24
 8001652:	0e1b      	lsrs	r3, r3, #24
 8001654:	3520      	adds	r5, #32
 8001656:	70ab      	strb	r3, [r5, #2]
 8001658:	5c41      	ldrb	r1, [r0, r1]
 800165a:	6812      	ldr	r2, [r2, #0]
 800165c:	0649      	lsls	r1, r1, #25
 800165e:	0e4e      	lsrs	r6, r1, #25
 8001660:	0d89      	lsrs	r1, r1, #22
 8001662:	1852      	adds	r2, r2, r1
 8001664:	8892      	ldrh	r2, [r2, #4]
 8001666:	2000      	movs	r0, #0
 8001668:	429a      	cmp	r2, r3
 800166a:	d8e1      	bhi.n	8001630 <commonUpdateAnimation+0x1c>
 800166c:	237f      	movs	r3, #127	; 0x7f
 800166e:	78ea      	ldrb	r2, [r5, #3]
 8001670:	3601      	adds	r6, #1
 8001672:	70a8      	strb	r0, [r5, #2]
 8001674:	401e      	ands	r6, r3
 8001676:	439a      	bics	r2, r3
 8001678:	42a6      	cmp	r6, r4
 800167a:	db02      	blt.n	8001682 <commonUpdateAnimation+0x6e>
 800167c:	2001      	movs	r0, #1
 800167e:	70ea      	strb	r2, [r5, #3]
 8001680:	e7d6      	b.n	8001630 <commonUpdateAnimation+0x1c>
 8001682:	0013      	movs	r3, r2
 8001684:	4333      	orrs	r3, r6
 8001686:	2001      	movs	r0, #1
 8001688:	70eb      	strb	r3, [r5, #3]
 800168a:	e7d1      	b.n	8001630 <commonUpdateAnimation+0x1c>

0800168c <commonGetNextFrame>:
 800168c:	b5f0      	push	{r4, r5, r6, r7, lr}
 800168e:	46c6      	mov	lr, r8
 8001690:	b500      	push	{lr}
 8001692:	69c4      	ldr	r4, [r0, #28]
 8001694:	6866      	ldr	r6, [r4, #4]
 8001696:	2435      	movs	r4, #53	; 0x35
 8001698:	2537      	movs	r5, #55	; 0x37
 800169a:	5d04      	ldrb	r4, [r0, r4]
 800169c:	5745      	ldrsb	r5, [r0, r5]
 800169e:	0724      	lsls	r4, r4, #28
 80016a0:	1724      	asrs	r4, r4, #28
 80016a2:	42a5      	cmp	r5, r4
 80016a4:	d105      	bne.n	80016b2 <commonGetNextFrame+0x26>
 80016a6:	2436      	movs	r4, #54	; 0x36
 80016a8:	5d05      	ldrb	r5, [r0, r4]
 80016aa:	3c02      	subs	r4, #2
 80016ac:	5d04      	ldrb	r4, [r0, r4]
 80016ae:	42a5      	cmp	r5, r4
 80016b0:	d008      	beq.n	80016c4 <commonGetNextFrame+0x38>
 80016b2:	2000      	movs	r0, #0
 80016b4:	6008      	str	r0, [r1, #0]
 80016b6:	6010      	str	r0, [r2, #0]
 80016b8:	7018      	strb	r0, [r3, #0]
 80016ba:	bc80      	pop	{r7}
 80016bc:	46b8      	mov	r8, r7
 80016be:	bcf0      	pop	{r4, r5, r6, r7}
 80016c0:	bc01      	pop	{r0}
 80016c2:	4700      	bx	r0
 80016c4:	2400      	movs	r4, #0
 80016c6:	2723      	movs	r7, #35	; 0x23
 80016c8:	701c      	strb	r4, [r3, #0]
 80016ca:	46a0      	mov	r8, r4
 80016cc:	5dc4      	ldrb	r4, [r0, r7]
 80016ce:	0664      	lsls	r4, r4, #25
 80016d0:	0e64      	lsrs	r4, r4, #25
 80016d2:	6014      	str	r4, [r2, #0]
 80016d4:	2422      	movs	r4, #34	; 0x22
 80016d6:	5d04      	ldrb	r4, [r0, r4]
 80016d8:	3401      	adds	r4, #1
 80016da:	600c      	str	r4, [r1, #0]
 80016dc:	69c5      	ldr	r5, [r0, #28]
 80016de:	5dc0      	ldrb	r0, [r0, r7]
 80016e0:	682f      	ldr	r7, [r5, #0]
 80016e2:	0640      	lsls	r0, r0, #25
 80016e4:	0d80      	lsrs	r0, r0, #22
 80016e6:	1838      	adds	r0, r7, r0
 80016e8:	8880      	ldrh	r0, [r0, #4]
 80016ea:	4284      	cmp	r4, r0
 80016ec:	dbe5      	blt.n	80016ba <commonGetNextFrame+0x2e>
 80016ee:	4640      	mov	r0, r8
 80016f0:	6008      	str	r0, [r1, #0]
 80016f2:	6811      	ldr	r1, [r2, #0]
 80016f4:	3101      	adds	r1, #1
 80016f6:	6011      	str	r1, [r2, #0]
 80016f8:	42b1      	cmp	r1, r6
 80016fa:	dbde      	blt.n	80016ba <commonGetNextFrame+0x2e>
 80016fc:	2101      	movs	r1, #1
 80016fe:	7019      	strb	r1, [r3, #0]
 8001700:	6010      	str	r0, [r2, #0]
 8001702:	e7da      	b.n	80016ba <commonGetNextFrame+0x2e>

08001704 <commonIsInScreen>:
 8001704:	b5f0      	push	{r4, r5, r6, r7, lr}
 8001706:	4657      	mov	r7, sl
 8001708:	464e      	mov	r6, r9
 800170a:	4645      	mov	r5, r8
 800170c:	46de      	mov	lr, fp
 800170e:	b5e0      	push	{r5, r6, r7, lr}
 8001710:	9d09      	ldr	r5, [sp, #36]	; 0x24
 8001712:	469b      	mov	fp, r3
 8001714:	2600      	movs	r6, #0
 8001716:	5fab      	ldrsh	r3, [r5, r6]
 8001718:	469c      	mov	ip, r3
 800171a:	0014      	movs	r4, r2
 800171c:	9a0a      	ldr	r2, [sp, #40]	; 0x28
 800171e:	2302      	movs	r3, #2
 8001720:	5eee      	ldrsh	r6, [r5, r3]
 8001722:	8855      	ldrh	r5, [r2, #2]
 8001724:	4663      	mov	r3, ip
 8001726:	46aa      	mov	sl, r5
 8001728:	4665      	mov	r5, ip
 800172a:	8817      	ldrh	r7, [r2, #0]
 800172c:	0fdb      	lsrs	r3, r3, #31
 800172e:	17c2      	asrs	r2, r0, #31
 8001730:	42a8      	cmp	r0, r5
 8001732:	415a      	adcs	r2, r3
 8001734:	4698      	mov	r8, r3
 8001736:	4467      	add	r7, ip
 8001738:	44b2      	add	sl, r6
 800173a:	0612      	lsls	r2, r2, #24
 800173c:	d01b      	beq.n	8001776 <commonIsInScreen+0x72>
 800173e:	0fc3      	lsrs	r3, r0, #31
 8001740:	17fa      	asrs	r2, r7, #31
 8001742:	4287      	cmp	r7, r0
 8001744:	4153      	adcs	r3, r2
 8001746:	0618      	lsls	r0, r3, #24
 8001748:	d016      	beq.n	8001778 <commonIsInScreen+0x74>
 800174a:	4653      	mov	r3, sl
 800174c:	0ff7      	lsrs	r7, r6, #31
 800174e:	17e0      	asrs	r0, r4, #31
 8001750:	17d9      	asrs	r1, r3, #31
 8001752:	0fe2      	lsrs	r2, r4, #31
 8001754:	42b4      	cmp	r4, r6
 8001756:	4178      	adcs	r0, r7
 8001758:	42a3      	cmp	r3, r4
 800175a:	414a      	adcs	r2, r1
 800175c:	4002      	ands	r2, r0
 800175e:	0612      	lsls	r2, r2, #24
 8001760:	0e10      	lsrs	r0, r2, #24
 8001762:	2a00      	cmp	r2, #0
 8001764:	d017      	beq.n	8001796 <commonIsInScreen+0x92>
 8001766:	bcf0      	pop	{r4, r5, r6, r7}
 8001768:	46bb      	mov	fp, r7
 800176a:	46b2      	mov	sl, r6
 800176c:	46a9      	mov	r9, r5
 800176e:	46a0      	mov	r8, r4
 8001770:	bcf0      	pop	{r4, r5, r6, r7}
 8001772:	bc02      	pop	{r1}
 8001774:	4708      	bx	r1
 8001776:	17fa      	asrs	r2, r7, #31
 8001778:	4643      	mov	r3, r8
 800177a:	4665      	mov	r5, ip
 800177c:	17c8      	asrs	r0, r1, #31
 800177e:	42a9      	cmp	r1, r5
 8001780:	4143      	adcs	r3, r0
 8001782:	0018      	movs	r0, r3
 8001784:	0fcb      	lsrs	r3, r1, #31
 8001786:	428f      	cmp	r7, r1
 8001788:	415a      	adcs	r2, r3
 800178a:	4002      	ands	r2, r0
 800178c:	0612      	lsls	r2, r2, #24
 800178e:	0e10      	lsrs	r0, r2, #24
 8001790:	2a00      	cmp	r2, #0
 8001792:	d0e8      	beq.n	8001766 <commonIsInScreen+0x62>
 8001794:	e7d9      	b.n	800174a <commonIsInScreen+0x46>
 8001796:	465b      	mov	r3, fp
 8001798:	17da      	asrs	r2, r3, #31
 800179a:	42b3      	cmp	r3, r6
 800179c:	4157      	adcs	r7, r2
 800179e:	4658      	mov	r0, fp
 80017a0:	0fda      	lsrs	r2, r3, #31
 80017a2:	4653      	mov	r3, sl
 80017a4:	4283      	cmp	r3, r0
 80017a6:	4151      	adcs	r1, r2
 80017a8:	4039      	ands	r1, r7
 80017aa:	0609      	lsls	r1, r1, #24
 80017ac:	0e08      	lsrs	r0, r1, #24
 80017ae:	e7da      	b.n	8001766 <commonIsInScreen+0x62>

080017b0 <common_checkNext>:
 80017b0:	b510      	push	{r4, lr}
 80017b2:	2800      	cmp	r0, #0
 80017b4:	d005      	beq.n	80017c2 <common_checkNext+0x12>
 80017b6:	2306      	movs	r3, #6
 80017b8:	5ec8      	ldrsh	r0, [r1, r3]
 80017ba:	2402      	movs	r4, #2
 80017bc:	5f13      	ldrsh	r3, [r2, r4]
 80017be:	4298      	cmp	r0, r3
 80017c0:	db0c      	blt.n	80017dc <common_checkNext+0x2c>
 80017c2:	2302      	movs	r3, #2
 80017c4:	5ecb      	ldrsh	r3, [r1, r3]
 80017c6:	2106      	movs	r1, #6
 80017c8:	5e52      	ldrsh	r2, [r2, r1]
 80017ca:	0fd8      	lsrs	r0, r3, #31
 80017cc:	17d1      	asrs	r1, r2, #31
 80017ce:	429a      	cmp	r2, r3
 80017d0:	4148      	adcs	r0, r1
 80017d2:	0600      	lsls	r0, r0, #24
 80017d4:	0e00      	lsrs	r0, r0, #24
 80017d6:	bc10      	pop	{r4}
 80017d8:	bc02      	pop	{r1}
 80017da:	4708      	bx	r1
 80017dc:	2000      	movs	r0, #0
 80017de:	e7fa      	b.n	80017d6 <common_checkNext+0x26>

080017e0 <hasCollision>:
 80017e0:	b5f0      	push	{r4, r5, r6, r7, lr}
 80017e2:	4657      	mov	r7, sl
 80017e4:	464e      	mov	r6, r9
 80017e6:	4645      	mov	r5, r8
 80017e8:	46de      	mov	lr, fp
 80017ea:	b5e0      	push	{r5, r6, r7, lr}
 80017ec:	2300      	movs	r3, #0
 80017ee:	5ec7      	ldrsh	r7, [r0, r3]
 80017f0:	2200      	movs	r2, #0
 80017f2:	5e8b      	ldrsh	r3, [r1, r2]
 80017f4:	4698      	mov	r8, r3
 80017f6:	2204      	movs	r2, #4
 80017f8:	5e8b      	ldrsh	r3, [r1, r2]
 80017fa:	469c      	mov	ip, r3
 80017fc:	2302      	movs	r3, #2
 80017fe:	5ecd      	ldrsh	r5, [r1, r3]
 8001800:	2306      	movs	r3, #6
 8001802:	5ec9      	ldrsh	r1, [r1, r3]
 8001804:	2306      	movs	r3, #6
 8001806:	5ec6      	ldrsh	r6, [r0, r3]
 8001808:	2304      	movs	r3, #4
 800180a:	5ec2      	ldrsh	r2, [r0, r3]
 800180c:	2302      	movs	r3, #2
 800180e:	5ec4      	ldrsh	r4, [r0, r3]
 8001810:	4643      	mov	r3, r8
 8001812:	468b      	mov	fp, r1
 8001814:	4641      	mov	r1, r8
 8001816:	0fdb      	lsrs	r3, r3, #31
 8001818:	17d0      	asrs	r0, r2, #31
 800181a:	428a      	cmp	r2, r1
 800181c:	4158      	adcs	r0, r3
 800181e:	469a      	mov	sl, r3
 8001820:	4663      	mov	r3, ip
 8001822:	17db      	asrs	r3, r3, #31
 8001824:	4699      	mov	r9, r3
 8001826:	b083      	sub	sp, #12
 8001828:	9001      	str	r0, [sp, #4]
 800182a:	4649      	mov	r1, r9
 800182c:	4660      	mov	r0, ip
 800182e:	0fd3      	lsrs	r3, r2, #31
 8001830:	4290      	cmp	r0, r2
 8001832:	414b      	adcs	r3, r1
 8001834:	9a01      	ldr	r2, [sp, #4]
 8001836:	401a      	ands	r2, r3
 8001838:	4641      	mov	r1, r8
 800183a:	9201      	str	r2, [sp, #4]
 800183c:	4652      	mov	r2, sl
 800183e:	17f8      	asrs	r0, r7, #31
 8001840:	428f      	cmp	r7, r1
 8001842:	4150      	adcs	r0, r2
 8001844:	4663      	mov	r3, ip
 8001846:	4649      	mov	r1, r9
 8001848:	0ffa      	lsrs	r2, r7, #31
 800184a:	42bb      	cmp	r3, r7
 800184c:	414a      	adcs	r2, r1
 800184e:	9b01      	ldr	r3, [sp, #4]
 8001850:	4002      	ands	r2, r0
 8001852:	4313      	orrs	r3, r2
 8001854:	465a      	mov	r2, fp
 8001856:	4659      	mov	r1, fp
 8001858:	17d7      	asrs	r7, r2, #31
 800185a:	0ff2      	lsrs	r2, r6, #31
 800185c:	42b1      	cmp	r1, r6
 800185e:	417a      	adcs	r2, r7
 8001860:	17f0      	asrs	r0, r6, #31
 8001862:	0fe9      	lsrs	r1, r5, #31
 8001864:	42ae      	cmp	r6, r5
 8001866:	4148      	adcs	r0, r1
 8001868:	000e      	movs	r6, r1
 800186a:	4659      	mov	r1, fp
 800186c:	4010      	ands	r0, r2
 800186e:	17e2      	asrs	r2, r4, #31
 8001870:	42ac      	cmp	r4, r5
 8001872:	4156      	adcs	r6, r2
 8001874:	0fe2      	lsrs	r2, r4, #31
 8001876:	42a1      	cmp	r1, r4
 8001878:	417a      	adcs	r2, r7
 800187a:	4032      	ands	r2, r6
 800187c:	4310      	orrs	r0, r2
 800187e:	4018      	ands	r0, r3
 8001880:	0600      	lsls	r0, r0, #24
 8001882:	0e00      	lsrs	r0, r0, #24
 8001884:	b003      	add	sp, #12
 8001886:	bcf0      	pop	{r4, r5, r6, r7}
 8001888:	46bb      	mov	fp, r7
 800188a:	46b2      	mov	sl, r6
 800188c:	46a9      	mov	r9, r5
 800188e:	46a0      	mov	r8, r4
 8001890:	bcf0      	pop	{r4, r5, r6, r7}
 8001892:	bc02      	pop	{r1}
 8001894:	4708      	bx	r1
 8001896:	46c0      	nop			; (mov r8, r8)

08001898 <common_movingRight>:
 8001898:	b5f0      	push	{r4, r5, r6, r7, lr}
 800189a:	000f      	movs	r7, r1
 800189c:	46c6      	mov	lr, r8
 800189e:	0011      	movs	r1, r2
 80018a0:	b500      	push	{lr}
 80018a2:	0006      	movs	r6, r0
 80018a4:	0038      	movs	r0, r7
 80018a6:	0014      	movs	r4, r2
 80018a8:	f7ff ff9a 	bl	80017e0 <hasCollision>
 80018ac:	0039      	movs	r1, r7
 80018ae:	0005      	movs	r5, r0
 80018b0:	0020      	movs	r0, r4
 80018b2:	f7ff ff95 	bl	80017e0 <hasCollision>
 80018b6:	2300      	movs	r3, #0
 80018b8:	5ee2      	ldrsh	r2, [r4, r3]
 80018ba:	4305      	orrs	r5, r0
 80018bc:	2304      	movs	r3, #4
 80018be:	5ef9      	ldrsh	r1, [r7, r3]
 80018c0:	2004      	movs	r0, #4
 80018c2:	5e20      	ldrsh	r0, [r4, r0]
 80018c4:	062d      	lsls	r5, r5, #24
 80018c6:	2301      	movs	r3, #1
 80018c8:	0e2d      	lsrs	r5, r5, #24
 80018ca:	4288      	cmp	r0, r1
 80018cc:	dc00      	bgt.n	80018d0 <common_movingRight+0x38>
 80018ce:	2300      	movs	r3, #0
 80018d0:	1a8f      	subs	r7, r1, r2
 80018d2:	435f      	muls	r7, r3
 80018d4:	481c      	ldr	r0, [pc, #112]	; (8001948 <common_movingRight+0xb0>)
 80018d6:	003b      	movs	r3, r7
 80018d8:	f004 fa7a 	bl	8005dd0 <mprinter_printf>
 80018dc:	2344      	movs	r3, #68	; 0x44
 80018de:	5ef3      	ldrsh	r3, [r6, r3]
 80018e0:	2401      	movs	r4, #1
 80018e2:	4698      	mov	r8, r3
 80018e4:	42bb      	cmp	r3, r7
 80018e6:	db00      	blt.n	80018ea <common_movingRight+0x52>
 80018e8:	2400      	movs	r4, #0
 80018ea:	4641      	mov	r1, r8
 80018ec:	4817      	ldr	r0, [pc, #92]	; (800194c <common_movingRight+0xb4>)
 80018ee:	f004 fa6f 	bl	8005dd0 <mprinter_printf>
 80018f2:	234c      	movs	r3, #76	; 0x4c
 80018f4:	54f5      	strb	r5, [r6, r3]
 80018f6:	4643      	mov	r3, r8
 80018f8:	4641      	mov	r1, r8
 80018fa:	0ffa      	lsrs	r2, r7, #31
 80018fc:	17db      	asrs	r3, r3, #31
 80018fe:	42b9      	cmp	r1, r7
 8001900:	4153      	adcs	r3, r2
 8001902:	2244      	movs	r2, #68	; 0x44
 8001904:	0624      	lsls	r4, r4, #24
 8001906:	5eb2      	ldrsh	r2, [r6, r2]
 8001908:	0e24      	lsrs	r4, r4, #24
 800190a:	4354      	muls	r4, r2
 800190c:	425b      	negs	r3, r3
 800190e:	403b      	ands	r3, r7
 8001910:	18e3      	adds	r3, r4, r3
 8001912:	436b      	muls	r3, r5
 8001914:	8fb2      	ldrh	r2, [r6, #60]	; 0x3c
 8001916:	1ad2      	subs	r2, r2, r3
 8001918:	87b2      	strh	r2, [r6, #60]	; 0x3c
 800191a:	2207      	movs	r2, #7
 800191c:	6d31      	ldr	r1, [r6, #80]	; 0x50
 800191e:	7808      	ldrb	r0, [r1, #0]
 8001920:	4002      	ands	r2, r0
 8001922:	2a01      	cmp	r2, #1
 8001924:	d10b      	bne.n	800193e <common_movingRight+0xa6>
 8001926:	1e5d      	subs	r5, r3, #1
 8001928:	41ab      	sbcs	r3, r5
 800192a:	78c8      	ldrb	r0, [r1, #3]
 800192c:	0684      	lsls	r4, r0, #26
 800192e:	0fe4      	lsrs	r4, r4, #31
 8001930:	4323      	orrs	r3, r4
 8001932:	401a      	ands	r2, r3
 8001934:	2320      	movs	r3, #32
 8001936:	0152      	lsls	r2, r2, #5
 8001938:	4398      	bics	r0, r3
 800193a:	4310      	orrs	r0, r2
 800193c:	70c8      	strb	r0, [r1, #3]
 800193e:	bc80      	pop	{r7}
 8001940:	46b8      	mov	r8, r7
 8001942:	bcf0      	pop	{r4, r5, r6, r7}
 8001944:	bc01      	pop	{r0}
 8001946:	4700      	bx	r0
 8001948:	08035d10 	.word	0x08035d10
 800194c:	08035d2c 	.word	0x08035d2c

08001950 <common_movingLeft>:
 8001950:	b5f8      	push	{r3, r4, r5, r6, r7, lr}
 8001952:	000f      	movs	r7, r1
 8001954:	0004      	movs	r4, r0
 8001956:	0011      	movs	r1, r2
 8001958:	0038      	movs	r0, r7
 800195a:	0016      	movs	r6, r2
 800195c:	f7ff ff40 	bl	80017e0 <hasCollision>
 8001960:	0039      	movs	r1, r7
 8001962:	0005      	movs	r5, r0
 8001964:	0030      	movs	r0, r6
 8001966:	f7ff ff3b 	bl	80017e0 <hasCollision>
 800196a:	4305      	orrs	r5, r0
 800196c:	2200      	movs	r2, #0
 800196e:	5eb9      	ldrsh	r1, [r7, r2]
 8001970:	062b      	lsls	r3, r5, #24
 8001972:	2004      	movs	r0, #4
 8001974:	5e32      	ldrsh	r2, [r6, r0]
 8001976:	2500      	movs	r5, #0
 8001978:	5f75      	ldrsh	r5, [r6, r5]
 800197a:	2001      	movs	r0, #1
 800197c:	0e1b      	lsrs	r3, r3, #24
 800197e:	1a52      	subs	r2, r2, r1
 8001980:	428d      	cmp	r5, r1
 8001982:	db00      	blt.n	8001986 <common_movingLeft+0x36>
 8001984:	2000      	movs	r0, #0
 8001986:	4350      	muls	r0, r2
 8001988:	2244      	movs	r2, #68	; 0x44
 800198a:	5ea5      	ldrsh	r5, [r4, r2]
 800198c:	224c      	movs	r2, #76	; 0x4c
 800198e:	426d      	negs	r5, r5
 8001990:	54a3      	strb	r3, [r4, r2]
 8001992:	3a4b      	subs	r2, #75	; 0x4b
 8001994:	4285      	cmp	r5, r0
 8001996:	db00      	blt.n	800199a <common_movingLeft+0x4a>
 8001998:	2200      	movs	r2, #0
 800199a:	0fc6      	lsrs	r6, r0, #31
 800199c:	17e9      	asrs	r1, r5, #31
 800199e:	4285      	cmp	r5, r0
 80019a0:	4171      	adcs	r1, r6
 80019a2:	436a      	muls	r2, r5
 80019a4:	4249      	negs	r1, r1
 80019a6:	4001      	ands	r1, r0
 80019a8:	1852      	adds	r2, r2, r1
 80019aa:	435a      	muls	r2, r3
 80019ac:	8fa3      	ldrh	r3, [r4, #60]	; 0x3c
 80019ae:	189b      	adds	r3, r3, r2
 80019b0:	87a3      	strh	r3, [r4, #60]	; 0x3c
 80019b2:	2307      	movs	r3, #7
 80019b4:	6d21      	ldr	r1, [r4, #80]	; 0x50
 80019b6:	7808      	ldrb	r0, [r1, #0]
 80019b8:	4003      	ands	r3, r0
 80019ba:	2b01      	cmp	r3, #1
 80019bc:	d10b      	bne.n	80019d6 <common_movingLeft+0x86>
 80019be:	1e55      	subs	r5, r2, #1
 80019c0:	41aa      	sbcs	r2, r5
 80019c2:	78c8      	ldrb	r0, [r1, #3]
 80019c4:	06c4      	lsls	r4, r0, #27
 80019c6:	0fe4      	lsrs	r4, r4, #31
 80019c8:	4322      	orrs	r2, r4
 80019ca:	4013      	ands	r3, r2
 80019cc:	2210      	movs	r2, #16
 80019ce:	011b      	lsls	r3, r3, #4
 80019d0:	4390      	bics	r0, r2
 80019d2:	4318      	orrs	r0, r3
 80019d4:	70c8      	strb	r0, [r1, #3]
 80019d6:	bcf8      	pop	{r3, r4, r5, r6, r7}
 80019d8:	bc01      	pop	{r0}
 80019da:	4700      	bx	r0

080019dc <common_movingUp>:
 80019dc:	b5f8      	push	{r3, r4, r5, r6, r7, lr}
 80019de:	000f      	movs	r7, r1
 80019e0:	0004      	movs	r4, r0
 80019e2:	0011      	movs	r1, r2
 80019e4:	0038      	movs	r0, r7
 80019e6:	0016      	movs	r6, r2
 80019e8:	f7ff fefa 	bl	80017e0 <hasCollision>
 80019ec:	0039      	movs	r1, r7
 80019ee:	0005      	movs	r5, r0
 80019f0:	0030      	movs	r0, r6
 80019f2:	f7ff fef5 	bl	80017e0 <hasCollision>
 80019f6:	4305      	orrs	r5, r0
 80019f8:	2202      	movs	r2, #2
 80019fa:	5eb9      	ldrsh	r1, [r7, r2]
 80019fc:	062b      	lsls	r3, r5, #24
 80019fe:	2006      	movs	r0, #6
 8001a00:	5e32      	ldrsh	r2, [r6, r0]
 8001a02:	2502      	movs	r5, #2
 8001a04:	5f75      	ldrsh	r5, [r6, r5]
 8001a06:	2001      	movs	r0, #1
 8001a08:	0e1b      	lsrs	r3, r3, #24
 8001a0a:	1a52      	subs	r2, r2, r1
 8001a0c:	428d      	cmp	r5, r1
 8001a0e:	db00      	blt.n	8001a12 <common_movingUp+0x36>
 8001a10:	2000      	movs	r0, #0
 8001a12:	4350      	muls	r0, r2
 8001a14:	2246      	movs	r2, #70	; 0x46
 8001a16:	5ea5      	ldrsh	r5, [r4, r2]
 8001a18:	224c      	movs	r2, #76	; 0x4c
 8001a1a:	426d      	negs	r5, r5
 8001a1c:	54a3      	strb	r3, [r4, r2]
 8001a1e:	3a4b      	subs	r2, #75	; 0x4b
 8001a20:	4285      	cmp	r5, r0
 8001a22:	db00      	blt.n	8001a26 <common_movingUp+0x4a>
 8001a24:	2200      	movs	r2, #0
 8001a26:	0fc6      	lsrs	r6, r0, #31
 8001a28:	17e9      	asrs	r1, r5, #31
 8001a2a:	4285      	cmp	r5, r0
 8001a2c:	4171      	adcs	r1, r6
 8001a2e:	436a      	muls	r2, r5
 8001a30:	4249      	negs	r1, r1
 8001a32:	4001      	ands	r1, r0
 8001a34:	1852      	adds	r2, r2, r1
 8001a36:	435a      	muls	r2, r3
 8001a38:	8fe3      	ldrh	r3, [r4, #62]	; 0x3e
 8001a3a:	189b      	adds	r3, r3, r2
 8001a3c:	87e3      	strh	r3, [r4, #62]	; 0x3e
 8001a3e:	2307      	movs	r3, #7
 8001a40:	6d21      	ldr	r1, [r4, #80]	; 0x50
 8001a42:	7808      	ldrb	r0, [r1, #0]
 8001a44:	4003      	ands	r3, r0
 8001a46:	2b01      	cmp	r3, #1
 8001a48:	d10b      	bne.n	8001a62 <common_movingUp+0x86>
 8001a4a:	1e55      	subs	r5, r2, #1
 8001a4c:	41aa      	sbcs	r2, r5
 8001a4e:	78c8      	ldrb	r0, [r1, #3]
 8001a50:	0644      	lsls	r4, r0, #25
 8001a52:	0fe4      	lsrs	r4, r4, #31
 8001a54:	4322      	orrs	r2, r4
 8001a56:	4013      	ands	r3, r2
 8001a58:	2240      	movs	r2, #64	; 0x40
 8001a5a:	019b      	lsls	r3, r3, #6
 8001a5c:	4390      	bics	r0, r2
 8001a5e:	4318      	orrs	r0, r3
 8001a60:	70c8      	strb	r0, [r1, #3]
 8001a62:	bcf8      	pop	{r3, r4, r5, r6, r7}
 8001a64:	bc01      	pop	{r0}
 8001a66:	4700      	bx	r0

08001a68 <common_mapMovingUp>:
 8001a68:	b510      	push	{r4, lr}
 8001a6a:	f7ff ffb7 	bl	80019dc <common_movingUp>
 8001a6e:	bc10      	pop	{r4}
 8001a70:	bc01      	pop	{r0}
 8001a72:	4700      	bx	r0

08001a74 <common_movingDown>:
 8001a74:	b5f8      	push	{r3, r4, r5, r6, r7, lr}
 8001a76:	000f      	movs	r7, r1
 8001a78:	0004      	movs	r4, r0
 8001a7a:	0011      	movs	r1, r2
 8001a7c:	0038      	movs	r0, r7
 8001a7e:	0016      	movs	r6, r2
 8001a80:	f7ff feae 	bl	80017e0 <hasCollision>
 8001a84:	0039      	movs	r1, r7
 8001a86:	0005      	movs	r5, r0
 8001a88:	0030      	movs	r0, r6
 8001a8a:	f7ff fea9 	bl	80017e0 <hasCollision>
 8001a8e:	4305      	orrs	r5, r0
 8001a90:	2206      	movs	r2, #6
 8001a92:	5eb9      	ldrsh	r1, [r7, r2]
 8001a94:	062b      	lsls	r3, r5, #24
 8001a96:	2002      	movs	r0, #2
 8001a98:	5e32      	ldrsh	r2, [r6, r0]
 8001a9a:	2506      	movs	r5, #6
 8001a9c:	5f75      	ldrsh	r5, [r6, r5]
 8001a9e:	2001      	movs	r0, #1
 8001aa0:	0e1b      	lsrs	r3, r3, #24
 8001aa2:	1a8a      	subs	r2, r1, r2
 8001aa4:	428d      	cmp	r5, r1
 8001aa6:	dc00      	bgt.n	8001aaa <common_movingDown+0x36>
 8001aa8:	2000      	movs	r0, #0
 8001aaa:	4350      	muls	r0, r2
 8001aac:	2246      	movs	r2, #70	; 0x46
 8001aae:	5ea5      	ldrsh	r5, [r4, r2]
 8001ab0:	224c      	movs	r2, #76	; 0x4c
 8001ab2:	54a3      	strb	r3, [r4, r2]
 8001ab4:	3a4b      	subs	r2, #75	; 0x4b
 8001ab6:	4285      	cmp	r5, r0
 8001ab8:	db00      	blt.n	8001abc <common_movingDown+0x48>
 8001aba:	2200      	movs	r2, #0
 8001abc:	0fc6      	lsrs	r6, r0, #31
 8001abe:	17e9      	asrs	r1, r5, #31
 8001ac0:	4285      	cmp	r5, r0
 8001ac2:	4171      	adcs	r1, r6
 8001ac4:	436a      	muls	r2, r5
 8001ac6:	4249      	negs	r1, r1
 8001ac8:	4001      	ands	r1, r0
 8001aca:	1852      	adds	r2, r2, r1
 8001acc:	435a      	muls	r2, r3
 8001ace:	8fe3      	ldrh	r3, [r4, #62]	; 0x3e
 8001ad0:	1a9b      	subs	r3, r3, r2
 8001ad2:	87e3      	strh	r3, [r4, #62]	; 0x3e
 8001ad4:	2307      	movs	r3, #7
 8001ad6:	6d21      	ldr	r1, [r4, #80]	; 0x50
 8001ad8:	7808      	ldrb	r0, [r1, #0]
 8001ada:	4003      	ands	r3, r0
 8001adc:	2b01      	cmp	r3, #1
 8001ade:	d109      	bne.n	8001af4 <common_movingDown+0x80>
 8001ae0:	1e54      	subs	r4, r2, #1
 8001ae2:	41a2      	sbcs	r2, r4
 8001ae4:	78c8      	ldrb	r0, [r1, #3]
 8001ae6:	09c3      	lsrs	r3, r0, #7
 8001ae8:	431a      	orrs	r2, r3
 8001aea:	237f      	movs	r3, #127	; 0x7f
 8001aec:	01d2      	lsls	r2, r2, #7
 8001aee:	4003      	ands	r3, r0
 8001af0:	4313      	orrs	r3, r2
 8001af2:	70cb      	strb	r3, [r1, #3]
 8001af4:	bcf8      	pop	{r3, r4, r5, r6, r7}
 8001af6:	bc01      	pop	{r0}
 8001af8:	4700      	bx	r0
 8001afa:	46c0      	nop			; (mov r8, r8)

08001afc <common_mapMovingDown>:
 8001afc:	b510      	push	{r4, lr}
 8001afe:	f7ff ffb9 	bl	8001a74 <common_movingDown>
 8001b02:	bc10      	pop	{r4}
 8001b04:	bc01      	pop	{r0}
 8001b06:	4700      	bx	r0

08001b08 <common_movingRightUpOffset>:
 8001b08:	b5f8      	push	{r3, r4, r5, r6, r7, lr}
 8001b0a:	46ce      	mov	lr, r9
 8001b0c:	4647      	mov	r7, r8
 8001b0e:	b580      	push	{r7, lr}
 8001b10:	000f      	movs	r7, r1
 8001b12:	0005      	movs	r5, r0
 8001b14:	0011      	movs	r1, r2
 8001b16:	0038      	movs	r0, r7
 8001b18:	0016      	movs	r6, r2
 8001b1a:	f7ff fe61 	bl	80017e0 <hasCollision>
 8001b1e:	0039      	movs	r1, r7
 8001b20:	0004      	movs	r4, r0
 8001b22:	0030      	movs	r0, r6
 8001b24:	f7ff fe5c 	bl	80017e0 <hasCollision>
 8001b28:	224c      	movs	r2, #76	; 0x4c
 8001b2a:	4304      	orrs	r4, r0
 8001b2c:	0623      	lsls	r3, r4, #24
 8001b2e:	0e1b      	lsrs	r3, r3, #24
 8001b30:	54ab      	strb	r3, [r5, r2]
 8001b32:	2104      	movs	r1, #4
 8001b34:	5e7a      	ldrsh	r2, [r7, r1]
 8001b36:	4691      	mov	r9, r2
 8001b38:	2200      	movs	r2, #0
 8001b3a:	5eb0      	ldrsh	r0, [r6, r2]
 8001b3c:	464a      	mov	r2, r9
 8001b3e:	1a10      	subs	r0, r2, r0
 8001b40:	2102      	movs	r1, #2
 8001b42:	5e7a      	ldrsh	r2, [r7, r1]
 8001b44:	4690      	mov	r8, r2
 8001b46:	2206      	movs	r2, #6
 8001b48:	5eb1      	ldrsh	r1, [r6, r2]
 8001b4a:	4642      	mov	r2, r8
 8001b4c:	1a89      	subs	r1, r1, r2
 8001b4e:	2246      	movs	r2, #70	; 0x46
 8001b50:	5eaa      	ldrsh	r2, [r5, r2]
 8001b52:	4252      	negs	r2, r2
 8001b54:	4694      	mov	ip, r2
 8001b56:	2244      	movs	r2, #68	; 0x44
 8001b58:	5eac      	ldrsh	r4, [r5, r2]
 8001b5a:	2201      	movs	r2, #1
 8001b5c:	4284      	cmp	r4, r0
 8001b5e:	db00      	blt.n	8001b62 <common_movingRightUpOffset+0x5a>
 8001b60:	2200      	movs	r2, #0
 8001b62:	2700      	movs	r7, #0
 8001b64:	4362      	muls	r2, r4
 8001b66:	4284      	cmp	r4, r0
 8001b68:	db04      	blt.n	8001b74 <common_movingRightUpOffset+0x6c>
 8001b6a:	2704      	movs	r7, #4
 8001b6c:	5ff4      	ldrsh	r4, [r6, r7]
 8001b6e:	2700      	movs	r7, #0
 8001b70:	454c      	cmp	r4, r9
 8001b72:	dc49      	bgt.n	8001c08 <common_movingRightUpOffset+0x100>
 8001b74:	2401      	movs	r4, #1
 8001b76:	19d7      	adds	r7, r2, r7
 8001b78:	458c      	cmp	ip, r1
 8001b7a:	db00      	blt.n	8001b7e <common_movingRightUpOffset+0x76>
 8001b7c:	2400      	movs	r4, #0
 8001b7e:	0022      	movs	r2, r4
 8001b80:	4664      	mov	r4, ip
 8001b82:	4354      	muls	r4, r2
 8001b84:	2200      	movs	r2, #0
 8001b86:	458c      	cmp	ip, r1
 8001b88:	db04      	blt.n	8001b94 <common_movingRightUpOffset+0x8c>
 8001b8a:	2202      	movs	r2, #2
 8001b8c:	5eb6      	ldrsh	r6, [r6, r2]
 8001b8e:	2200      	movs	r2, #0
 8001b90:	4546      	cmp	r6, r8
 8001b92:	db37      	blt.n	8001c04 <common_movingRightUpOffset+0xfc>
 8001b94:	17ce      	asrs	r6, r1, #31
 8001b96:	18a4      	adds	r4, r4, r2
 8001b98:	0fc2      	lsrs	r2, r0, #31
 8001b9a:	4281      	cmp	r1, r0
 8001b9c:	4172      	adcs	r2, r6
 8001b9e:	401a      	ands	r2, r3
 8001ba0:	2601      	movs	r6, #1
 8001ba2:	437a      	muls	r2, r7
 8001ba4:	4288      	cmp	r0, r1
 8001ba6:	dc00      	bgt.n	8001baa <common_movingRightUpOffset+0xa2>
 8001ba8:	2600      	movs	r6, #0
 8001baa:	4033      	ands	r3, r6
 8001bac:	4363      	muls	r3, r4
 8001bae:	8fe9      	ldrh	r1, [r5, #62]	; 0x3e
 8001bb0:	18c9      	adds	r1, r1, r3
 8001bb2:	87e9      	strh	r1, [r5, #62]	; 0x3e
 8001bb4:	8fa9      	ldrh	r1, [r5, #60]	; 0x3c
 8001bb6:	1a89      	subs	r1, r1, r2
 8001bb8:	87a9      	strh	r1, [r5, #60]	; 0x3c
 8001bba:	2107      	movs	r1, #7
 8001bbc:	6d28      	ldr	r0, [r5, #80]	; 0x50
 8001bbe:	7804      	ldrb	r4, [r0, #0]
 8001bc0:	4021      	ands	r1, r4
 8001bc2:	2901      	cmp	r1, #1
 8001bc4:	d118      	bne.n	8001bf8 <common_movingRightUpOffset+0xf0>
 8001bc6:	1e57      	subs	r7, r2, #1
 8001bc8:	41ba      	sbcs	r2, r7
 8001bca:	78c4      	ldrb	r4, [r0, #3]
 8001bcc:	06a6      	lsls	r6, r4, #26
 8001bce:	0ff6      	lsrs	r6, r6, #31
 8001bd0:	4332      	orrs	r2, r6
 8001bd2:	2620      	movs	r6, #32
 8001bd4:	400a      	ands	r2, r1
 8001bd6:	0152      	lsls	r2, r2, #5
 8001bd8:	43b4      	bics	r4, r6
 8001bda:	4314      	orrs	r4, r2
 8001bdc:	70c4      	strb	r4, [r0, #3]
 8001bde:	6d2c      	ldr	r4, [r5, #80]	; 0x50
 8001be0:	1e5d      	subs	r5, r3, #1
 8001be2:	41ab      	sbcs	r3, r5
 8001be4:	78e2      	ldrb	r2, [r4, #3]
 8001be6:	0650      	lsls	r0, r2, #25
 8001be8:	0fc0      	lsrs	r0, r0, #31
 8001bea:	4303      	orrs	r3, r0
 8001bec:	4019      	ands	r1, r3
 8001bee:	2340      	movs	r3, #64	; 0x40
 8001bf0:	0189      	lsls	r1, r1, #6
 8001bf2:	439a      	bics	r2, r3
 8001bf4:	430a      	orrs	r2, r1
 8001bf6:	70e2      	strb	r2, [r4, #3]
 8001bf8:	bcc0      	pop	{r6, r7}
 8001bfa:	46b9      	mov	r9, r7
 8001bfc:	46b0      	mov	r8, r6
 8001bfe:	bcf8      	pop	{r3, r4, r5, r6, r7}
 8001c00:	bc01      	pop	{r0}
 8001c02:	4700      	bx	r0
 8001c04:	000a      	movs	r2, r1
 8001c06:	e7c5      	b.n	8001b94 <common_movingRightUpOffset+0x8c>
 8001c08:	0007      	movs	r7, r0
 8001c0a:	e7b3      	b.n	8001b74 <common_movingRightUpOffset+0x6c>

08001c0c <common_movingLeftUpOffset>:
 8001c0c:	b5f0      	push	{r4, r5, r6, r7, lr}
 8001c0e:	46d6      	mov	lr, sl
 8001c10:	4646      	mov	r6, r8
 8001c12:	464f      	mov	r7, r9
 8001c14:	b5c0      	push	{r6, r7, lr}
 8001c16:	000f      	movs	r7, r1
 8001c18:	0005      	movs	r5, r0
 8001c1a:	0011      	movs	r1, r2
 8001c1c:	0038      	movs	r0, r7
 8001c1e:	0016      	movs	r6, r2
 8001c20:	f7ff fdde 	bl	80017e0 <hasCollision>
 8001c24:	0039      	movs	r1, r7
 8001c26:	0004      	movs	r4, r0
 8001c28:	0030      	movs	r0, r6
 8001c2a:	f7ff fdd9 	bl	80017e0 <hasCollision>
 8001c2e:	224c      	movs	r2, #76	; 0x4c
 8001c30:	4304      	orrs	r4, r0
 8001c32:	0623      	lsls	r3, r4, #24
 8001c34:	0e1b      	lsrs	r3, r3, #24
 8001c36:	54ab      	strb	r3, [r5, r2]
 8001c38:	2100      	movs	r1, #0
 8001c3a:	5e7a      	ldrsh	r2, [r7, r1]
 8001c3c:	4694      	mov	ip, r2
 8001c3e:	2204      	movs	r2, #4
 8001c40:	5eb0      	ldrsh	r0, [r6, r2]
 8001c42:	4662      	mov	r2, ip
 8001c44:	1a80      	subs	r0, r0, r2
 8001c46:	2102      	movs	r1, #2
 8001c48:	5e7a      	ldrsh	r2, [r7, r1]
 8001c4a:	4690      	mov	r8, r2
 8001c4c:	2206      	movs	r2, #6
 8001c4e:	5eb1      	ldrsh	r1, [r6, r2]
 8001c50:	4642      	mov	r2, r8
 8001c52:	1a89      	subs	r1, r1, r2
 8001c54:	2246      	movs	r2, #70	; 0x46
 8001c56:	5eaf      	ldrsh	r7, [r5, r2]
 8001c58:	2244      	movs	r2, #68	; 0x44
 8001c5a:	5eaa      	ldrsh	r2, [r5, r2]
 8001c5c:	4252      	negs	r2, r2
 8001c5e:	2401      	movs	r4, #1
 8001c60:	427f      	negs	r7, r7
 8001c62:	4282      	cmp	r2, r0
 8001c64:	db00      	blt.n	8001c68 <common_movingLeftUpOffset+0x5c>
 8001c66:	2400      	movs	r4, #0
 8001c68:	4354      	muls	r4, r2
 8001c6a:	46a2      	mov	sl, r4
 8001c6c:	2400      	movs	r4, #0
 8001c6e:	46a1      	mov	r9, r4
 8001c70:	4282      	cmp	r2, r0
 8001c72:	db06      	blt.n	8001c82 <common_movingLeftUpOffset+0x76>
 8001c74:	2400      	movs	r4, #0
 8001c76:	5f32      	ldrsh	r2, [r6, r4]
 8001c78:	4691      	mov	r9, r2
 8001c7a:	2200      	movs	r2, #0
 8001c7c:	45e1      	cmp	r9, ip
 8001c7e:	db4b      	blt.n	8001d18 <common_movingLeftUpOffset+0x10c>
 8001c80:	4691      	mov	r9, r2
 8001c82:	2401      	movs	r4, #1
 8001c84:	44d1      	add	r9, sl
 8001c86:	428f      	cmp	r7, r1
 8001c88:	db00      	blt.n	8001c8c <common_movingLeftUpOffset+0x80>
 8001c8a:	2400      	movs	r4, #0
 8001c8c:	2200      	movs	r2, #0
 8001c8e:	437c      	muls	r4, r7
 8001c90:	428f      	cmp	r7, r1
 8001c92:	db04      	blt.n	8001c9e <common_movingLeftUpOffset+0x92>
 8001c94:	2202      	movs	r2, #2
 8001c96:	5eb6      	ldrsh	r6, [r6, r2]
 8001c98:	2200      	movs	r2, #0
 8001c9a:	4546      	cmp	r6, r8
 8001c9c:	db3a      	blt.n	8001d14 <common_movingLeftUpOffset+0x108>
 8001c9e:	17ce      	asrs	r6, r1, #31
 8001ca0:	18a4      	adds	r4, r4, r2
 8001ca2:	0fc2      	lsrs	r2, r0, #31
 8001ca4:	4281      	cmp	r1, r0
 8001ca6:	4172      	adcs	r2, r6
 8001ca8:	401a      	ands	r2, r3
 8001caa:	0016      	movs	r6, r2
 8001cac:	464a      	mov	r2, r9
 8001cae:	4372      	muls	r2, r6
 8001cb0:	2601      	movs	r6, #1
 8001cb2:	4288      	cmp	r0, r1
 8001cb4:	dc00      	bgt.n	8001cb8 <common_movingLeftUpOffset+0xac>
 8001cb6:	2600      	movs	r6, #0
 8001cb8:	4033      	ands	r3, r6
 8001cba:	4363      	muls	r3, r4
 8001cbc:	8fe9      	ldrh	r1, [r5, #62]	; 0x3e
 8001cbe:	18c9      	adds	r1, r1, r3
 8001cc0:	87e9      	strh	r1, [r5, #62]	; 0x3e
 8001cc2:	8fa9      	ldrh	r1, [r5, #60]	; 0x3c
 8001cc4:	1889      	adds	r1, r1, r2
 8001cc6:	87a9      	strh	r1, [r5, #60]	; 0x3c
 8001cc8:	2107      	movs	r1, #7
 8001cca:	6d28      	ldr	r0, [r5, #80]	; 0x50
 8001ccc:	7804      	ldrb	r4, [r0, #0]
 8001cce:	4021      	ands	r1, r4
 8001cd0:	2901      	cmp	r1, #1
 8001cd2:	d118      	bne.n	8001d06 <common_movingLeftUpOffset+0xfa>
 8001cd4:	1e57      	subs	r7, r2, #1
 8001cd6:	41ba      	sbcs	r2, r7
 8001cd8:	78c4      	ldrb	r4, [r0, #3]
 8001cda:	06e6      	lsls	r6, r4, #27
 8001cdc:	0ff6      	lsrs	r6, r6, #31
 8001cde:	4332      	orrs	r2, r6
 8001ce0:	2610      	movs	r6, #16
 8001ce2:	400a      	ands	r2, r1
 8001ce4:	0112      	lsls	r2, r2, #4
 8001ce6:	43b4      	bics	r4, r6
 8001ce8:	4314      	orrs	r4, r2
 8001cea:	70c4      	strb	r4, [r0, #3]
 8001cec:	6d2c      	ldr	r4, [r5, #80]	; 0x50
 8001cee:	1e5d      	subs	r5, r3, #1
 8001cf0:	41ab      	sbcs	r3, r5
 8001cf2:	78e2      	ldrb	r2, [r4, #3]
 8001cf4:	0650      	lsls	r0, r2, #25
 8001cf6:	0fc0      	lsrs	r0, r0, #31
 8001cf8:	4303      	orrs	r3, r0
 8001cfa:	4019      	ands	r1, r3
 8001cfc:	2340      	movs	r3, #64	; 0x40
 8001cfe:	0189      	lsls	r1, r1, #6
 8001d00:	439a      	bics	r2, r3
 8001d02:	430a      	orrs	r2, r1
 8001d04:	70e2      	strb	r2, [r4, #3]
 8001d06:	bce0      	pop	{r5, r6, r7}
 8001d08:	46ba      	mov	sl, r7
 8001d0a:	46b1      	mov	r9, r6
 8001d0c:	46a8      	mov	r8, r5
 8001d0e:	bcf0      	pop	{r4, r5, r6, r7}
 8001d10:	bc01      	pop	{r0}
 8001d12:	4700      	bx	r0
 8001d14:	000a      	movs	r2, r1
 8001d16:	e7c2      	b.n	8001c9e <common_movingLeftUpOffset+0x92>
 8001d18:	0002      	movs	r2, r0
 8001d1a:	e7b1      	b.n	8001c80 <common_movingLeftUpOffset+0x74>

08001d1c <common_movingRightDownOffset>:
 8001d1c:	b5f8      	push	{r3, r4, r5, r6, r7, lr}
 8001d1e:	46ce      	mov	lr, r9
 8001d20:	4647      	mov	r7, r8
 8001d22:	b580      	push	{r7, lr}
 8001d24:	000f      	movs	r7, r1
 8001d26:	0005      	movs	r5, r0
 8001d28:	0011      	movs	r1, r2
 8001d2a:	0038      	movs	r0, r7
 8001d2c:	0016      	movs	r6, r2
 8001d2e:	f7ff fd57 	bl	80017e0 <hasCollision>
 8001d32:	0039      	movs	r1, r7
 8001d34:	0004      	movs	r4, r0
 8001d36:	0030      	movs	r0, r6
 8001d38:	f7ff fd52 	bl	80017e0 <hasCollision>
 8001d3c:	224c      	movs	r2, #76	; 0x4c
 8001d3e:	4304      	orrs	r4, r0
 8001d40:	0623      	lsls	r3, r4, #24
 8001d42:	0e1b      	lsrs	r3, r3, #24
 8001d44:	54ab      	strb	r3, [r5, r2]
 8001d46:	2104      	movs	r1, #4
 8001d48:	5e7a      	ldrsh	r2, [r7, r1]
 8001d4a:	4691      	mov	r9, r2
 8001d4c:	2200      	movs	r2, #0
 8001d4e:	5eb1      	ldrsh	r1, [r6, r2]
 8001d50:	464a      	mov	r2, r9
 8001d52:	1a51      	subs	r1, r2, r1
 8001d54:	2006      	movs	r0, #6
 8001d56:	5e3a      	ldrsh	r2, [r7, r0]
 8001d58:	4690      	mov	r8, r2
 8001d5a:	2202      	movs	r2, #2
 8001d5c:	5eb0      	ldrsh	r0, [r6, r2]
 8001d5e:	4642      	mov	r2, r8
 8001d60:	1a10      	subs	r0, r2, r0
 8001d62:	2246      	movs	r2, #70	; 0x46
 8001d64:	5eaa      	ldrsh	r2, [r5, r2]
 8001d66:	4694      	mov	ip, r2
 8001d68:	2244      	movs	r2, #68	; 0x44
 8001d6a:	5eac      	ldrsh	r4, [r5, r2]
 8001d6c:	2201      	movs	r2, #1
 8001d6e:	428c      	cmp	r4, r1
 8001d70:	db00      	blt.n	8001d74 <common_movingRightDownOffset+0x58>
 8001d72:	2200      	movs	r2, #0
 8001d74:	2700      	movs	r7, #0
 8001d76:	4362      	muls	r2, r4
 8001d78:	428c      	cmp	r4, r1
 8001d7a:	db04      	blt.n	8001d86 <common_movingRightDownOffset+0x6a>
 8001d7c:	2704      	movs	r7, #4
 8001d7e:	5ff4      	ldrsh	r4, [r6, r7]
 8001d80:	2700      	movs	r7, #0
 8001d82:	454c      	cmp	r4, r9
 8001d84:	dc48      	bgt.n	8001e18 <common_movingRightDownOffset+0xfc>
 8001d86:	2401      	movs	r4, #1
 8001d88:	19d7      	adds	r7, r2, r7
 8001d8a:	4584      	cmp	ip, r0
 8001d8c:	db00      	blt.n	8001d90 <common_movingRightDownOffset+0x74>
 8001d8e:	2400      	movs	r4, #0
 8001d90:	0022      	movs	r2, r4
 8001d92:	4664      	mov	r4, ip
 8001d94:	4354      	muls	r4, r2
 8001d96:	2200      	movs	r2, #0
 8001d98:	4584      	cmp	ip, r0
 8001d9a:	db04      	blt.n	8001da6 <common_movingRightDownOffset+0x8a>
 8001d9c:	2206      	movs	r2, #6
 8001d9e:	5eb6      	ldrsh	r6, [r6, r2]
 8001da0:	2200      	movs	r2, #0
 8001da2:	4546      	cmp	r6, r8
 8001da4:	dc36      	bgt.n	8001e14 <common_movingRightDownOffset+0xf8>
 8001da6:	18a4      	adds	r4, r4, r2
 8001da8:	17c6      	asrs	r6, r0, #31
 8001daa:	0fca      	lsrs	r2, r1, #31
 8001dac:	4288      	cmp	r0, r1
 8001dae:	4172      	adcs	r2, r6
 8001db0:	401a      	ands	r2, r3
 8001db2:	4357      	muls	r7, r2
 8001db4:	2201      	movs	r2, #1
 8001db6:	4281      	cmp	r1, r0
 8001db8:	dc00      	bgt.n	8001dbc <common_movingRightDownOffset+0xa0>
 8001dba:	2200      	movs	r2, #0
 8001dbc:	4013      	ands	r3, r2
 8001dbe:	4363      	muls	r3, r4
 8001dc0:	8fea      	ldrh	r2, [r5, #62]	; 0x3e
 8001dc2:	1ad2      	subs	r2, r2, r3
 8001dc4:	87ea      	strh	r2, [r5, #62]	; 0x3e
 8001dc6:	8faa      	ldrh	r2, [r5, #60]	; 0x3c
 8001dc8:	1bd2      	subs	r2, r2, r7
 8001dca:	87aa      	strh	r2, [r5, #60]	; 0x3c
 8001dcc:	2207      	movs	r2, #7
 8001dce:	6d29      	ldr	r1, [r5, #80]	; 0x50
 8001dd0:	7808      	ldrb	r0, [r1, #0]
 8001dd2:	4002      	ands	r2, r0
 8001dd4:	2a01      	cmp	r2, #1
 8001dd6:	d117      	bne.n	8001e08 <common_movingRightDownOffset+0xec>
 8001dd8:	003e      	movs	r6, r7
 8001dda:	1e77      	subs	r7, r6, #1
 8001ddc:	41be      	sbcs	r6, r7
 8001dde:	78c8      	ldrb	r0, [r1, #3]
 8001de0:	0684      	lsls	r4, r0, #26
 8001de2:	0fe4      	lsrs	r4, r4, #31
 8001de4:	4326      	orrs	r6, r4
 8001de6:	2420      	movs	r4, #32
 8001de8:	43a0      	bics	r0, r4
 8001dea:	1e5c      	subs	r4, r3, #1
 8001dec:	41a3      	sbcs	r3, r4
 8001dee:	4032      	ands	r2, r6
 8001df0:	0152      	lsls	r2, r2, #5
 8001df2:	4310      	orrs	r0, r2
 8001df4:	70c8      	strb	r0, [r1, #3]
 8001df6:	6d29      	ldr	r1, [r5, #80]	; 0x50
 8001df8:	78c8      	ldrb	r0, [r1, #3]
 8001dfa:	09c2      	lsrs	r2, r0, #7
 8001dfc:	4313      	orrs	r3, r2
 8001dfe:	227f      	movs	r2, #127	; 0x7f
 8001e00:	01db      	lsls	r3, r3, #7
 8001e02:	4002      	ands	r2, r0
 8001e04:	4313      	orrs	r3, r2
 8001e06:	70cb      	strb	r3, [r1, #3]
 8001e08:	bcc0      	pop	{r6, r7}
 8001e0a:	46b9      	mov	r9, r7
 8001e0c:	46b0      	mov	r8, r6
 8001e0e:	bcf8      	pop	{r3, r4, r5, r6, r7}
 8001e10:	bc01      	pop	{r0}
 8001e12:	4700      	bx	r0
 8001e14:	0002      	movs	r2, r0
 8001e16:	e7c6      	b.n	8001da6 <common_movingRightDownOffset+0x8a>
 8001e18:	000f      	movs	r7, r1
 8001e1a:	e7b4      	b.n	8001d86 <common_movingRightDownOffset+0x6a>

08001e1c <common_movingLeftDownOffset>:
 8001e1c:	b5f8      	push	{r3, r4, r5, r6, r7, lr}
 8001e1e:	46ce      	mov	lr, r9
 8001e20:	4647      	mov	r7, r8
 8001e22:	b580      	push	{r7, lr}
 8001e24:	000f      	movs	r7, r1
 8001e26:	0005      	movs	r5, r0
 8001e28:	0011      	movs	r1, r2
 8001e2a:	0038      	movs	r0, r7
 8001e2c:	0016      	movs	r6, r2
 8001e2e:	f7ff fcd7 	bl	80017e0 <hasCollision>
 8001e32:	0039      	movs	r1, r7
 8001e34:	0004      	movs	r4, r0
 8001e36:	0030      	movs	r0, r6
 8001e38:	f7ff fcd2 	bl	80017e0 <hasCollision>
 8001e3c:	224c      	movs	r2, #76	; 0x4c
 8001e3e:	4304      	orrs	r4, r0
 8001e40:	0623      	lsls	r3, r4, #24
 8001e42:	0e1b      	lsrs	r3, r3, #24
 8001e44:	54ab      	strb	r3, [r5, r2]
 8001e46:	2100      	movs	r1, #0
 8001e48:	5e7a      	ldrsh	r2, [r7, r1]
 8001e4a:	4691      	mov	r9, r2
 8001e4c:	2204      	movs	r2, #4
 8001e4e:	5eb0      	ldrsh	r0, [r6, r2]
 8001e50:	464a      	mov	r2, r9
 8001e52:	1a80      	subs	r0, r0, r2
 8001e54:	2106      	movs	r1, #6
 8001e56:	5e7a      	ldrsh	r2, [r7, r1]
 8001e58:	4690      	mov	r8, r2
 8001e5a:	2202      	movs	r2, #2
 8001e5c:	5eb1      	ldrsh	r1, [r6, r2]
 8001e5e:	4642      	mov	r2, r8
 8001e60:	1a51      	subs	r1, r2, r1
 8001e62:	2246      	movs	r2, #70	; 0x46
 8001e64:	5eaa      	ldrsh	r2, [r5, r2]
 8001e66:	4694      	mov	ip, r2
 8001e68:	2244      	movs	r2, #68	; 0x44
 8001e6a:	5eac      	ldrsh	r4, [r5, r2]
 8001e6c:	4264      	negs	r4, r4
 8001e6e:	2201      	movs	r2, #1
 8001e70:	4284      	cmp	r4, r0
 8001e72:	db00      	blt.n	8001e76 <common_movingLeftDownOffset+0x5a>
 8001e74:	2200      	movs	r2, #0
 8001e76:	2700      	movs	r7, #0
 8001e78:	4362      	muls	r2, r4
 8001e7a:	4284      	cmp	r4, r0
 8001e7c:	db04      	blt.n	8001e88 <common_movingLeftDownOffset+0x6c>
 8001e7e:	2700      	movs	r7, #0
 8001e80:	5ff4      	ldrsh	r4, [r6, r7]
 8001e82:	2700      	movs	r7, #0
 8001e84:	454c      	cmp	r4, r9
 8001e86:	db47      	blt.n	8001f18 <common_movingLeftDownOffset+0xfc>
 8001e88:	2401      	movs	r4, #1
 8001e8a:	19d7      	adds	r7, r2, r7
 8001e8c:	458c      	cmp	ip, r1
 8001e8e:	db00      	blt.n	8001e92 <common_movingLeftDownOffset+0x76>
 8001e90:	2400      	movs	r4, #0
 8001e92:	0022      	movs	r2, r4
 8001e94:	4664      	mov	r4, ip
 8001e96:	4354      	muls	r4, r2
 8001e98:	2200      	movs	r2, #0
 8001e9a:	458c      	cmp	ip, r1
 8001e9c:	db04      	blt.n	8001ea8 <common_movingLeftDownOffset+0x8c>
 8001e9e:	2206      	movs	r2, #6
 8001ea0:	5eb6      	ldrsh	r6, [r6, r2]
 8001ea2:	2200      	movs	r2, #0
 8001ea4:	4546      	cmp	r6, r8
 8001ea6:	dc35      	bgt.n	8001f14 <common_movingLeftDownOffset+0xf8>
 8001ea8:	17ce      	asrs	r6, r1, #31
 8001eaa:	18a4      	adds	r4, r4, r2
 8001eac:	0fc2      	lsrs	r2, r0, #31
 8001eae:	4281      	cmp	r1, r0
 8001eb0:	4172      	adcs	r2, r6
 8001eb2:	401a      	ands	r2, r3
 8001eb4:	2601      	movs	r6, #1
 8001eb6:	437a      	muls	r2, r7
 8001eb8:	4288      	cmp	r0, r1
 8001eba:	dc00      	bgt.n	8001ebe <common_movingLeftDownOffset+0xa2>
 8001ebc:	2600      	movs	r6, #0
 8001ebe:	4033      	ands	r3, r6
 8001ec0:	4363      	muls	r3, r4
 8001ec2:	8fe9      	ldrh	r1, [r5, #62]	; 0x3e
 8001ec4:	1ac9      	subs	r1, r1, r3
 8001ec6:	87e9      	strh	r1, [r5, #62]	; 0x3e
 8001ec8:	8fa9      	ldrh	r1, [r5, #60]	; 0x3c
 8001eca:	1889      	adds	r1, r1, r2
 8001ecc:	87a9      	strh	r1, [r5, #60]	; 0x3c
 8001ece:	2107      	movs	r1, #7
 8001ed0:	6d28      	ldr	r0, [r5, #80]	; 0x50
 8001ed2:	7804      	ldrb	r4, [r0, #0]
 8001ed4:	4021      	ands	r1, r4
 8001ed6:	2901      	cmp	r1, #1
 8001ed8:	d116      	bne.n	8001f08 <common_movingLeftDownOffset+0xec>
 8001eda:	1e57      	subs	r7, r2, #1
 8001edc:	41ba      	sbcs	r2, r7
 8001ede:	78c4      	ldrb	r4, [r0, #3]
 8001ee0:	06e6      	lsls	r6, r4, #27
 8001ee2:	0ff6      	lsrs	r6, r6, #31
 8001ee4:	4332      	orrs	r2, r6
 8001ee6:	4011      	ands	r1, r2
 8001ee8:	2210      	movs	r2, #16
 8001eea:	0109      	lsls	r1, r1, #4
 8001eec:	4394      	bics	r4, r2
 8001eee:	430c      	orrs	r4, r1
 8001ef0:	70c4      	strb	r4, [r0, #3]
 8001ef2:	1e5c      	subs	r4, r3, #1
 8001ef4:	41a3      	sbcs	r3, r4
 8001ef6:	6d29      	ldr	r1, [r5, #80]	; 0x50
 8001ef8:	78c8      	ldrb	r0, [r1, #3]
 8001efa:	09c2      	lsrs	r2, r0, #7
 8001efc:	4313      	orrs	r3, r2
 8001efe:	227f      	movs	r2, #127	; 0x7f
 8001f00:	01db      	lsls	r3, r3, #7
 8001f02:	4002      	ands	r2, r0
 8001f04:	4313      	orrs	r3, r2
 8001f06:	70cb      	strb	r3, [r1, #3]
 8001f08:	bcc0      	pop	{r6, r7}
 8001f0a:	46b9      	mov	r9, r7
 8001f0c:	46b0      	mov	r8, r6
 8001f0e:	bcf8      	pop	{r3, r4, r5, r6, r7}
 8001f10:	bc01      	pop	{r0}
 8001f12:	4700      	bx	r0
 8001f14:	000a      	movs	r2, r1
 8001f16:	e7c7      	b.n	8001ea8 <common_movingLeftDownOffset+0x8c>
 8001f18:	0007      	movs	r7, r0
 8001f1a:	e7b5      	b.n	8001e88 <common_movingLeftDownOffset+0x6c>

08001f1c <common_mapMovingRight>:
 8001f1c:	b5f8      	push	{r3, r4, r5, r6, r7, lr}
 8001f1e:	000f      	movs	r7, r1
 8001f20:	0005      	movs	r5, r0
 8001f22:	0011      	movs	r1, r2
 8001f24:	0038      	movs	r0, r7
 8001f26:	0016      	movs	r6, r2
 8001f28:	f7ff fc5a 	bl	80017e0 <hasCollision>
 8001f2c:	0039      	movs	r1, r7
 8001f2e:	0004      	movs	r4, r0
 8001f30:	0030      	movs	r0, r6
 8001f32:	f7ff fc55 	bl	80017e0 <hasCollision>
 8001f36:	2104      	movs	r1, #4
 8001f38:	5e7a      	ldrsh	r2, [r7, r1]
 8001f3a:	4304      	orrs	r4, r0
 8001f3c:	2000      	movs	r0, #0
 8001f3e:	5e31      	ldrsh	r1, [r6, r0]
 8001f40:	1a52      	subs	r2, r2, r1
 8001f42:	214c      	movs	r1, #76	; 0x4c
 8001f44:	0623      	lsls	r3, r4, #24
 8001f46:	0e1b      	lsrs	r3, r3, #24
 8001f48:	3201      	adds	r2, #1
 8001f4a:	546b      	strb	r3, [r5, r1]
 8001f4c:	4353      	muls	r3, r2
 8001f4e:	8faa      	ldrh	r2, [r5, #60]	; 0x3c
 8001f50:	1ad2      	subs	r2, r2, r3
 8001f52:	87aa      	strh	r2, [r5, #60]	; 0x3c
 8001f54:	2207      	movs	r2, #7
 8001f56:	6d29      	ldr	r1, [r5, #80]	; 0x50
 8001f58:	7808      	ldrb	r0, [r1, #0]
 8001f5a:	4002      	ands	r2, r0
 8001f5c:	2a01      	cmp	r2, #1
 8001f5e:	d10b      	bne.n	8001f78 <common_mapMovingRight+0x5c>
 8001f60:	1e5d      	subs	r5, r3, #1
 8001f62:	41ab      	sbcs	r3, r5
 8001f64:	78c8      	ldrb	r0, [r1, #3]
 8001f66:	0684      	lsls	r4, r0, #26
 8001f68:	0fe4      	lsrs	r4, r4, #31
 8001f6a:	4323      	orrs	r3, r4
 8001f6c:	401a      	ands	r2, r3
 8001f6e:	2320      	movs	r3, #32
 8001f70:	0152      	lsls	r2, r2, #5
 8001f72:	4398      	bics	r0, r3
 8001f74:	4310      	orrs	r0, r2
 8001f76:	70c8      	strb	r0, [r1, #3]
 8001f78:	bcf8      	pop	{r3, r4, r5, r6, r7}
 8001f7a:	bc01      	pop	{r0}
 8001f7c:	4700      	bx	r0
 8001f7e:	46c0      	nop			; (mov r8, r8)

08001f80 <common_mapMovingLeft>:
 8001f80:	b5f8      	push	{r3, r4, r5, r6, r7, lr}
 8001f82:	000e      	movs	r6, r1
 8001f84:	0005      	movs	r5, r0
 8001f86:	0011      	movs	r1, r2
 8001f88:	0030      	movs	r0, r6
 8001f8a:	0017      	movs	r7, r2
 8001f8c:	f7ff fc28 	bl	80017e0 <hasCollision>
 8001f90:	0031      	movs	r1, r6
 8001f92:	0004      	movs	r4, r0
 8001f94:	0038      	movs	r0, r7
 8001f96:	f7ff fc23 	bl	80017e0 <hasCollision>
 8001f9a:	2104      	movs	r1, #4
 8001f9c:	5e7a      	ldrsh	r2, [r7, r1]
 8001f9e:	4304      	orrs	r4, r0
 8001fa0:	2000      	movs	r0, #0
 8001fa2:	5e31      	ldrsh	r1, [r6, r0]
 8001fa4:	1a52      	subs	r2, r2, r1
 8001fa6:	214c      	movs	r1, #76	; 0x4c
 8001fa8:	0623      	lsls	r3, r4, #24
 8001faa:	0e1b      	lsrs	r3, r3, #24
 8001fac:	3201      	adds	r2, #1
 8001fae:	546b      	strb	r3, [r5, r1]
 8001fb0:	4353      	muls	r3, r2
 8001fb2:	8faa      	ldrh	r2, [r5, #60]	; 0x3c
 8001fb4:	18d2      	adds	r2, r2, r3
 8001fb6:	87aa      	strh	r2, [r5, #60]	; 0x3c
 8001fb8:	2207      	movs	r2, #7
 8001fba:	6d29      	ldr	r1, [r5, #80]	; 0x50
 8001fbc:	7808      	ldrb	r0, [r1, #0]
 8001fbe:	4002      	ands	r2, r0
 8001fc0:	2a01      	cmp	r2, #1
 8001fc2:	d10b      	bne.n	8001fdc <common_mapMovingLeft+0x5c>
 8001fc4:	1e5d      	subs	r5, r3, #1
 8001fc6:	41ab      	sbcs	r3, r5
 8001fc8:	78c8      	ldrb	r0, [r1, #3]
 8001fca:	06c4      	lsls	r4, r0, #27
 8001fcc:	0fe4      	lsrs	r4, r4, #31
 8001fce:	4323      	orrs	r3, r4
 8001fd0:	401a      	ands	r2, r3
 8001fd2:	2310      	movs	r3, #16
 8001fd4:	0112      	lsls	r2, r2, #4
 8001fd6:	4398      	bics	r0, r3
 8001fd8:	4310      	orrs	r0, r2
 8001fda:	70c8      	strb	r0, [r1, #3]
 8001fdc:	bcf8      	pop	{r3, r4, r5, r6, r7}
 8001fde:	bc01      	pop	{r0}
 8001fe0:	4700      	bx	r0
 8001fe2:	46c0      	nop			; (mov r8, r8)

08001fe4 <common_mapMovingRightUpOffset>:
 8001fe4:	b5f8      	push	{r3, r4, r5, r6, r7, lr}
 8001fe6:	000e      	movs	r6, r1
 8001fe8:	0005      	movs	r5, r0
 8001fea:	0011      	movs	r1, r2
 8001fec:	0030      	movs	r0, r6
 8001fee:	0017      	movs	r7, r2
 8001ff0:	f7ff fbf6 	bl	80017e0 <hasCollision>
 8001ff4:	0031      	movs	r1, r6
 8001ff6:	0004      	movs	r4, r0
 8001ff8:	0038      	movs	r0, r7
 8001ffa:	f7ff fbf1 	bl	80017e0 <hasCollision>
 8001ffe:	2204      	movs	r2, #4
 8002000:	5eb1      	ldrsh	r1, [r6, r2]
 8002002:	4304      	orrs	r4, r0
 8002004:	2000      	movs	r0, #0
 8002006:	5e3a      	ldrsh	r2, [r7, r0]
 8002008:	0623      	lsls	r3, r4, #24
 800200a:	1a89      	subs	r1, r1, r2
 800200c:	2206      	movs	r2, #6
 800200e:	5eb8      	ldrsh	r0, [r7, r2]
 8002010:	2402      	movs	r4, #2
 8002012:	5f32      	ldrsh	r2, [r6, r4]
 8002014:	1a80      	subs	r0, r0, r2
 8002016:	224c      	movs	r2, #76	; 0x4c
 8002018:	0e1b      	lsrs	r3, r3, #24
 800201a:	54ab      	strb	r3, [r5, r2]
 800201c:	2401      	movs	r4, #1
 800201e:	1c42      	adds	r2, r0, #1
 8002020:	4281      	cmp	r1, r0
 8002022:	dc00      	bgt.n	8002026 <common_mapMovingRightUpOffset+0x42>
 8002024:	2400      	movs	r4, #0
 8002026:	401c      	ands	r4, r3
 8002028:	4362      	muls	r2, r4
 800202a:	17c7      	asrs	r7, r0, #31
 800202c:	0fcc      	lsrs	r4, r1, #31
 800202e:	4288      	cmp	r0, r1
 8002030:	417c      	adcs	r4, r7
 8002032:	1c4e      	adds	r6, r1, #1
 8002034:	0021      	movs	r1, r4
 8002036:	4019      	ands	r1, r3
 8002038:	4371      	muls	r1, r6
 800203a:	8feb      	ldrh	r3, [r5, #62]	; 0x3e
 800203c:	189b      	adds	r3, r3, r2
 800203e:	87eb      	strh	r3, [r5, #62]	; 0x3e
 8002040:	8fab      	ldrh	r3, [r5, #60]	; 0x3c
 8002042:	1a5b      	subs	r3, r3, r1
 8002044:	87ab      	strh	r3, [r5, #60]	; 0x3c
 8002046:	2307      	movs	r3, #7
 8002048:	6d28      	ldr	r0, [r5, #80]	; 0x50
 800204a:	7804      	ldrb	r4, [r0, #0]
 800204c:	4023      	ands	r3, r4
 800204e:	2b01      	cmp	r3, #1
 8002050:	d118      	bne.n	8002084 <common_mapMovingRightUpOffset+0xa0>
 8002052:	1e57      	subs	r7, r2, #1
 8002054:	41ba      	sbcs	r2, r7
 8002056:	78c4      	ldrb	r4, [r0, #3]
 8002058:	0666      	lsls	r6, r4, #25
 800205a:	0ff6      	lsrs	r6, r6, #31
 800205c:	4332      	orrs	r2, r6
 800205e:	2640      	movs	r6, #64	; 0x40
 8002060:	401a      	ands	r2, r3
 8002062:	0192      	lsls	r2, r2, #6
 8002064:	43b4      	bics	r4, r6
 8002066:	4314      	orrs	r4, r2
 8002068:	70c4      	strb	r4, [r0, #3]
 800206a:	6d2c      	ldr	r4, [r5, #80]	; 0x50
 800206c:	1e4d      	subs	r5, r1, #1
 800206e:	41a9      	sbcs	r1, r5
 8002070:	78e2      	ldrb	r2, [r4, #3]
 8002072:	0690      	lsls	r0, r2, #26
 8002074:	0fc0      	lsrs	r0, r0, #31
 8002076:	4301      	orrs	r1, r0
 8002078:	400b      	ands	r3, r1
 800207a:	2120      	movs	r1, #32
 800207c:	015b      	lsls	r3, r3, #5
 800207e:	438a      	bics	r2, r1
 8002080:	431a      	orrs	r2, r3
 8002082:	70e2      	strb	r2, [r4, #3]
 8002084:	bcf8      	pop	{r3, r4, r5, r6, r7}
 8002086:	bc01      	pop	{r0}
 8002088:	4700      	bx	r0
 800208a:	46c0      	nop			; (mov r8, r8)

0800208c <common_mapMovingLeftUpOffset>:
 800208c:	b5f8      	push	{r3, r4, r5, r6, r7, lr}
 800208e:	000e      	movs	r6, r1
 8002090:	0005      	movs	r5, r0
 8002092:	0011      	movs	r1, r2
 8002094:	0030      	movs	r0, r6
 8002096:	0017      	movs	r7, r2
 8002098:	f7ff fba2 	bl	80017e0 <hasCollision>
 800209c:	0031      	movs	r1, r6
 800209e:	0004      	movs	r4, r0
 80020a0:	0038      	movs	r0, r7
 80020a2:	f7ff fb9d 	bl	80017e0 <hasCollision>
 80020a6:	2204      	movs	r2, #4
 80020a8:	5eb9      	ldrsh	r1, [r7, r2]
 80020aa:	4304      	orrs	r4, r0
 80020ac:	2000      	movs	r0, #0
 80020ae:	5e32      	ldrsh	r2, [r6, r0]
 80020b0:	0623      	lsls	r3, r4, #24
 80020b2:	1a89      	subs	r1, r1, r2
 80020b4:	2206      	movs	r2, #6
 80020b6:	5eb8      	ldrsh	r0, [r7, r2]
 80020b8:	2402      	movs	r4, #2
 80020ba:	5f32      	ldrsh	r2, [r6, r4]
 80020bc:	1a80      	subs	r0, r0, r2
 80020be:	224c      	movs	r2, #76	; 0x4c
 80020c0:	0e1b      	lsrs	r3, r3, #24
 80020c2:	54ab      	strb	r3, [r5, r2]
 80020c4:	2401      	movs	r4, #1
 80020c6:	1c42      	adds	r2, r0, #1
 80020c8:	4281      	cmp	r1, r0
 80020ca:	dc00      	bgt.n	80020ce <common_mapMovingLeftUpOffset+0x42>
 80020cc:	2400      	movs	r4, #0
 80020ce:	401c      	ands	r4, r3
 80020d0:	4362      	muls	r2, r4
 80020d2:	17c7      	asrs	r7, r0, #31
 80020d4:	0fcc      	lsrs	r4, r1, #31
 80020d6:	4288      	cmp	r0, r1
 80020d8:	417c      	adcs	r4, r7
 80020da:	1c4e      	adds	r6, r1, #1
 80020dc:	0021      	movs	r1, r4
 80020de:	4019      	ands	r1, r3
 80020e0:	4371      	muls	r1, r6
 80020e2:	8feb      	ldrh	r3, [r5, #62]	; 0x3e
 80020e4:	189b      	adds	r3, r3, r2
 80020e6:	87eb      	strh	r3, [r5, #62]	; 0x3e
 80020e8:	8fab      	ldrh	r3, [r5, #60]	; 0x3c
 80020ea:	185b      	adds	r3, r3, r1
 80020ec:	87ab      	strh	r3, [r5, #60]	; 0x3c
 80020ee:	2307      	movs	r3, #7
 80020f0:	6d28      	ldr	r0, [r5, #80]	; 0x50
 80020f2:	7804      	ldrb	r4, [r0, #0]
 80020f4:	4023      	ands	r3, r4
 80020f6:	2b01      	cmp	r3, #1
 80020f8:	d118      	bne.n	800212c <common_mapMovingLeftUpOffset+0xa0>
 80020fa:	1e57      	subs	r7, r2, #1
 80020fc:	41ba      	sbcs	r2, r7
 80020fe:	78c4      	ldrb	r4, [r0, #3]
 8002100:	0666      	lsls	r6, r4, #25
 8002102:	0ff6      	lsrs	r6, r6, #31
 8002104:	4332      	orrs	r2, r6
 8002106:	2640      	movs	r6, #64	; 0x40
 8002108:	401a      	ands	r2, r3
 800210a:	0192      	lsls	r2, r2, #6
 800210c:	43b4      	bics	r4, r6
 800210e:	4314      	orrs	r4, r2
 8002110:	70c4      	strb	r4, [r0, #3]
 8002112:	6d2c      	ldr	r4, [r5, #80]	; 0x50
 8002114:	1e4d      	subs	r5, r1, #1
 8002116:	41a9      	sbcs	r1, r5
 8002118:	78e2      	ldrb	r2, [r4, #3]
 800211a:	06d0      	lsls	r0, r2, #27
 800211c:	0fc0      	lsrs	r0, r0, #31
 800211e:	4301      	orrs	r1, r0
 8002120:	400b      	ands	r3, r1
 8002122:	2110      	movs	r1, #16
 8002124:	011b      	lsls	r3, r3, #4
 8002126:	438a      	bics	r2, r1
 8002128:	431a      	orrs	r2, r3
 800212a:	70e2      	strb	r2, [r4, #3]
 800212c:	bcf8      	pop	{r3, r4, r5, r6, r7}
 800212e:	bc01      	pop	{r0}
 8002130:	4700      	bx	r0
 8002132:	46c0      	nop			; (mov r8, r8)

08002134 <common_mapMovingRightDownOffset>:
 8002134:	b5f8      	push	{r3, r4, r5, r6, r7, lr}
 8002136:	000f      	movs	r7, r1
 8002138:	0005      	movs	r5, r0
 800213a:	0011      	movs	r1, r2
 800213c:	0038      	movs	r0, r7
 800213e:	0016      	movs	r6, r2
 8002140:	f7ff fb4e 	bl	80017e0 <hasCollision>
 8002144:	0039      	movs	r1, r7
 8002146:	0004      	movs	r4, r0
 8002148:	0030      	movs	r0, r6
 800214a:	f7ff fb49 	bl	80017e0 <hasCollision>
 800214e:	2104      	movs	r1, #4
 8002150:	5e7a      	ldrsh	r2, [r7, r1]
 8002152:	4304      	orrs	r4, r0
 8002154:	2000      	movs	r0, #0
 8002156:	5e31      	ldrsh	r1, [r6, r0]
 8002158:	0623      	lsls	r3, r4, #24
 800215a:	1a52      	subs	r2, r2, r1
 800215c:	2006      	movs	r0, #6
 800215e:	5e39      	ldrsh	r1, [r7, r0]
 8002160:	2402      	movs	r4, #2
 8002162:	5f30      	ldrsh	r0, [r6, r4]
 8002164:	1a09      	subs	r1, r1, r0
 8002166:	204c      	movs	r0, #76	; 0x4c
 8002168:	0e1b      	lsrs	r3, r3, #24
 800216a:	542b      	strb	r3, [r5, r0]
 800216c:	2401      	movs	r4, #1
 800216e:	1c48      	adds	r0, r1, #1
 8002170:	428a      	cmp	r2, r1
 8002172:	dc00      	bgt.n	8002176 <common_mapMovingRightDownOffset+0x42>
 8002174:	2400      	movs	r4, #0
 8002176:	401c      	ands	r4, r3
 8002178:	4360      	muls	r0, r4
 800217a:	17cf      	asrs	r7, r1, #31
 800217c:	0fd4      	lsrs	r4, r2, #31
 800217e:	4291      	cmp	r1, r2
 8002180:	417c      	adcs	r4, r7
 8002182:	1c56      	adds	r6, r2, #1
 8002184:	4023      	ands	r3, r4
 8002186:	0031      	movs	r1, r6
 8002188:	4359      	muls	r1, r3
 800218a:	2307      	movs	r3, #7
 800218c:	8fea      	ldrh	r2, [r5, #62]	; 0x3e
 800218e:	1a12      	subs	r2, r2, r0
 8002190:	87ea      	strh	r2, [r5, #62]	; 0x3e
 8002192:	8faa      	ldrh	r2, [r5, #60]	; 0x3c
 8002194:	1a52      	subs	r2, r2, r1
 8002196:	87aa      	strh	r2, [r5, #60]	; 0x3c
 8002198:	6d2a      	ldr	r2, [r5, #80]	; 0x50
 800219a:	7814      	ldrb	r4, [r2, #0]
 800219c:	4023      	ands	r3, r4
 800219e:	2b01      	cmp	r3, #1
 80021a0:	d116      	bne.n	80021d0 <common_mapMovingRightDownOffset+0x9c>
 80021a2:	1e47      	subs	r7, r0, #1
 80021a4:	41b8      	sbcs	r0, r7
 80021a6:	78d6      	ldrb	r6, [r2, #3]
 80021a8:	09f4      	lsrs	r4, r6, #7
 80021aa:	4320      	orrs	r0, r4
 80021ac:	247f      	movs	r4, #127	; 0x7f
 80021ae:	01c0      	lsls	r0, r0, #7
 80021b0:	4034      	ands	r4, r6
 80021b2:	4320      	orrs	r0, r4
 80021b4:	70d0      	strb	r0, [r2, #3]
 80021b6:	6d2c      	ldr	r4, [r5, #80]	; 0x50
 80021b8:	1e4d      	subs	r5, r1, #1
 80021ba:	41a9      	sbcs	r1, r5
 80021bc:	78e2      	ldrb	r2, [r4, #3]
 80021be:	0690      	lsls	r0, r2, #26
 80021c0:	0fc0      	lsrs	r0, r0, #31
 80021c2:	4301      	orrs	r1, r0
 80021c4:	400b      	ands	r3, r1
 80021c6:	2120      	movs	r1, #32
 80021c8:	015b      	lsls	r3, r3, #5
 80021ca:	438a      	bics	r2, r1
 80021cc:	431a      	orrs	r2, r3
 80021ce:	70e2      	strb	r2, [r4, #3]
 80021d0:	bcf8      	pop	{r3, r4, r5, r6, r7}
 80021d2:	bc01      	pop	{r0}
 80021d4:	4700      	bx	r0
 80021d6:	46c0      	nop			; (mov r8, r8)

080021d8 <common_mapMovingLeftDownOffset>:
 80021d8:	b5f8      	push	{r3, r4, r5, r6, r7, lr}
 80021da:	000f      	movs	r7, r1
 80021dc:	0005      	movs	r5, r0
 80021de:	0011      	movs	r1, r2
 80021e0:	0038      	movs	r0, r7
 80021e2:	0016      	movs	r6, r2
 80021e4:	f7ff fafc 	bl	80017e0 <hasCollision>
 80021e8:	0039      	movs	r1, r7
 80021ea:	0004      	movs	r4, r0
 80021ec:	0030      	movs	r0, r6
 80021ee:	f7ff faf7 	bl	80017e0 <hasCollision>
 80021f2:	2104      	movs	r1, #4
 80021f4:	5e72      	ldrsh	r2, [r6, r1]
 80021f6:	4304      	orrs	r4, r0
 80021f8:	2000      	movs	r0, #0
 80021fa:	5e39      	ldrsh	r1, [r7, r0]
 80021fc:	0623      	lsls	r3, r4, #24
 80021fe:	1a52      	subs	r2, r2, r1
 8002200:	2006      	movs	r0, #6
 8002202:	5e39      	ldrsh	r1, [r7, r0]
 8002204:	2402      	movs	r4, #2
 8002206:	5f30      	ldrsh	r0, [r6, r4]
 8002208:	1a09      	subs	r1, r1, r0
 800220a:	204c      	movs	r0, #76	; 0x4c
 800220c:	0e1b      	lsrs	r3, r3, #24
 800220e:	542b      	strb	r3, [r5, r0]
 8002210:	2401      	movs	r4, #1
 8002212:	1c48      	adds	r0, r1, #1
 8002214:	428a      	cmp	r2, r1
 8002216:	dc00      	bgt.n	800221a <common_mapMovingLeftDownOffset+0x42>
 8002218:	2400      	movs	r4, #0
 800221a:	401c      	ands	r4, r3
 800221c:	4360      	muls	r0, r4
 800221e:	17cf      	asrs	r7, r1, #31
 8002220:	0fd4      	lsrs	r4, r2, #31
 8002222:	4291      	cmp	r1, r2
 8002224:	417c      	adcs	r4, r7
 8002226:	1c56      	adds	r6, r2, #1
 8002228:	4023      	ands	r3, r4
 800222a:	0031      	movs	r1, r6
 800222c:	4359      	muls	r1, r3
 800222e:	2307      	movs	r3, #7
 8002230:	8fea      	ldrh	r2, [r5, #62]	; 0x3e
 8002232:	1a12      	subs	r2, r2, r0
 8002234:	87ea      	strh	r2, [r5, #62]	; 0x3e
 8002236:	8faa      	ldrh	r2, [r5, #60]	; 0x3c
 8002238:	1852      	adds	r2, r2, r1
 800223a:	87aa      	strh	r2, [r5, #60]	; 0x3c
 800223c:	6d2a      	ldr	r2, [r5, #80]	; 0x50
 800223e:	7814      	ldrb	r4, [r2, #0]
 8002240:	4023      	ands	r3, r4
 8002242:	2b01      	cmp	r3, #1
 8002244:	d116      	bne.n	8002274 <common_mapMovingLeftDownOffset+0x9c>
 8002246:	1e47      	subs	r7, r0, #1
 8002248:	41b8      	sbcs	r0, r7
 800224a:	78d6      	ldrb	r6, [r2, #3]
 800224c:	09f4      	lsrs	r4, r6, #7
 800224e:	4320      	orrs	r0, r4
 8002250:	247f      	movs	r4, #127	; 0x7f
 8002252:	01c0      	lsls	r0, r0, #7
 8002254:	4034      	ands	r4, r6
 8002256:	4320      	orrs	r0, r4
 8002258:	70d0      	strb	r0, [r2, #3]
 800225a:	6d2c      	ldr	r4, [r5, #80]	; 0x50
 800225c:	1e4d      	subs	r5, r1, #1
 800225e:	41a9      	sbcs	r1, r5
 8002260:	78e2      	ldrb	r2, [r4, #3]
 8002262:	06d0      	lsls	r0, r2, #27
 8002264:	0fc0      	lsrs	r0, r0, #31
 8002266:	4301      	orrs	r1, r0
 8002268:	400b      	ands	r3, r1
 800226a:	2110      	movs	r1, #16
 800226c:	011b      	lsls	r3, r3, #4
 800226e:	438a      	bics	r2, r1
 8002270:	431a      	orrs	r2, r3
 8002272:	70e2      	strb	r2, [r4, #3]
 8002274:	bcf8      	pop	{r3, r4, r5, r6, r7}
 8002276:	bc01      	pop	{r0}
 8002278:	4700      	bx	r0
 800227a:	46c0      	nop			; (mov r8, r8)

0800227c <commonPositionInBounds>:
 800227c:	b570      	push	{r4, r5, r6, lr}
 800227e:	2200      	movs	r2, #0
 8002280:	5e83      	ldrsh	r3, [r0, r2]
 8002282:	2202      	movs	r2, #2
 8002284:	5e84      	ldrsh	r4, [r0, r2]
 8002286:	2000      	movs	r0, #0
 8002288:	5e0a      	ldrsh	r2, [r1, r0]
 800228a:	17d8      	asrs	r0, r3, #31
 800228c:	0fd5      	lsrs	r5, r2, #31
 800228e:	4293      	cmp	r3, r2
 8002290:	4168      	adcs	r0, r5
 8002292:	2204      	movs	r2, #4
 8002294:	5e8d      	ldrsh	r5, [r1, r2]
 8002296:	0fda      	lsrs	r2, r3, #31
 8002298:	17ee      	asrs	r6, r5, #31
 800229a:	429d      	cmp	r5, r3
 800229c:	4172      	adcs	r2, r6
 800229e:	4002      	ands	r2, r0
 80022a0:	2302      	movs	r3, #2
 80022a2:	5ec8      	ldrsh	r0, [r1, r3]
 80022a4:	17e3      	asrs	r3, r4, #31
 80022a6:	0fc5      	lsrs	r5, r0, #31
 80022a8:	4284      	cmp	r4, r0
 80022aa:	416b      	adcs	r3, r5
 80022ac:	4013      	ands	r3, r2
 80022ae:	2206      	movs	r2, #6
 80022b0:	5e8a      	ldrsh	r2, [r1, r2]
 80022b2:	0fe0      	lsrs	r0, r4, #31
 80022b4:	17d1      	asrs	r1, r2, #31
 80022b6:	42a2      	cmp	r2, r4
 80022b8:	4148      	adcs	r0, r1
 80022ba:	4018      	ands	r0, r3
 80022bc:	0600      	lsls	r0, r0, #24
 80022be:	0e00      	lsrs	r0, r0, #24
 80022c0:	bc70      	pop	{r4, r5, r6}
 80022c2:	bc02      	pop	{r1}
 80022c4:	4708      	bx	r1
 80022c6:	46c0      	nop			; (mov r8, r8)

080022c8 <commonGetBoundsFromMap>:
 80022c8:	b5f0      	push	{r4, r5, r6, r7, lr}
 80022ca:	69d5      	ldr	r5, [r2, #28]
 80022cc:	2d00      	cmp	r5, #0
 80022ce:	d035      	beq.n	800233c <commonGetBoundsFromMap+0x74>
 80022d0:	260f      	movs	r6, #15
 80022d2:	8814      	ldrh	r4, [r2, #0]
 80022d4:	110a      	asrs	r2, r1, #4
 80022d6:	0924      	lsrs	r4, r4, #4
 80022d8:	4362      	muls	r2, r4
 80022da:	1104      	asrs	r4, r0, #4
 80022dc:	1912      	adds	r2, r2, r4
 80022de:	0052      	lsls	r2, r2, #1
 80022e0:	18ad      	adds	r5, r5, r2
 80022e2:	0032      	movs	r2, r6
 80022e4:	786c      	ldrb	r4, [r5, #1]
 80022e6:	4022      	ands	r2, r4
 80022e8:	42a6      	cmp	r6, r4
 80022ea:	41a4      	sbcs	r4, r4
 80022ec:	1e57      	subs	r7, r2, #1
 80022ee:	41ba      	sbcs	r2, r7
 80022f0:	4264      	negs	r4, r4
 80022f2:	4014      	ands	r4, r2
 80022f4:	782a      	ldrb	r2, [r5, #0]
 80022f6:	0752      	lsls	r2, r2, #29
 80022f8:	0f52      	lsrs	r2, r2, #29
 80022fa:	43b0      	bics	r0, r6
 80022fc:	1880      	adds	r0, r0, r2
 80022fe:	4360      	muls	r0, r4
 8002300:	0400      	lsls	r0, r0, #16
 8002302:	0c00      	lsrs	r0, r0, #16
 8002304:	8018      	strh	r0, [r3, #0]
 8002306:	786a      	ldrb	r2, [r5, #1]
 8002308:	0712      	lsls	r2, r2, #28
 800230a:	0f12      	lsrs	r2, r2, #28
 800230c:	3201      	adds	r2, #1
 800230e:	4362      	muls	r2, r4
 8002310:	1880      	adds	r0, r0, r2
 8002312:	8098      	strh	r0, [r3, #4]
 8002314:	782a      	ldrb	r2, [r5, #0]
 8002316:	0692      	lsls	r2, r2, #26
 8002318:	0f52      	lsrs	r2, r2, #29
 800231a:	4362      	muls	r2, r4
 800231c:	43b1      	bics	r1, r6
 800231e:	1852      	adds	r2, r2, r1
 8002320:	0412      	lsls	r2, r2, #16
 8002322:	0c12      	lsrs	r2, r2, #16
 8002324:	805a      	strh	r2, [r3, #2]
 8002326:	7869      	ldrb	r1, [r5, #1]
 8002328:	0909      	lsrs	r1, r1, #4
 800232a:	3101      	adds	r1, #1
 800232c:	4361      	muls	r1, r4
 800232e:	1852      	adds	r2, r2, r1
 8002330:	0412      	lsls	r2, r2, #16
 8002332:	1412      	asrs	r2, r2, #16
 8002334:	80da      	strh	r2, [r3, #6]
 8002336:	bcf0      	pop	{r4, r5, r6, r7}
 8002338:	bc01      	pop	{r0}
 800233a:	4700      	bx	r0
 800233c:	2200      	movs	r2, #0
 800233e:	809d      	strh	r5, [r3, #4]
 8002340:	601d      	str	r5, [r3, #0]
 8002342:	e7f7      	b.n	8002334 <commonGetBoundsFromMap+0x6c>

08002344 <commonMovingRightDownMapCollision>:
 8002344:	b5f0      	push	{r4, r5, r6, r7, lr}
 8002346:	46c6      	mov	lr, r8
 8002348:	b500      	push	{lr}
 800234a:	b090      	sub	sp, #64	; 0x40
 800234c:	68c3      	ldr	r3, [r0, #12]
 800234e:	000f      	movs	r7, r1
 8002350:	0016      	movs	r6, r2
 8002352:	a901      	add	r1, sp, #4
 8002354:	aa02      	add	r2, sp, #8
 8002356:	0005      	movs	r5, r0
 8002358:	f000 fc86 	bl	8002c68 <commonIsFoundPosition+0x18>
 800235c:	466b      	mov	r3, sp
 800235e:	899b      	ldrh	r3, [r3, #12]
 8002360:	ac0a      	add	r4, sp, #40	; 0x28
 8002362:	8023      	strh	r3, [r4, #0]
 8002364:	466b      	mov	r3, sp
 8002366:	4669      	mov	r1, sp
 8002368:	895b      	ldrh	r3, [r3, #10]
 800236a:	8909      	ldrh	r1, [r1, #8]
 800236c:	8063      	strh	r3, [r4, #2]
 800236e:	2300      	movs	r3, #0
 8002370:	8121      	strh	r1, [r4, #8]
 8002372:	4669      	mov	r1, sp
 8002374:	80a3      	strh	r3, [r4, #4]
 8002376:	89c9      	ldrh	r1, [r1, #14]
 8002378:	81a3      	strh	r3, [r4, #12]
 800237a:	82a3      	strh	r3, [r4, #20]
 800237c:	ab10      	add	r3, sp, #64	; 0x40
 800237e:	4698      	mov	r8, r3
 8002380:	9a03      	ldr	r2, [sp, #12]
 8002382:	8161      	strh	r1, [r4, #10]
 8002384:	920e      	str	r2, [sp, #56]	; 0x38
 8002386:	2302      	movs	r3, #2
 8002388:	5ee1      	ldrsh	r1, [r4, r3]
 800238a:	2300      	movs	r3, #0
 800238c:	5ee0      	ldrsh	r0, [r4, r3]
 800238e:	003a      	movs	r2, r7
 8002390:	ab06      	add	r3, sp, #24
 8002392:	f7ff ff99 	bl	80022c8 <commonGetBoundsFromMap>
 8002396:	3408      	adds	r4, #8
 8002398:	0028      	movs	r0, r5
 800239a:	aa06      	add	r2, sp, #24
 800239c:	a902      	add	r1, sp, #8
 800239e:	f000 fc65 	bl	8002c6c <commonIsFoundPosition+0x1c>
 80023a2:	4544      	cmp	r4, r8
 80023a4:	d1ef      	bne.n	8002386 <commonMovingRightDownMapCollision+0x42>
 80023a6:	b010      	add	sp, #64	; 0x40
 80023a8:	bc80      	pop	{r7}
 80023aa:	46b8      	mov	r8, r7
 80023ac:	bcf0      	pop	{r4, r5, r6, r7}
 80023ae:	bc01      	pop	{r0}
 80023b0:	4700      	bx	r0
 80023b2:	46c0      	nop			; (mov r8, r8)

080023b4 <commonMovingUpMapCollision>:
 80023b4:	b5f0      	push	{r4, r5, r6, r7, lr}
 80023b6:	46c6      	mov	lr, r8
 80023b8:	b500      	push	{lr}
 80023ba:	b08a      	sub	sp, #40	; 0x28
 80023bc:	000e      	movs	r6, r1
 80023be:	0015      	movs	r5, r2
 80023c0:	68c3      	ldr	r3, [r0, #12]
 80023c2:	aa02      	add	r2, sp, #8
 80023c4:	a901      	add	r1, sp, #4
 80023c6:	0004      	movs	r4, r0
 80023c8:	f000 fc4e 	bl	8002c68 <commonIsFoundPosition+0x18>
 80023cc:	466b      	mov	r3, sp
 80023ce:	270a      	movs	r7, #10
 80023d0:	5fdf      	ldrsh	r7, [r3, r7]
 80023d2:	466b      	mov	r3, sp
 80023d4:	220c      	movs	r2, #12
 80023d6:	5e9b      	ldrsh	r3, [r3, r2]
 80023d8:	4698      	mov	r8, r3
 80023da:	466b      	mov	r3, sp
 80023dc:	0032      	movs	r2, r6
 80023de:	0039      	movs	r1, r7
 80023e0:	2008      	movs	r0, #8
 80023e2:	5e18      	ldrsh	r0, [r3, r0]
 80023e4:	ab06      	add	r3, sp, #24
 80023e6:	f7ff ff6f 	bl	80022c8 <commonGetBoundsFromMap>
 80023ea:	0020      	movs	r0, r4
 80023ec:	aa06      	add	r2, sp, #24
 80023ee:	a902      	add	r1, sp, #8
 80023f0:	f000 fc3b 	bl	8002c6a <commonIsFoundPosition+0x1a>
 80023f4:	0032      	movs	r2, r6
 80023f6:	0039      	movs	r1, r7
 80023f8:	4640      	mov	r0, r8
 80023fa:	ab06      	add	r3, sp, #24
 80023fc:	f7ff ff64 	bl	80022c8 <commonGetBoundsFromMap>
 8002400:	0020      	movs	r0, r4
 8002402:	aa06      	add	r2, sp, #24
 8002404:	a902      	add	r1, sp, #8
 8002406:	f000 fc30 	bl	8002c6a <commonIsFoundPosition+0x1a>
 800240a:	b00a      	add	sp, #40	; 0x28
 800240c:	bc80      	pop	{r7}
 800240e:	46b8      	mov	r8, r7
 8002410:	bcf0      	pop	{r4, r5, r6, r7}
 8002412:	bc01      	pop	{r0}
 8002414:	4700      	bx	r0
 8002416:	46c0      	nop			; (mov r8, r8)

08002418 <commonMovingDownMapCollision>:
 8002418:	b5f0      	push	{r4, r5, r6, r7, lr}
 800241a:	46c6      	mov	lr, r8
 800241c:	b500      	push	{lr}
 800241e:	b08a      	sub	sp, #40	; 0x28
 8002420:	000e      	movs	r6, r1
 8002422:	0015      	movs	r5, r2
 8002424:	68c3      	ldr	r3, [r0, #12]
 8002426:	aa02      	add	r2, sp, #8
 8002428:	a901      	add	r1, sp, #4
 800242a:	0004      	movs	r4, r0
 800242c:	f000 fc1c 	bl	8002c68 <commonIsFoundPosition+0x18>
 8002430:	466b      	mov	r3, sp
 8002432:	270e      	movs	r7, #14
 8002434:	5fdf      	ldrsh	r7, [r3, r7]
 8002436:	466b      	mov	r3, sp
 8002438:	220c      	movs	r2, #12
 800243a:	5e9b      	ldrsh	r3, [r3, r2]
 800243c:	4698      	mov	r8, r3
 800243e:	466b      	mov	r3, sp
 8002440:	0032      	movs	r2, r6
 8002442:	0039      	movs	r1, r7
 8002444:	2008      	movs	r0, #8
 8002446:	5e18      	ldrsh	r0, [r3, r0]
 8002448:	ab06      	add	r3, sp, #24
 800244a:	f7ff ff3d 	bl	80022c8 <commonGetBoundsFromMap>
 800244e:	0020      	movs	r0, r4
 8002450:	aa06      	add	r2, sp, #24
 8002452:	a902      	add	r1, sp, #8
 8002454:	f000 fc09 	bl	8002c6a <commonIsFoundPosition+0x1a>
 8002458:	0032      	movs	r2, r6
 800245a:	0039      	movs	r1, r7
 800245c:	4640      	mov	r0, r8
 800245e:	ab06      	add	r3, sp, #24
 8002460:	f7ff ff32 	bl	80022c8 <commonGetBoundsFromMap>
 8002464:	0020      	movs	r0, r4
 8002466:	aa06      	add	r2, sp, #24
 8002468:	a902      	add	r1, sp, #8
 800246a:	f000 fbfe 	bl	8002c6a <commonIsFoundPosition+0x1a>
 800246e:	b00a      	add	sp, #40	; 0x28
 8002470:	bc80      	pop	{r7}
 8002472:	46b8      	mov	r8, r7
 8002474:	bcf0      	pop	{r4, r5, r6, r7}
 8002476:	bc01      	pop	{r0}
 8002478:	4700      	bx	r0
 800247a:	46c0      	nop			; (mov r8, r8)

0800247c <commonMovingRightMapCollision>:
 800247c:	b5f0      	push	{r4, r5, r6, r7, lr}
 800247e:	46c6      	mov	lr, r8
 8002480:	b500      	push	{lr}
 8002482:	b08a      	sub	sp, #40	; 0x28
 8002484:	000e      	movs	r6, r1
 8002486:	0015      	movs	r5, r2
 8002488:	68c3      	ldr	r3, [r0, #12]
 800248a:	aa02      	add	r2, sp, #8
 800248c:	a901      	add	r1, sp, #4
 800248e:	0004      	movs	r4, r0
 8002490:	f000 fbea 	bl	8002c68 <commonIsFoundPosition+0x18>
 8002494:	466b      	mov	r3, sp
 8002496:	270c      	movs	r7, #12
 8002498:	5fdf      	ldrsh	r7, [r3, r7]
 800249a:	466b      	mov	r3, sp
 800249c:	220e      	movs	r2, #14
 800249e:	5e9b      	ldrsh	r3, [r3, r2]
 80024a0:	4698      	mov	r8, r3
 80024a2:	466b      	mov	r3, sp
 80024a4:	0032      	movs	r2, r6
 80024a6:	0038      	movs	r0, r7
 80024a8:	210a      	movs	r1, #10
 80024aa:	5e59      	ldrsh	r1, [r3, r1]
 80024ac:	ab06      	add	r3, sp, #24
 80024ae:	f7ff ff0b 	bl	80022c8 <commonGetBoundsFromMap>
 80024b2:	0020      	movs	r0, r4
 80024b4:	aa06      	add	r2, sp, #24
 80024b6:	a902      	add	r1, sp, #8
 80024b8:	f000 fbd7 	bl	8002c6a <commonIsFoundPosition+0x1a>
 80024bc:	0032      	movs	r2, r6
 80024be:	4641      	mov	r1, r8
 80024c0:	0038      	movs	r0, r7
 80024c2:	ab06      	add	r3, sp, #24
 80024c4:	f7ff ff00 	bl	80022c8 <commonGetBoundsFromMap>
 80024c8:	0020      	movs	r0, r4
 80024ca:	aa06      	add	r2, sp, #24
 80024cc:	a902      	add	r1, sp, #8
 80024ce:	f000 fbcc 	bl	8002c6a <commonIsFoundPosition+0x1a>
 80024d2:	b00a      	add	sp, #40	; 0x28
 80024d4:	bc80      	pop	{r7}
 80024d6:	46b8      	mov	r8, r7
 80024d8:	bcf0      	pop	{r4, r5, r6, r7}
 80024da:	bc01      	pop	{r0}
 80024dc:	4700      	bx	r0
 80024de:	46c0      	nop			; (mov r8, r8)

080024e0 <commonMovingLeftMapCollision>:
 80024e0:	b5f0      	push	{r4, r5, r6, r7, lr}
 80024e2:	46c6      	mov	lr, r8
 80024e4:	b500      	push	{lr}
 80024e6:	b08a      	sub	sp, #40	; 0x28
 80024e8:	000e      	movs	r6, r1
 80024ea:	0015      	movs	r5, r2
 80024ec:	68c3      	ldr	r3, [r0, #12]
 80024ee:	aa02      	add	r2, sp, #8
 80024f0:	a901      	add	r1, sp, #4
 80024f2:	0004      	movs	r4, r0
 80024f4:	f000 fbb8 	bl	8002c68 <commonIsFoundPosition+0x18>
 80024f8:	466b      	mov	r3, sp
 80024fa:	2708      	movs	r7, #8
 80024fc:	5fdf      	ldrsh	r7, [r3, r7]
 80024fe:	466b      	mov	r3, sp
 8002500:	220e      	movs	r2, #14
 8002502:	5e9b      	ldrsh	r3, [r3, r2]
 8002504:	4698      	mov	r8, r3
 8002506:	466b      	mov	r3, sp
 8002508:	0032      	movs	r2, r6
 800250a:	0038      	movs	r0, r7
 800250c:	210a      	movs	r1, #10
 800250e:	5e59      	ldrsh	r1, [r3, r1]
 8002510:	ab06      	add	r3, sp, #24
 8002512:	f7ff fed9 	bl	80022c8 <commonGetBoundsFromMap>
 8002516:	0020      	movs	r0, r4
 8002518:	aa06      	add	r2, sp, #24
 800251a:	a902      	add	r1, sp, #8
 800251c:	f000 fba5 	bl	8002c6a <commonIsFoundPosition+0x1a>
 8002520:	0032      	movs	r2, r6
 8002522:	4641      	mov	r1, r8
 8002524:	0038      	movs	r0, r7
 8002526:	ab06      	add	r3, sp, #24
 8002528:	f7ff fece 	bl	80022c8 <commonGetBoundsFromMap>
 800252c:	0020      	movs	r0, r4
 800252e:	aa06      	add	r2, sp, #24
 8002530:	a902      	add	r1, sp, #8
 8002532:	f000 fb9a 	bl	8002c6a <commonIsFoundPosition+0x1a>
 8002536:	b00a      	add	sp, #40	; 0x28
 8002538:	bc80      	pop	{r7}
 800253a:	46b8      	mov	r8, r7
 800253c:	bcf0      	pop	{r4, r5, r6, r7}
 800253e:	bc01      	pop	{r0}
 8002540:	4700      	bx	r0
 8002542:	46c0      	nop			; (mov r8, r8)

08002544 <commonMovingLeftUpMapCollision>:
 8002544:	b5f0      	push	{r4, r5, r6, r7, lr}
 8002546:	46c6      	mov	lr, r8
 8002548:	b500      	push	{lr}
 800254a:	b090      	sub	sp, #64	; 0x40
 800254c:	68c3      	ldr	r3, [r0, #12]
 800254e:	000f      	movs	r7, r1
 8002550:	0016      	movs	r6, r2
 8002552:	a901      	add	r1, sp, #4
 8002554:	aa02      	add	r2, sp, #8
 8002556:	0005      	movs	r5, r0
 8002558:	f000 fb86 	bl	8002c68 <commonIsFoundPosition+0x18>
 800255c:	466b      	mov	r3, sp
 800255e:	891b      	ldrh	r3, [r3, #8]
 8002560:	ac0a      	add	r4, sp, #40	; 0x28
 8002562:	8023      	strh	r3, [r4, #0]
 8002564:	466b      	mov	r3, sp
 8002566:	89db      	ldrh	r3, [r3, #14]
 8002568:	8063      	strh	r3, [r4, #2]
 800256a:	2300      	movs	r3, #0
 800256c:	4669      	mov	r1, sp
 800256e:	80a3      	strh	r3, [r4, #4]
 8002570:	8989      	ldrh	r1, [r1, #12]
 8002572:	8121      	strh	r1, [r4, #8]
 8002574:	4669      	mov	r1, sp
 8002576:	8949      	ldrh	r1, [r1, #10]
 8002578:	81a3      	strh	r3, [r4, #12]
 800257a:	82a3      	strh	r3, [r4, #20]
 800257c:	ab10      	add	r3, sp, #64	; 0x40
 800257e:	4698      	mov	r8, r3
 8002580:	9a02      	ldr	r2, [sp, #8]
 8002582:	8161      	strh	r1, [r4, #10]
 8002584:	920e      	str	r2, [sp, #56]	; 0x38
 8002586:	2302      	movs	r3, #2
 8002588:	5ee1      	ldrsh	r1, [r4, r3]
 800258a:	2300      	movs	r3, #0
 800258c:	5ee0      	ldrsh	r0, [r4, r3]
 800258e:	003a      	movs	r2, r7
 8002590:	ab06      	add	r3, sp, #24
 8002592:	f7ff fe99 	bl	80022c8 <commonGetBoundsFromMap>
 8002596:	3408      	adds	r4, #8
 8002598:	0028      	movs	r0, r5
 800259a:	aa06      	add	r2, sp, #24
 800259c:	a902      	add	r1, sp, #8
 800259e:	f000 fb65 	bl	8002c6c <commonIsFoundPosition+0x1c>
 80025a2:	4544      	cmp	r4, r8
 80025a4:	d1ef      	bne.n	8002586 <commonMovingLeftUpMapCollision+0x42>
 80025a6:	b010      	add	sp, #64	; 0x40
 80025a8:	bc80      	pop	{r7}
 80025aa:	46b8      	mov	r8, r7
 80025ac:	bcf0      	pop	{r4, r5, r6, r7}
 80025ae:	bc01      	pop	{r0}
 80025b0:	4700      	bx	r0
 80025b2:	46c0      	nop			; (mov r8, r8)

080025b4 <commonMovingLeftDownMapCollision>:
 80025b4:	b5f0      	push	{r4, r5, r6, r7, lr}
 80025b6:	46c6      	mov	lr, r8
 80025b8:	b500      	push	{lr}
 80025ba:	b090      	sub	sp, #64	; 0x40
 80025bc:	68c3      	ldr	r3, [r0, #12]
 80025be:	000f      	movs	r7, r1
 80025c0:	0016      	movs	r6, r2
 80025c2:	a901      	add	r1, sp, #4
 80025c4:	aa02      	add	r2, sp, #8
 80025c6:	0005      	movs	r5, r0
 80025c8:	f000 fb4e 	bl	8002c68 <commonIsFoundPosition+0x18>
 80025cc:	466b      	mov	r3, sp
 80025ce:	2108      	movs	r1, #8
 80025d0:	5e59      	ldrsh	r1, [r3, r1]
 80025d2:	9b02      	ldr	r3, [sp, #8]
 80025d4:	930a      	str	r3, [sp, #40]	; 0x28
 80025d6:	2300      	movs	r3, #0
 80025d8:	466a      	mov	r2, sp
 80025da:	ac0a      	add	r4, sp, #40	; 0x28
 80025dc:	80a3      	strh	r3, [r4, #4]
 80025de:	200e      	movs	r0, #14
 80025e0:	5e12      	ldrsh	r2, [r2, r0]
 80025e2:	81a3      	strh	r3, [r4, #12]
 80025e4:	82a3      	strh	r3, [r4, #20]
 80025e6:	ab10      	add	r3, sp, #64	; 0x40
 80025e8:	4698      	mov	r8, r3
 80025ea:	9803      	ldr	r0, [sp, #12]
 80025ec:	8221      	strh	r1, [r4, #16]
 80025ee:	900c      	str	r0, [sp, #48]	; 0x30
 80025f0:	8262      	strh	r2, [r4, #18]
 80025f2:	2302      	movs	r3, #2
 80025f4:	5ee1      	ldrsh	r1, [r4, r3]
 80025f6:	2300      	movs	r3, #0
 80025f8:	5ee0      	ldrsh	r0, [r4, r3]
 80025fa:	003a      	movs	r2, r7
 80025fc:	ab06      	add	r3, sp, #24
 80025fe:	f7ff fe63 	bl	80022c8 <commonGetBoundsFromMap>
 8002602:	3408      	adds	r4, #8
 8002604:	0028      	movs	r0, r5
 8002606:	aa06      	add	r2, sp, #24
 8002608:	a902      	add	r1, sp, #8
 800260a:	f000 fb2f 	bl	8002c6c <commonIsFoundPosition+0x1c>
 800260e:	4544      	cmp	r4, r8
 8002610:	d1ef      	bne.n	80025f2 <commonMovingLeftDownMapCollision+0x3e>
 8002612:	b010      	add	sp, #64	; 0x40
 8002614:	bc80      	pop	{r7}
 8002616:	46b8      	mov	r8, r7
 8002618:	bcf0      	pop	{r4, r5, r6, r7}
 800261a:	bc01      	pop	{r0}
 800261c:	4700      	bx	r0
 800261e:	46c0      	nop			; (mov r8, r8)

08002620 <commonMovingRightUpMapCollision>:
 8002620:	b5f0      	push	{r4, r5, r6, r7, lr}
 8002622:	46c6      	mov	lr, r8
 8002624:	b500      	push	{lr}
 8002626:	b090      	sub	sp, #64	; 0x40
 8002628:	68c3      	ldr	r3, [r0, #12]
 800262a:	000f      	movs	r7, r1
 800262c:	0016      	movs	r6, r2
 800262e:	a901      	add	r1, sp, #4
 8002630:	aa02      	add	r2, sp, #8
 8002632:	0005      	movs	r5, r0
 8002634:	f000 fb18 	bl	8002c68 <commonIsFoundPosition+0x18>
 8002638:	466b      	mov	r3, sp
 800263a:	210c      	movs	r1, #12
 800263c:	5e59      	ldrsh	r1, [r3, r1]
 800263e:	9b03      	ldr	r3, [sp, #12]
 8002640:	930a      	str	r3, [sp, #40]	; 0x28
 8002642:	2300      	movs	r3, #0
 8002644:	466a      	mov	r2, sp
 8002646:	ac0a      	add	r4, sp, #40	; 0x28
 8002648:	80a3      	strh	r3, [r4, #4]
 800264a:	200a      	movs	r0, #10
 800264c:	5e12      	ldrsh	r2, [r2, r0]
 800264e:	81a3      	strh	r3, [r4, #12]
 8002650:	82a3      	strh	r3, [r4, #20]
 8002652:	ab10      	add	r3, sp, #64	; 0x40
 8002654:	4698      	mov	r8, r3
 8002656:	9802      	ldr	r0, [sp, #8]
 8002658:	8221      	strh	r1, [r4, #16]
 800265a:	900c      	str	r0, [sp, #48]	; 0x30
 800265c:	8262      	strh	r2, [r4, #18]
 800265e:	2302      	movs	r3, #2
 8002660:	5ee1      	ldrsh	r1, [r4, r3]
 8002662:	2300      	movs	r3, #0
 8002664:	5ee0      	ldrsh	r0, [r4, r3]
 8002666:	003a      	movs	r2, r7
 8002668:	ab06      	add	r3, sp, #24
 800266a:	f7ff fe2d 	bl	80022c8 <commonGetBoundsFromMap>
 800266e:	3408      	adds	r4, #8
 8002670:	0028      	movs	r0, r5
 8002672:	aa06      	add	r2, sp, #24
 8002674:	a902      	add	r1, sp, #8
 8002676:	f000 faf9 	bl	8002c6c <commonIsFoundPosition+0x1c>
 800267a:	4544      	cmp	r4, r8
 800267c:	d1ef      	bne.n	800265e <commonMovingRightUpMapCollision+0x3e>
 800267e:	b010      	add	sp, #64	; 0x40
 8002680:	bc80      	pop	{r7}
 8002682:	46b8      	mov	r8, r7
 8002684:	bcf0      	pop	{r4, r5, r6, r7}
 8002686:	bc01      	pop	{r0}
 8002688:	4700      	bx	r0
 800268a:	46c0      	nop			; (mov r8, r8)

0800268c <commonSetCharacterEvent>:
 800268c:	b510      	push	{r4, lr}
 800268e:	2407      	movs	r4, #7
 8002690:	6d03      	ldr	r3, [r0, #80]	; 0x50
 8002692:	7808      	ldrb	r0, [r1, #0]
 8002694:	781a      	ldrb	r2, [r3, #0]
 8002696:	4020      	ands	r0, r4
 8002698:	43a2      	bics	r2, r4
 800269a:	4302      	orrs	r2, r0
 800269c:	203f      	movs	r0, #63	; 0x3f
 800269e:	701a      	strb	r2, [r3, #0]
 80026a0:	785a      	ldrb	r2, [r3, #1]
 80026a2:	784c      	ldrb	r4, [r1, #1]
 80026a4:	4382      	bics	r2, r0
 80026a6:	4004      	ands	r4, r0
 80026a8:	4322      	orrs	r2, r4
 80026aa:	705a      	strb	r2, [r3, #1]
 80026ac:	680a      	ldr	r2, [r1, #0]
 80026ae:	0b92      	lsrs	r2, r2, #14
 80026b0:	4c0c      	ldr	r4, [pc, #48]	; (80026e4 <commonSetCharacterEvent+0x58>)
 80026b2:	4002      	ands	r2, r0
 80026b4:	6818      	ldr	r0, [r3, #0]
 80026b6:	0392      	lsls	r2, r2, #14
 80026b8:	4020      	ands	r0, r4
 80026ba:	4302      	orrs	r2, r0
 80026bc:	200f      	movs	r0, #15
 80026be:	601a      	str	r2, [r3, #0]
 80026c0:	884a      	ldrh	r2, [r1, #2]
 80026c2:	885c      	ldrh	r4, [r3, #2]
 80026c4:	0592      	lsls	r2, r2, #22
 80026c6:	0e92      	lsrs	r2, r2, #26
 80026c8:	4020      	ands	r0, r4
 80026ca:	0112      	lsls	r2, r2, #4
 80026cc:	4302      	orrs	r2, r0
 80026ce:	805a      	strh	r2, [r3, #2]
 80026d0:	688a      	ldr	r2, [r1, #8]
 80026d2:	609a      	str	r2, [r3, #8]
 80026d4:	2201      	movs	r2, #1
 80026d6:	731a      	strb	r2, [r3, #12]
 80026d8:	690a      	ldr	r2, [r1, #16]
 80026da:	611a      	str	r2, [r3, #16]
 80026dc:	bc10      	pop	{r4}
 80026de:	bc01      	pop	{r0}
 80026e0:	4700      	bx	r0
 80026e2:	46c0      	nop			; (mov r8, r8)
 80026e4:	fff03fff 	.word	0xfff03fff

080026e8 <commonTriggerCharacterEvent>:
 80026e8:	b5f0      	push	{r4, r5, r6, r7, lr}
 80026ea:	46de      	mov	lr, fp
 80026ec:	464e      	mov	r6, r9
 80026ee:	4645      	mov	r5, r8
 80026f0:	4657      	mov	r7, sl
 80026f2:	4682      	mov	sl, r0
 80026f4:	b5e0      	push	{r5, r6, r7, lr}
 80026f6:	2101      	movs	r1, #1
 80026f8:	b08f      	sub	sp, #60	; 0x3c
 80026fa:	0010      	movs	r0, r2
 80026fc:	4693      	mov	fp, r2
 80026fe:	f003 f983 	bl	8005a08 <mchar_findCharacterType>
 8002702:	4653      	mov	r3, sl
 8002704:	6d1a      	ldr	r2, [r3, #80]	; 0x50
 8002706:	8f9c      	ldrh	r4, [r3, #60]	; 0x3c
 8002708:	7853      	ldrb	r3, [r2, #1]
 800270a:	069b      	lsls	r3, r3, #26
 800270c:	0e9b      	lsrs	r3, r3, #26
 800270e:	1ae1      	subs	r1, r4, r3
 8002710:	18e4      	adds	r4, r4, r3
 8002712:	4653      	mov	r3, sl
 8002714:	0409      	lsls	r1, r1, #16
 8002716:	0424      	lsls	r4, r4, #16
 8002718:	1409      	asrs	r1, r1, #16
 800271a:	ad04      	add	r5, sp, #16
 800271c:	1424      	asrs	r4, r4, #16
 800271e:	8129      	strh	r1, [r5, #8]
 8002720:	81ac      	strh	r4, [r5, #12]
 8002722:	8fdd      	ldrh	r5, [r3, #62]	; 0x3e
 8002724:	6813      	ldr	r3, [r2, #0]
 8002726:	031b      	lsls	r3, r3, #12
 8002728:	0e9b      	lsrs	r3, r3, #26
 800272a:	4688      	mov	r8, r1
 800272c:	1ae9      	subs	r1, r5, r3
 800272e:	18ed      	adds	r5, r5, r3
 8002730:	0409      	lsls	r1, r1, #16
 8002732:	042d      	lsls	r5, r5, #16
 8002734:	1409      	asrs	r1, r1, #16
 8002736:	ae04      	add	r6, sp, #16
 8002738:	142d      	asrs	r5, r5, #16
 800273a:	4689      	mov	r9, r1
 800273c:	8171      	strh	r1, [r6, #10]
 800273e:	81f5      	strh	r5, [r6, #14]
 8002740:	2800      	cmp	r0, #0
 8002742:	d002      	beq.n	800274a <commonTriggerCharacterEvent+0x62>
 8002744:	0003      	movs	r3, r0
 8002746:	333c      	adds	r3, #60	; 0x3c
 8002748:	6053      	str	r3, [r2, #4]
 800274a:	ae0a      	add	r6, sp, #40	; 0x28
 800274c:	68c3      	ldr	r3, [r0, #12]
 800274e:	0032      	movs	r2, r6
 8002750:	a905      	add	r1, sp, #20
 8002752:	f000 fa89 	bl	8002c68 <commonIsFoundPosition+0x18>
 8002756:	2302      	movs	r3, #2
 8002758:	5ef2      	ldrsh	r2, [r6, r3]
 800275a:	2304      	movs	r3, #4
 800275c:	5ef1      	ldrsh	r1, [r6, r3]
 800275e:	9202      	str	r2, [sp, #8]
 8002760:	2306      	movs	r3, #6
 8002762:	5ef7      	ldrsh	r7, [r6, r3]
 8002764:	2300      	movs	r3, #0
 8002766:	5ef0      	ldrsh	r0, [r6, r3]
 8002768:	4643      	mov	r3, r8
 800276a:	9703      	str	r7, [sp, #12]
 800276c:	4647      	mov	r7, r8
 800276e:	0fc2      	lsrs	r2, r0, #31
 8002770:	17db      	asrs	r3, r3, #31
 8002772:	9201      	str	r2, [sp, #4]
 8002774:	4287      	cmp	r7, r0
 8002776:	415a      	adcs	r2, r3
 8002778:	4694      	mov	ip, r2
 800277a:	0ffb      	lsrs	r3, r7, #31
 800277c:	17ca      	asrs	r2, r1, #31
 800277e:	42b9      	cmp	r1, r7
 8002780:	4153      	adcs	r3, r2
 8002782:	4667      	mov	r7, ip
 8002784:	403b      	ands	r3, r7
 8002786:	4698      	mov	r8, r3
 8002788:	17e3      	asrs	r3, r4, #31
 800278a:	469c      	mov	ip, r3
 800278c:	4667      	mov	r7, ip
 800278e:	9b01      	ldr	r3, [sp, #4]
 8002790:	4284      	cmp	r4, r0
 8002792:	417b      	adcs	r3, r7
 8002794:	0018      	movs	r0, r3
 8002796:	0fe3      	lsrs	r3, r4, #31
 8002798:	42a1      	cmp	r1, r4
 800279a:	415a      	adcs	r2, r3
 800279c:	4643      	mov	r3, r8
 800279e:	4002      	ands	r2, r0
 80027a0:	4313      	orrs	r3, r2
 80027a2:	061b      	lsls	r3, r3, #24
 80027a4:	d030      	beq.n	8002808 <commonTriggerCharacterEvent+0x120>
 80027a6:	464b      	mov	r3, r9
 80027a8:	9a02      	ldr	r2, [sp, #8]
 80027aa:	17dc      	asrs	r4, r3, #31
 80027ac:	0fd0      	lsrs	r0, r2, #31
 80027ae:	4293      	cmp	r3, r2
 80027b0:	4144      	adcs	r4, r0
 80027b2:	46a4      	mov	ip, r4
 80027b4:	464c      	mov	r4, r9
 80027b6:	9f03      	ldr	r7, [sp, #12]
 80027b8:	0fdb      	lsrs	r3, r3, #31
 80027ba:	17f9      	asrs	r1, r7, #31
 80027bc:	42a7      	cmp	r7, r4
 80027be:	414b      	adcs	r3, r1
 80027c0:	4664      	mov	r4, ip
 80027c2:	401c      	ands	r4, r3
 80027c4:	17eb      	asrs	r3, r5, #31
 80027c6:	4295      	cmp	r5, r2
 80027c8:	4158      	adcs	r0, r3
 80027ca:	0feb      	lsrs	r3, r5, #31
 80027cc:	42af      	cmp	r7, r5
 80027ce:	414b      	adcs	r3, r1
 80027d0:	4003      	ands	r3, r0
 80027d2:	4323      	orrs	r3, r4
 80027d4:	061b      	lsls	r3, r3, #24
 80027d6:	d017      	beq.n	8002808 <commonTriggerCharacterEvent+0x120>
 80027d8:	4652      	mov	r2, sl
 80027da:	4b0f      	ldr	r3, [pc, #60]	; (8002818 <commonTriggerCharacterEvent+0x130>)
 80027dc:	6013      	str	r3, [r2, #0]
 80027de:	465b      	mov	r3, fp
 80027e0:	465a      	mov	r2, fp
 80027e2:	4651      	mov	r1, sl
 80027e4:	789b      	ldrb	r3, [r3, #2]
 80027e6:	6892      	ldr	r2, [r2, #8]
 80027e8:	009b      	lsls	r3, r3, #2
 80027ea:	5099      	str	r1, [r3, r2]
 80027ec:	465b      	mov	r3, fp
 80027ee:	465a      	mov	r2, fp
 80027f0:	789b      	ldrb	r3, [r3, #2]
 80027f2:	3301      	adds	r3, #1
 80027f4:	7093      	strb	r3, [r2, #2]
 80027f6:	b00f      	add	sp, #60	; 0x3c
 80027f8:	bcf0      	pop	{r4, r5, r6, r7}
 80027fa:	46bb      	mov	fp, r7
 80027fc:	46b2      	mov	sl, r6
 80027fe:	46a9      	mov	r9, r5
 8002800:	46a0      	mov	r8, r4
 8002802:	bcf0      	pop	{r4, r5, r6, r7}
 8002804:	bc01      	pop	{r0}
 8002806:	4700      	bx	r0
 8002808:	0030      	movs	r0, r6
 800280a:	a906      	add	r1, sp, #24
 800280c:	f7fe ffe8 	bl	80017e0 <hasCollision>
 8002810:	2800      	cmp	r0, #0
 8002812:	d0f0      	beq.n	80027f6 <commonTriggerCharacterEvent+0x10e>
 8002814:	e7e0      	b.n	80027d8 <commonTriggerCharacterEvent+0xf0>
 8002816:	46c0      	nop			; (mov r8, r8)
 8002818:	08001111 	.word	0x08001111

0800281c <commonDoActionOneCycle>:
 800281c:	b5f0      	push	{r4, r5, r6, r7, lr}
 800281e:	2502      	movs	r5, #2
 8002820:	6d04      	ldr	r4, [r0, #80]	; 0x50
 8002822:	78e1      	ldrb	r1, [r4, #3]
 8002824:	6923      	ldr	r3, [r4, #16]
 8002826:	0889      	lsrs	r1, r1, #2
 8002828:	0089      	lsls	r1, r1, #2
 800282a:	185b      	adds	r3, r3, r1
 800282c:	78de      	ldrb	r6, [r3, #3]
 800282e:	575d      	ldrsb	r5, [r3, r5]
 8002830:	885b      	ldrh	r3, [r3, #2]
 8002832:	0219      	lsls	r1, r3, #8
 8002834:	0a1b      	lsrs	r3, r3, #8
 8002836:	430b      	orrs	r3, r1
 8002838:	86c3      	strh	r3, [r0, #54]	; 0x36
 800283a:	2335      	movs	r3, #53	; 0x35
 800283c:	5cc3      	ldrb	r3, [r0, r3]
 800283e:	69c1      	ldr	r1, [r0, #28]
 8002840:	071b      	lsls	r3, r3, #28
 8002842:	684f      	ldr	r7, [r1, #4]
 8002844:	171b      	asrs	r3, r3, #28
 8002846:	429d      	cmp	r5, r3
 8002848:	d103      	bne.n	8002852 <commonDoActionOneCycle+0x36>
 800284a:	2334      	movs	r3, #52	; 0x34
 800284c:	5cc3      	ldrb	r3, [r0, r3]
 800284e:	42b3      	cmp	r3, r6
 8002850:	d002      	beq.n	8002858 <commonDoActionOneCycle+0x3c>
 8002852:	bcf0      	pop	{r4, r5, r6, r7}
 8002854:	bc01      	pop	{r0}
 8002856:	4700      	bx	r0
 8002858:	2323      	movs	r3, #35	; 0x23
 800285a:	2522      	movs	r5, #34	; 0x22
 800285c:	5cc3      	ldrb	r3, [r0, r3]
 800285e:	6809      	ldr	r1, [r1, #0]
 8002860:	065b      	lsls	r3, r3, #25
 8002862:	0e5e      	lsrs	r6, r3, #25
 8002864:	0d9b      	lsrs	r3, r3, #22
 8002866:	5d45      	ldrb	r5, [r0, r5]
 8002868:	18cb      	adds	r3, r1, r3
 800286a:	889b      	ldrh	r3, [r3, #4]
 800286c:	3501      	adds	r5, #1
 800286e:	429d      	cmp	r5, r3
 8002870:	dbef      	blt.n	8002852 <commonDoActionOneCycle+0x36>
 8002872:	3601      	adds	r6, #1
 8002874:	42b7      	cmp	r7, r6
 8002876:	dcec      	bgt.n	8002852 <commonDoActionOneCycle+0x36>
 8002878:	213f      	movs	r1, #63	; 0x3f
 800287a:	78e5      	ldrb	r5, [r4, #3]
 800287c:	08ab      	lsrs	r3, r5, #2
 800287e:	3301      	adds	r3, #1
 8002880:	4019      	ands	r1, r3
 8002882:	2303      	movs	r3, #3
 8002884:	008e      	lsls	r6, r1, #2
 8002886:	402b      	ands	r3, r5
 8002888:	4333      	orrs	r3, r6
 800288a:	70e3      	strb	r3, [r4, #3]
 800288c:	8863      	ldrh	r3, [r4, #2]
 800288e:	059b      	lsls	r3, r3, #22
 8002890:	0e9b      	lsrs	r3, r3, #26
 8002892:	428b      	cmp	r3, r1
 8002894:	d8dd      	bhi.n	8002852 <commonDoActionOneCycle+0x36>
 8002896:	68a3      	ldr	r3, [r4, #8]
 8002898:	6003      	str	r3, [r0, #0]
 800289a:	230f      	movs	r3, #15
 800289c:	8861      	ldrh	r1, [r4, #2]
 800289e:	400b      	ands	r3, r1
 80028a0:	2100      	movs	r1, #0
 80028a2:	8063      	strh	r3, [r4, #2]
 80028a4:	7893      	ldrb	r3, [r2, #2]
 80028a6:	3b01      	subs	r3, #1
 80028a8:	061b      	lsls	r3, r3, #24
 80028aa:	0e1b      	lsrs	r3, r3, #24
 80028ac:	7093      	strb	r3, [r2, #2]
 80028ae:	6892      	ldr	r2, [r2, #8]
 80028b0:	009b      	lsls	r3, r3, #2
 80028b2:	5099      	str	r1, [r3, r2]
 80028b4:	e7cd      	b.n	8002852 <commonDoActionOneCycle+0x36>
 80028b6:	46c0      	nop			; (mov r8, r8)

080028b8 <commonDoActionByFrames>:
 80028b8:	4770      	bx	lr
 80028ba:	46c0      	nop			; (mov r8, r8)

080028bc <transferToBoundingBox>:
 80028bc:	8803      	ldrh	r3, [r0, #0]
 80028be:	800b      	strh	r3, [r1, #0]
 80028c0:	8843      	ldrh	r3, [r0, #2]
 80028c2:	804b      	strh	r3, [r1, #2]
 80028c4:	7b03      	ldrb	r3, [r0, #12]
 80028c6:	8802      	ldrh	r2, [r0, #0]
 80028c8:	069b      	lsls	r3, r3, #26
 80028ca:	0e9b      	lsrs	r3, r3, #26
 80028cc:	189b      	adds	r3, r3, r2
 80028ce:	808b      	strh	r3, [r1, #4]
 80028d0:	8983      	ldrh	r3, [r0, #12]
 80028d2:	8842      	ldrh	r2, [r0, #2]
 80028d4:	051b      	lsls	r3, r3, #20
 80028d6:	0e9b      	lsrs	r3, r3, #26
 80028d8:	189b      	adds	r3, r3, r2
 80028da:	80cb      	strh	r3, [r1, #6]
 80028dc:	4770      	bx	lr
 80028de:	46c0      	nop			; (mov r8, r8)

080028e0 <commonCheckForEvents>:
 80028e0:	b5f0      	push	{r4, r5, r6, r7, lr}
 80028e2:	46de      	mov	lr, fp
 80028e4:	4645      	mov	r5, r8
 80028e6:	4657      	mov	r7, sl
 80028e8:	464e      	mov	r6, r9
 80028ea:	2300      	movs	r3, #0
 80028ec:	b5e0      	push	{r5, r6, r7, lr}
 80028ee:	000d      	movs	r5, r1
 80028f0:	b093      	sub	sp, #76	; 0x4c
 80028f2:	ac0e      	add	r4, sp, #56	; 0x38
 80028f4:	0022      	movs	r2, r4
 80028f6:	930d      	str	r3, [sp, #52]	; 0x34
 80028f8:	a90d      	add	r1, sp, #52	; 0x34
 80028fa:	68c3      	ldr	r3, [r0, #12]
 80028fc:	f000 f9b4 	bl	8002c68 <commonIsFoundPosition+0x18>
 8002900:	79ab      	ldrb	r3, [r5, #6]
 8002902:	069b      	lsls	r3, r3, #26
 8002904:	0e9a      	lsrs	r2, r3, #26
 8002906:	9205      	str	r2, [sp, #20]
 8002908:	2b00      	cmp	r3, #0
 800290a:	d078      	beq.n	80029fe <commonCheckForEvents+0x11e>
 800290c:	2200      	movs	r2, #0
 800290e:	5ea3      	ldrsh	r3, [r4, r2]
 8002910:	4699      	mov	r9, r3
 8002912:	2204      	movs	r2, #4
 8002914:	5ea3      	ldrsh	r3, [r4, r2]
 8002916:	4698      	mov	r8, r3
 8002918:	2202      	movs	r2, #2
 800291a:	5ea3      	ldrsh	r3, [r4, r2]
 800291c:	469b      	mov	fp, r3
 800291e:	2206      	movs	r2, #6
 8002920:	5ea3      	ldrsh	r3, [r4, r2]
 8002922:	464a      	mov	r2, r9
 8002924:	17d2      	asrs	r2, r2, #31
 8002926:	9204      	str	r2, [sp, #16]
 8002928:	464a      	mov	r2, r9
 800292a:	0fd2      	lsrs	r2, r2, #31
 800292c:	9201      	str	r2, [sp, #4]
 800292e:	4642      	mov	r2, r8
 8002930:	17d2      	asrs	r2, r2, #31
 8002932:	9202      	str	r2, [sp, #8]
 8002934:	4642      	mov	r2, r8
 8002936:	0fd2      	lsrs	r2, r2, #31
 8002938:	9203      	str	r2, [sp, #12]
 800293a:	465a      	mov	r2, fp
 800293c:	17d2      	asrs	r2, r2, #31
 800293e:	9207      	str	r2, [sp, #28]
 8002940:	465a      	mov	r2, fp
 8002942:	2700      	movs	r7, #0
 8002944:	0fd2      	lsrs	r2, r2, #31
 8002946:	9306      	str	r3, [sp, #24]
 8002948:	9208      	str	r2, [sp, #32]
 800294a:	17da      	asrs	r2, r3, #31
 800294c:	0fdb      	lsrs	r3, r3, #31
 800294e:	69a9      	ldr	r1, [r5, #24]
 8002950:	9209      	str	r2, [sp, #36]	; 0x24
 8002952:	930a      	str	r3, [sp, #40]	; 0x28
 8002954:	9700      	str	r7, [sp, #0]
 8002956:	950b      	str	r5, [sp, #44]	; 0x2c
 8002958:	e006      	b.n	8002968 <commonCheckForEvents+0x88>
 800295a:	9a00      	ldr	r2, [sp, #0]
 800295c:	9b05      	ldr	r3, [sp, #20]
 800295e:	3201      	adds	r2, #1
 8002960:	9200      	str	r2, [sp, #0]
 8002962:	3110      	adds	r1, #16
 8002964:	429a      	cmp	r2, r3
 8002966:	da4a      	bge.n	80029fe <commonCheckForEvents+0x11e>
 8002968:	2000      	movs	r0, #0
 800296a:	5e0e      	ldrsh	r6, [r1, r0]
 800296c:	7b08      	ldrb	r0, [r1, #12]
 800296e:	880b      	ldrh	r3, [r1, #0]
 8002970:	0680      	lsls	r0, r0, #26
 8002972:	0e80      	lsrs	r0, r0, #26
 8002974:	181b      	adds	r3, r3, r0
 8002976:	2402      	movs	r4, #2
 8002978:	5f08      	ldrsh	r0, [r1, r4]
 800297a:	464c      	mov	r4, r9
 800297c:	4684      	mov	ip, r0
 800297e:	8988      	ldrh	r0, [r1, #12]
 8002980:	884a      	ldrh	r2, [r1, #2]
 8002982:	0500      	lsls	r0, r0, #20
 8002984:	0e80      	lsrs	r0, r0, #26
 8002986:	1812      	adds	r2, r2, r0
 8002988:	9804      	ldr	r0, [sp, #16]
 800298a:	0ff5      	lsrs	r5, r6, #31
 800298c:	42b4      	cmp	r4, r6
 800298e:	4168      	adcs	r0, r5
 8002990:	464f      	mov	r7, r9
 8002992:	4682      	mov	sl, r0
 8002994:	041b      	lsls	r3, r3, #16
 8002996:	141b      	asrs	r3, r3, #16
 8002998:	9801      	ldr	r0, [sp, #4]
 800299a:	17dc      	asrs	r4, r3, #31
 800299c:	42bb      	cmp	r3, r7
 800299e:	4160      	adcs	r0, r4
 80029a0:	4657      	mov	r7, sl
 80029a2:	4038      	ands	r0, r7
 80029a4:	4682      	mov	sl, r0
 80029a6:	4640      	mov	r0, r8
 80029a8:	9f02      	ldr	r7, [sp, #8]
 80029aa:	42b0      	cmp	r0, r6
 80029ac:	417d      	adcs	r5, r7
 80029ae:	4646      	mov	r6, r8
 80029b0:	9803      	ldr	r0, [sp, #12]
 80029b2:	42b3      	cmp	r3, r6
 80029b4:	4144      	adcs	r4, r0
 80029b6:	4650      	mov	r0, sl
 80029b8:	402c      	ands	r4, r5
 80029ba:	0412      	lsls	r2, r2, #16
 80029bc:	4320      	orrs	r0, r4
 80029be:	1412      	asrs	r2, r2, #16
 80029c0:	0600      	lsls	r0, r0, #24
 80029c2:	d0ca      	beq.n	800295a <commonCheckForEvents+0x7a>
 80029c4:	4663      	mov	r3, ip
 80029c6:	4660      	mov	r0, ip
 80029c8:	0fdc      	lsrs	r4, r3, #31
 80029ca:	465b      	mov	r3, fp
 80029cc:	465e      	mov	r6, fp
 80029ce:	9d07      	ldr	r5, [sp, #28]
 80029d0:	4283      	cmp	r3, r0
 80029d2:	4165      	adcs	r5, r4
 80029d4:	9b08      	ldr	r3, [sp, #32]
 80029d6:	17d0      	asrs	r0, r2, #31
 80029d8:	42b2      	cmp	r2, r6
 80029da:	4143      	adcs	r3, r0
 80029dc:	4667      	mov	r7, ip
 80029de:	9e09      	ldr	r6, [sp, #36]	; 0x24
 80029e0:	402b      	ands	r3, r5
 80029e2:	9d06      	ldr	r5, [sp, #24]
 80029e4:	42bd      	cmp	r5, r7
 80029e6:	4174      	adcs	r4, r6
 80029e8:	9e0a      	ldr	r6, [sp, #40]	; 0x28
 80029ea:	42aa      	cmp	r2, r5
 80029ec:	4170      	adcs	r0, r6
 80029ee:	4020      	ands	r0, r4
 80029f0:	4303      	orrs	r3, r0
 80029f2:	061b      	lsls	r3, r3, #24
 80029f4:	d0b1      	beq.n	800295a <commonCheckForEvents+0x7a>
 80029f6:	9d0b      	ldr	r5, [sp, #44]	; 0x2c
 80029f8:	4b05      	ldr	r3, [pc, #20]	; (8002a10 <commonCheckForEvents+0x130>)
 80029fa:	60a9      	str	r1, [r5, #8]
 80029fc:	626b      	str	r3, [r5, #36]	; 0x24
 80029fe:	b013      	add	sp, #76	; 0x4c
 8002a00:	bcf0      	pop	{r4, r5, r6, r7}
 8002a02:	46bb      	mov	fp, r7
 8002a04:	46b2      	mov	sl, r6
 8002a06:	46a9      	mov	r9, r5
 8002a08:	46a0      	mov	r8, r4
 8002a0a:	bcf0      	pop	{r4, r5, r6, r7}
 8002a0c:	bc01      	pop	{r0}
 8002a0e:	4700      	bx	r0
 8002a10:	08006c75 	.word	0x08006c75

08002a14 <commonGetCurrentAnimationFrame>:
 8002a14:	2323      	movs	r3, #35	; 0x23
 8002a16:	5cc0      	ldrb	r0, [r0, r3]
 8002a18:	0640      	lsls	r0, r0, #25
 8002a1a:	0e40      	lsrs	r0, r0, #25
 8002a1c:	4770      	bx	lr
 8002a1e:	46c0      	nop			; (mov r8, r8)

08002a20 <commonGetCurrentScreenFrame>:
 8002a20:	2322      	movs	r3, #34	; 0x22
 8002a22:	5cc0      	ldrb	r0, [r0, r3]
 8002a24:	4770      	bx	lr
 8002a26:	46c0      	nop			; (mov r8, r8)

08002a28 <commonDoNextAction>:
 8002a28:	b570      	push	{r4, r5, r6, lr}
 8002a2a:	6d01      	ldr	r1, [r0, #80]	; 0x50
 8002a2c:	788b      	ldrb	r3, [r1, #2]
 8002a2e:	091b      	lsrs	r3, r3, #4
 8002a30:	009b      	lsls	r3, r3, #2
 8002a32:	18c9      	adds	r1, r1, r3
 8002a34:	2335      	movs	r3, #53	; 0x35
 8002a36:	2437      	movs	r4, #55	; 0x37
 8002a38:	5cc3      	ldrb	r3, [r0, r3]
 8002a3a:	5704      	ldrsb	r4, [r0, r4]
 8002a3c:	071b      	lsls	r3, r3, #28
 8002a3e:	7b0a      	ldrb	r2, [r1, #12]
 8002a40:	171b      	asrs	r3, r3, #28
 8002a42:	429c      	cmp	r4, r3
 8002a44:	d105      	bne.n	8002a52 <commonDoNextAction+0x2a>
 8002a46:	2336      	movs	r3, #54	; 0x36
 8002a48:	5cc4      	ldrb	r4, [r0, r3]
 8002a4a:	3b02      	subs	r3, #2
 8002a4c:	5cc3      	ldrb	r3, [r0, r3]
 8002a4e:	429c      	cmp	r4, r3
 8002a50:	d009      	beq.n	8002a66 <commonDoNextAction+0x3e>
 8002a52:	3a01      	subs	r2, #1
 8002a54:	7b4b      	ldrb	r3, [r1, #13]
 8002a56:	0610      	lsls	r0, r2, #24
 8002a58:	0e00      	lsrs	r0, r0, #24
 8002a5a:	4298      	cmp	r0, r3
 8002a5c:	4180      	sbcs	r0, r0
 8002a5e:	4240      	negs	r0, r0
 8002a60:	bc70      	pop	{r4, r5, r6}
 8002a62:	bc02      	pop	{r1}
 8002a64:	4708      	bx	r1
 8002a66:	2323      	movs	r3, #35	; 0x23
 8002a68:	2422      	movs	r4, #34	; 0x22
 8002a6a:	69c6      	ldr	r6, [r0, #28]
 8002a6c:	5cc3      	ldrb	r3, [r0, r3]
 8002a6e:	5d00      	ldrb	r0, [r0, r4]
 8002a70:	065b      	lsls	r3, r3, #25
 8002a72:	6834      	ldr	r4, [r6, #0]
 8002a74:	0e5d      	lsrs	r5, r3, #25
 8002a76:	0d9b      	lsrs	r3, r3, #22
 8002a78:	18e3      	adds	r3, r4, r3
 8002a7a:	889b      	ldrh	r3, [r3, #4]
 8002a7c:	3001      	adds	r0, #1
 8002a7e:	4298      	cmp	r0, r3
 8002a80:	dbe7      	blt.n	8002a52 <commonDoNextAction+0x2a>
 8002a82:	6873      	ldr	r3, [r6, #4]
 8002a84:	3501      	adds	r5, #1
 8002a86:	42ab      	cmp	r3, r5
 8002a88:	dce3      	bgt.n	8002a52 <commonDoNextAction+0x2a>
 8002a8a:	2001      	movs	r0, #1
 8002a8c:	2a00      	cmp	r2, #0
 8002a8e:	d0e7      	beq.n	8002a60 <commonDoNextAction+0x38>
 8002a90:	e7df      	b.n	8002a52 <commonDoNextAction+0x2a>
 8002a92:	46c0      	nop			; (mov r8, r8)

08002a94 <commonDoIntializeActions>:
 8002a94:	b570      	push	{r4, r5, r6, lr}
 8002a96:	2100      	movs	r1, #0
 8002a98:	2400      	movs	r4, #0
 8002a9a:	6d03      	ldr	r3, [r0, #80]	; 0x50
 8002a9c:	789b      	ldrb	r3, [r3, #2]
 8002a9e:	091d      	lsrs	r5, r3, #4
 8002aa0:	071b      	lsls	r3, r3, #28
 8002aa2:	1c6a      	adds	r2, r5, #1
 8002aa4:	0f1b      	lsrs	r3, r3, #28
 8002aa6:	429a      	cmp	r2, r3
 8002aa8:	414c      	adcs	r4, r1
 8002aaa:	f7ff ffbd 	bl	8002a28 <commonDoNextAction>
 8002aae:	2307      	movs	r3, #7
 8002ab0:	42ab      	cmp	r3, r5
 8002ab2:	419b      	sbcs	r3, r3
 8002ab4:	4020      	ands	r0, r4
 8002ab6:	425b      	negs	r3, r3
 8002ab8:	4318      	orrs	r0, r3
 8002aba:	bc70      	pop	{r4, r5, r6}
 8002abc:	bc02      	pop	{r1}
 8002abe:	4708      	bx	r1

08002ac0 <commonFindCharTypeInBoundingBox>:
 8002ac0:	b5f0      	push	{r4, r5, r6, r7, lr}
 8002ac2:	46de      	mov	lr, fp
 8002ac4:	4645      	mov	r5, r8
 8002ac6:	4657      	mov	r7, sl
 8002ac8:	464e      	mov	r6, r9
 8002aca:	b5e0      	push	{r5, r6, r7, lr}
 8002acc:	b085      	sub	sp, #20
 8002ace:	9201      	str	r2, [sp, #4]
 8002ad0:	7845      	ldrb	r5, [r0, #1]
 8002ad2:	468b      	mov	fp, r1
 8002ad4:	0014      	movs	r4, r2
 8002ad6:	2d00      	cmp	r5, #0
 8002ad8:	d056      	beq.n	8002b88 <commonFindCharTypeInBoundingBox+0xc8>
 8002ada:	6841      	ldr	r1, [r0, #4]
 8002adc:	468c      	mov	ip, r1
 8002ade:	46a8      	mov	r8, r5
 8002ae0:	17df      	asrs	r7, r3, #31
 8002ae2:	001d      	movs	r5, r3
 8002ae4:	4663      	mov	r3, ip
 8002ae6:	0fe1      	lsrs	r1, r4, #31
 8002ae8:	2200      	movs	r2, #0
 8002aea:	9102      	str	r1, [sp, #8]
 8002aec:	9300      	str	r3, [sp, #0]
 8002aee:	e002      	b.n	8002af6 <commonFindCharTypeInBoundingBox+0x36>
 8002af0:	3201      	adds	r2, #1
 8002af2:	4542      	cmp	r2, r8
 8002af4:	da48      	bge.n	8002b88 <commonFindCharTypeInBoundingBox+0xc8>
 8002af6:	9b00      	ldr	r3, [sp, #0]
 8002af8:	0091      	lsls	r1, r2, #2
 8002afa:	5858      	ldr	r0, [r3, r1]
 8002afc:	2331      	movs	r3, #49	; 0x31
 8002afe:	56c4      	ldrsb	r4, [r0, r3]
 8002b00:	0fe1      	lsrs	r1, r4, #31
 8002b02:	42a5      	cmp	r5, r4
 8002b04:	4179      	adcs	r1, r7
 8002b06:	0609      	lsls	r1, r1, #24
 8002b08:	d0f2      	beq.n	8002af0 <commonFindCharTypeInBoundingBox+0x30>
 8002b0a:	9e02      	ldr	r6, [sp, #8]
 8002b0c:	9b01      	ldr	r3, [sp, #4]
 8002b0e:	17e1      	asrs	r1, r4, #31
 8002b10:	429c      	cmp	r4, r3
 8002b12:	4171      	adcs	r1, r6
 8002b14:	0609      	lsls	r1, r1, #24
 8002b16:	d0eb      	beq.n	8002af0 <commonFindCharTypeInBoundingBox+0x30>
 8002b18:	233c      	movs	r3, #60	; 0x3c
 8002b1a:	5ec4      	ldrsh	r4, [r0, r3]
 8002b1c:	213e      	movs	r1, #62	; 0x3e
 8002b1e:	5e43      	ldrsh	r3, [r0, r1]
 8002b20:	469a      	mov	sl, r3
 8002b22:	465b      	mov	r3, fp
 8002b24:	2100      	movs	r1, #0
 8002b26:	5e59      	ldrsh	r1, [r3, r1]
 8002b28:	17e3      	asrs	r3, r4, #31
 8002b2a:	469c      	mov	ip, r3
 8002b2c:	0fcb      	lsrs	r3, r1, #31
 8002b2e:	4699      	mov	r9, r3
 8002b30:	4663      	mov	r3, ip
 8002b32:	464e      	mov	r6, r9
 8002b34:	428c      	cmp	r4, r1
 8002b36:	4173      	adcs	r3, r6
 8002b38:	469c      	mov	ip, r3
 8002b3a:	465b      	mov	r3, fp
 8002b3c:	2104      	movs	r1, #4
 8002b3e:	5e5b      	ldrsh	r3, [r3, r1]
 8002b40:	4699      	mov	r9, r3
 8002b42:	464e      	mov	r6, r9
 8002b44:	0fe1      	lsrs	r1, r4, #31
 8002b46:	17db      	asrs	r3, r3, #31
 8002b48:	42a6      	cmp	r6, r4
 8002b4a:	4159      	adcs	r1, r3
 8002b4c:	4663      	mov	r3, ip
 8002b4e:	4019      	ands	r1, r3
 8002b50:	465b      	mov	r3, fp
 8002b52:	9103      	str	r1, [sp, #12]
 8002b54:	2102      	movs	r1, #2
 8002b56:	5e5b      	ldrsh	r3, [r3, r1]
 8002b58:	469c      	mov	ip, r3
 8002b5a:	4653      	mov	r3, sl
 8002b5c:	17dc      	asrs	r4, r3, #31
 8002b5e:	4663      	mov	r3, ip
 8002b60:	4656      	mov	r6, sl
 8002b62:	4661      	mov	r1, ip
 8002b64:	0fdb      	lsrs	r3, r3, #31
 8002b66:	428e      	cmp	r6, r1
 8002b68:	415c      	adcs	r4, r3
 8002b6a:	9b03      	ldr	r3, [sp, #12]
 8002b6c:	401c      	ands	r4, r3
 8002b6e:	0624      	lsls	r4, r4, #24
 8002b70:	d0be      	beq.n	8002af0 <commonFindCharTypeInBoundingBox+0x30>
 8002b72:	465b      	mov	r3, fp
 8002b74:	2406      	movs	r4, #6
 8002b76:	5f1c      	ldrsh	r4, [r3, r4]
 8002b78:	0ff1      	lsrs	r1, r6, #31
 8002b7a:	17e3      	asrs	r3, r4, #31
 8002b7c:	42b4      	cmp	r4, r6
 8002b7e:	4159      	adcs	r1, r3
 8002b80:	0609      	lsls	r1, r1, #24
 8002b82:	d0b5      	beq.n	8002af0 <commonFindCharTypeInBoundingBox+0x30>
 8002b84:	303c      	adds	r0, #60	; 0x3c
 8002b86:	e000      	b.n	8002b8a <commonFindCharTypeInBoundingBox+0xca>
 8002b88:	4804      	ldr	r0, [pc, #16]	; (8002b9c <commonFindCharTypeInBoundingBox+0xdc>)
 8002b8a:	b005      	add	sp, #20
 8002b8c:	bcf0      	pop	{r4, r5, r6, r7}
 8002b8e:	46bb      	mov	fp, r7
 8002b90:	46b2      	mov	sl, r6
 8002b92:	46a9      	mov	r9, r5
 8002b94:	46a0      	mov	r8, r4
 8002b96:	bcf0      	pop	{r4, r5, r6, r7}
 8002b98:	bc02      	pop	{r1}
 8002b9a:	4708      	bx	r1
 8002b9c:	08008798 	.word	0x08008798

08002ba0 <commonFindCharTypePositionByDistance>:
 8002ba0:	b5f0      	push	{r4, r5, r6, r7, lr}
 8002ba2:	464e      	mov	r6, r9
 8002ba4:	46de      	mov	lr, fp
 8002ba6:	4657      	mov	r7, sl
 8002ba8:	4645      	mov	r5, r8
 8002baa:	b5e0      	push	{r5, r6, r7, lr}
 8002bac:	2600      	movs	r6, #0
 8002bae:	b083      	sub	sp, #12
 8002bb0:	7847      	ldrb	r7, [r0, #1]
 8002bb2:	4699      	mov	r9, r3
 8002bb4:	ab0c      	add	r3, sp, #48	; 0x30
 8002bb6:	468b      	mov	fp, r1
 8002bb8:	579e      	ldrsb	r6, [r3, r6]
 8002bba:	2f00      	cmp	r7, #0
 8002bbc:	d03c      	beq.n	8002c38 <commonFindCharTypePositionByDistance+0x98>
 8002bbe:	6843      	ldr	r3, [r0, #4]
 8002bc0:	4698      	mov	r8, r3
 8002bc2:	17f3      	asrs	r3, r6, #31
 8002bc4:	469c      	mov	ip, r3
 8002bc6:	464b      	mov	r3, r9
 8002bc8:	0fdb      	lsrs	r3, r3, #31
 8002bca:	469a      	mov	sl, r3
 8002bcc:	4663      	mov	r3, ip
 8002bce:	4694      	mov	ip, r2
 8002bd0:	4642      	mov	r2, r8
 8002bd2:	2100      	movs	r1, #0
 8002bd4:	46b8      	mov	r8, r7
 8002bd6:	9201      	str	r2, [sp, #4]
 8002bd8:	001f      	movs	r7, r3
 8002bda:	e002      	b.n	8002be2 <commonFindCharTypePositionByDistance+0x42>
 8002bdc:	3101      	adds	r1, #1
 8002bde:	4541      	cmp	r1, r8
 8002be0:	da2a      	bge.n	8002c38 <commonFindCharTypePositionByDistance+0x98>
 8002be2:	9b01      	ldr	r3, [sp, #4]
 8002be4:	0088      	lsls	r0, r1, #2
 8002be6:	5818      	ldr	r0, [r3, r0]
 8002be8:	2331      	movs	r3, #49	; 0x31
 8002bea:	56c5      	ldrsb	r5, [r0, r3]
 8002bec:	0fec      	lsrs	r4, r5, #31
 8002bee:	42ae      	cmp	r6, r5
 8002bf0:	417c      	adcs	r4, r7
 8002bf2:	0624      	lsls	r4, r4, #24
 8002bf4:	d0f2      	beq.n	8002bdc <commonFindCharTypePositionByDistance+0x3c>
 8002bf6:	4653      	mov	r3, sl
 8002bf8:	464a      	mov	r2, r9
 8002bfa:	17ec      	asrs	r4, r5, #31
 8002bfc:	4295      	cmp	r5, r2
 8002bfe:	415c      	adcs	r4, r3
 8002c00:	0624      	lsls	r4, r4, #24
 8002c02:	d0eb      	beq.n	8002bdc <commonFindCharTypePositionByDistance+0x3c>
 8002c04:	465b      	mov	r3, fp
 8002c06:	2400      	movs	r4, #0
 8002c08:	5f1c      	ldrsh	r4, [r3, r4]
 8002c0a:	233c      	movs	r3, #60	; 0x3c
 8002c0c:	5ec5      	ldrsh	r5, [r0, r3]
 8002c0e:	465b      	mov	r3, fp
 8002c10:	1b64      	subs	r4, r4, r5
 8002c12:	2202      	movs	r2, #2
 8002c14:	5e9b      	ldrsh	r3, [r3, r2]
 8002c16:	223e      	movs	r2, #62	; 0x3e
 8002c18:	5e85      	ldrsh	r5, [r0, r2]
 8002c1a:	4662      	mov	r2, ip
 8002c1c:	1b5d      	subs	r5, r3, r5
 8002c1e:	4663      	mov	r3, ip
 8002c20:	4353      	muls	r3, r2
 8002c22:	469c      	mov	ip, r3
 8002c24:	0023      	movs	r3, r4
 8002c26:	4363      	muls	r3, r4
 8002c28:	001c      	movs	r4, r3
 8002c2a:	002b      	movs	r3, r5
 8002c2c:	436b      	muls	r3, r5
 8002c2e:	18e4      	adds	r4, r4, r3
 8002c30:	4564      	cmp	r4, ip
 8002c32:	dcd3      	bgt.n	8002bdc <commonFindCharTypePositionByDistance+0x3c>
 8002c34:	303c      	adds	r0, #60	; 0x3c
 8002c36:	e000      	b.n	8002c3a <commonFindCharTypePositionByDistance+0x9a>
 8002c38:	4804      	ldr	r0, [pc, #16]	; (8002c4c <commonFindCharTypePositionByDistance+0xac>)
 8002c3a:	b003      	add	sp, #12
 8002c3c:	bcf0      	pop	{r4, r5, r6, r7}
 8002c3e:	46bb      	mov	fp, r7
 8002c40:	46b2      	mov	sl, r6
 8002c42:	46a9      	mov	r9, r5
 8002c44:	46a0      	mov	r8, r4
 8002c46:	bcf0      	pop	{r4, r5, r6, r7}
 8002c48:	bc02      	pop	{r1}
 8002c4a:	4708      	bx	r1
 8002c4c:	08008798 	.word	0x08008798

08002c50 <commonIsFoundPosition>:
 8002c50:	2200      	movs	r2, #0
 8002c52:	5e83      	ldrsh	r3, [r0, r2]
 8002c54:	2202      	movs	r2, #2
 8002c56:	5e80      	ldrsh	r0, [r0, r2]
 8002c58:	3301      	adds	r3, #1
 8002c5a:	3001      	adds	r0, #1
 8002c5c:	1e5a      	subs	r2, r3, #1
 8002c5e:	4193      	sbcs	r3, r2
 8002c60:	1e42      	subs	r2, r0, #1
 8002c62:	4190      	sbcs	r0, r2
 8002c64:	4018      	ands	r0, r3
 8002c66:	4770      	bx	lr
 8002c68:	4718      	bx	r3
 8002c6a:	4728      	bx	r5
 8002c6c:	4730      	bx	r6
 8002c6e:	46c0      	nop			; (mov r8, r8)

08002c70 <crow_doAction>:
 8002c70:	b530      	push	{r4, r5, lr}
 8002c72:	0004      	movs	r4, r0
 8002c74:	2000      	movs	r0, #0
 8002c76:	b087      	sub	sp, #28
 8002c78:	9001      	str	r0, [sp, #4]
 8002c7a:	3036      	adds	r0, #54	; 0x36
 8002c7c:	5c20      	ldrb	r0, [r4, r0]
 8002c7e:	2801      	cmp	r0, #1
 8002c80:	d805      	bhi.n	8002c8e <crow_doAction+0x1e>
 8002c82:	4d08      	ldr	r5, [pc, #32]	; (8002ca4 <crow_doAction+0x34>)
 8002c84:	0080      	lsls	r0, r0, #2
 8002c86:	5945      	ldr	r5, [r0, r5]
 8002c88:	0020      	movs	r0, r4
 8002c8a:	f000 f90a 	bl	8002ea2 <crow_init+0xae>
 8002c8e:	0020      	movs	r0, r4
 8002c90:	68e3      	ldr	r3, [r4, #12]
 8002c92:	aa02      	add	r2, sp, #8
 8002c94:	a901      	add	r1, sp, #4
 8002c96:	f000 f903 	bl	8002ea0 <crow_init+0xac>
 8002c9a:	b007      	add	sp, #28
 8002c9c:	bc30      	pop	{r4, r5}
 8002c9e:	bc01      	pop	{r0}
 8002ca0:	4700      	bx	r0
 8002ca2:	46c0      	nop			; (mov r8, r8)
 8002ca4:	03000b84 	.word	0x03000b84

08002ca8 <crow_getBoundingBox>:
 8002ca8:	2301      	movs	r3, #1
 8002caa:	600b      	str	r3, [r1, #0]
 8002cac:	8f81      	ldrh	r1, [r0, #60]	; 0x3c
 8002cae:	8fc3      	ldrh	r3, [r0, #62]	; 0x3e
 8002cb0:	1f08      	subs	r0, r1, #4
 8002cb2:	8010      	strh	r0, [r2, #0]
 8002cb4:	0018      	movs	r0, r3
 8002cb6:	3104      	adds	r1, #4
 8002cb8:	3808      	subs	r0, #8
 8002cba:	3308      	adds	r3, #8
 8002cbc:	8050      	strh	r0, [r2, #2]
 8002cbe:	8091      	strh	r1, [r2, #4]
 8002cc0:	80d3      	strh	r3, [r2, #6]
 8002cc2:	4770      	bx	lr

08002cc4 <crow_checkMapCollision>:
 8002cc4:	4770      	bx	lr
 8002cc6:	46c0      	nop			; (mov r8, r8)

08002cc8 <crow_checkCollision>:
 8002cc8:	4770      	bx	lr
 8002cca:	46c0      	nop			; (mov r8, r8)

08002ccc <crow_actionStand>:
 8002ccc:	b5f0      	push	{r4, r5, r6, r7, lr}
 8002cce:	46c6      	mov	lr, r8
 8002cd0:	2721      	movs	r7, #33	; 0x21
 8002cd2:	0016      	movs	r6, r2
 8002cd4:	227b      	movs	r2, #123	; 0x7b
 8002cd6:	b500      	push	{lr}
 8002cd8:	5dc3      	ldrb	r3, [r0, r7]
 8002cda:	4013      	ands	r3, r2
 8002cdc:	6d05      	ldr	r5, [r0, #80]	; 0x50
 8002cde:	b082      	sub	sp, #8
 8002ce0:	55c3      	strb	r3, [r0, r7]
 8002ce2:	0004      	movs	r4, r0
 8002ce4:	4690      	mov	r8, r2
 8002ce6:	f7fe fc95 	bl	8001614 <commonUpdateAnimation>
 8002cea:	2801      	cmp	r0, #1
 8002cec:	d107      	bne.n	8002cfe <crow_actionStand+0x32>
 8002cee:	4642      	mov	r2, r8
 8002cf0:	5de3      	ldrb	r3, [r4, r7]
 8002cf2:	401a      	ands	r2, r3
 8002cf4:	0013      	movs	r3, r2
 8002cf6:	227c      	movs	r2, #124	; 0x7c
 8002cf8:	4252      	negs	r2, r2
 8002cfa:	4313      	orrs	r3, r2
 8002cfc:	55e3      	strb	r3, [r4, r7]
 8002cfe:	2336      	movs	r3, #54	; 0x36
 8002d00:	2135      	movs	r1, #53	; 0x35
 8002d02:	200f      	movs	r0, #15
 8002d04:	5ce2      	ldrb	r2, [r4, r3]
 8002d06:	3b02      	subs	r3, #2
 8002d08:	54e2      	strb	r2, [r4, r3]
 8002d0a:	3303      	adds	r3, #3
 8002d0c:	5ce2      	ldrb	r2, [r4, r3]
 8002d0e:	5c63      	ldrb	r3, [r4, r1]
 8002d10:	4002      	ands	r2, r0
 8002d12:	4383      	bics	r3, r0
 8002d14:	4313      	orrs	r3, r2
 8002d16:	5463      	strb	r3, [r4, r1]
 8002d18:	0030      	movs	r0, r6
 8002d1a:	2100      	movs	r1, #0
 8002d1c:	f002 fe74 	bl	8005a08 <mchar_findCharacterType>
 8002d20:	2800      	cmp	r0, #0
 8002d22:	d01e      	beq.n	8002d62 <crow_actionStand+0x96>
 8002d24:	1d2b      	adds	r3, r5, #4
 8002d26:	303c      	adds	r0, #60	; 0x3c
 8002d28:	c806      	ldmia	r0!, {r1, r2}
 8002d2a:	c306      	stmia	r3!, {r1, r2}
 8002d2c:	2239      	movs	r2, #57	; 0x39
 8002d2e:	2138      	movs	r1, #56	; 0x38
 8002d30:	5ca3      	ldrb	r3, [r4, r2]
 8002d32:	3301      	adds	r3, #1
 8002d34:	061b      	lsls	r3, r3, #24
 8002d36:	0e1b      	lsrs	r3, r3, #24
 8002d38:	54a3      	strb	r3, [r4, r2]
 8002d3a:	5c61      	ldrb	r1, [r4, r1]
 8002d3c:	4299      	cmp	r1, r3
 8002d3e:	d810      	bhi.n	8002d62 <crow_actionStand+0x96>
 8002d40:	2104      	movs	r1, #4
 8002d42:	5e6b      	ldrsh	r3, [r5, r1]
 8002d44:	203c      	movs	r0, #60	; 0x3c
 8002d46:	5e21      	ldrsh	r1, [r4, r0]
 8002d48:	1a5b      	subs	r3, r3, r1
 8002d4a:	2100      	movs	r1, #0
 8002d4c:	54a1      	strb	r1, [r4, r2]
 8002d4e:	2b00      	cmp	r3, #0
 8002d50:	db0f      	blt.n	8002d72 <crow_actionStand+0xa6>
 8002d52:	d011      	beq.n	8002d78 <crow_actionStand+0xac>
 8002d54:	2200      	movs	r2, #0
 8002d56:	2006      	movs	r0, #6
 8002d58:	111b      	asrs	r3, r3, #4
 8002d5a:	0019      	movs	r1, r3
 8002d5c:	310e      	adds	r1, #14
 8002d5e:	291c      	cmp	r1, #28
 8002d60:	d912      	bls.n	8002d88 <crow_actionStand+0xbc>
 8002d62:	4b0d      	ldr	r3, [pc, #52]	; (8002d98 <crow_actionStand+0xcc>)
 8002d64:	61e3      	str	r3, [r4, #28]
 8002d66:	b002      	add	sp, #8
 8002d68:	bc80      	pop	{r7}
 8002d6a:	46b8      	mov	r8, r7
 8002d6c:	bcf0      	pop	{r4, r5, r6, r7}
 8002d6e:	bc01      	pop	{r0}
 8002d70:	4700      	bx	r0
 8002d72:	2206      	movs	r2, #6
 8002d74:	2000      	movs	r0, #0
 8002d76:	e7ef      	b.n	8002d58 <crow_actionStand+0x8c>
 8002d78:	2100      	movs	r1, #0
 8002d7a:	2200      	movs	r2, #0
 8002d7c:	9100      	str	r1, [sp, #0]
 8002d7e:	4807      	ldr	r0, [pc, #28]	; (8002d9c <crow_actionStand+0xd0>)
 8002d80:	2100      	movs	r1, #0
 8002d82:	f003 fb4b 	bl	800641c <msound_setChannel3d>
 8002d86:	e7ec      	b.n	8002d62 <crow_actionStand+0x96>
 8002d88:	43d9      	mvns	r1, r3
 8002d8a:	0fdd      	lsrs	r5, r3, #31
 8002d8c:	0fc9      	lsrs	r1, r1, #31
 8002d8e:	1b49      	subs	r1, r1, r5
 8002d90:	4359      	muls	r1, r3
 8002d92:	0003      	movs	r3, r0
 8002d94:	e7f2      	b.n	8002d7c <crow_actionStand+0xb0>
 8002d96:	46c0      	nop			; (mov r8, r8)
 8002d98:	080329a8 	.word	0x080329a8
 8002d9c:	0801ddfc 	.word	0x0801ddfc

08002da0 <crow_setPosition>:
 8002da0:	b570      	push	{r4, r5, r6, lr}
 8002da2:	0004      	movs	r4, r0
 8002da4:	0025      	movs	r5, r4
 8002da6:	8fc3      	ldrh	r3, [r0, #62]	; 0x3e
 8002da8:	8850      	ldrh	r0, [r2, #2]
 8002daa:	1a1b      	subs	r3, r3, r0
 8002dac:	3520      	adds	r5, #32
 8002dae:	3b0c      	subs	r3, #12
 8002db0:	712b      	strb	r3, [r5, #4]
 8002db2:	8812      	ldrh	r2, [r2, #0]
 8002db4:	8fa3      	ldrh	r3, [r4, #60]	; 0x3c
 8002db6:	480e      	ldr	r0, [pc, #56]	; (8002df0 <crow_setPosition+0x50>)
 8002db8:	1a9b      	subs	r3, r3, r2
 8002dba:	6a62      	ldr	r2, [r4, #36]	; 0x24
 8002dbc:	4002      	ands	r2, r0
 8002dbe:	0020      	movs	r0, r4
 8002dc0:	3b04      	subs	r3, #4
 8002dc2:	05db      	lsls	r3, r3, #23
 8002dc4:	0bdb      	lsrs	r3, r3, #15
 8002dc6:	4313      	orrs	r3, r2
 8002dc8:	6263      	str	r3, [r4, #36]	; 0x24
 8002dca:	301c      	adds	r0, #28
 8002dcc:	f7fe faba 	bl	8001344 <commonSetToOamBuffer>
 8002dd0:	2202      	movs	r2, #2
 8002dd2:	79ab      	ldrb	r3, [r5, #6]
 8002dd4:	4313      	orrs	r3, r2
 8002dd6:	71ab      	strb	r3, [r5, #6]
 8002dd8:	2323      	movs	r3, #35	; 0x23
 8002dda:	69e2      	ldr	r2, [r4, #28]
 8002ddc:	5ce3      	ldrb	r3, [r4, r3]
 8002dde:	6812      	ldr	r2, [r2, #0]
 8002de0:	065b      	lsls	r3, r3, #25
 8002de2:	0d9b      	lsrs	r3, r3, #22
 8002de4:	18d3      	adds	r3, r2, r3
 8002de6:	88d8      	ldrh	r0, [r3, #6]
 8002de8:	bc70      	pop	{r4, r5, r6}
 8002dea:	bc02      	pop	{r1}
 8002dec:	4708      	bx	r1
 8002dee:	46c0      	nop			; (mov r8, r8)
 8002df0:	fffe00ff 	.word	0xfffe00ff

08002df4 <crow_init>:
 8002df4:	23c0      	movs	r3, #192	; 0xc0
 8002df6:	b570      	push	{r4, r5, r6, lr}
 8002df8:	00db      	lsls	r3, r3, #3
 8002dfa:	0004      	movs	r4, r0
 8002dfc:	b082      	sub	sp, #8
 8002dfe:	8603      	strh	r3, [r0, #48]	; 0x30
 8002e00:	000d      	movs	r5, r1
 8002e02:	f003 fd47 	bl	8006894 <sprite_vram_findId>
 8002e06:	2380      	movs	r3, #128	; 0x80
 8002e08:	8c22      	ldrh	r2, [r4, #32]
 8002e0a:	0580      	lsls	r0, r0, #22
 8002e0c:	0d80      	lsrs	r0, r0, #22
 8002e0e:	00db      	lsls	r3, r3, #3
 8002e10:	0ad2      	lsrs	r2, r2, #11
 8002e12:	02d2      	lsls	r2, r2, #11
 8002e14:	4303      	orrs	r3, r0
 8002e16:	4313      	orrs	r3, r2
 8002e18:	8423      	strh	r3, [r4, #32]
 8002e1a:	2101      	movs	r1, #1
 8002e1c:	2006      	movs	r0, #6
 8002e1e:	f003 fda5 	bl	800696c <sprite_palette_findId>
 8002e22:	0022      	movs	r2, r4
 8002e24:	210f      	movs	r1, #15
 8002e26:	2678      	movs	r6, #120	; 0x78
 8002e28:	3220      	adds	r2, #32
 8002e2a:	7853      	ldrb	r3, [r2, #1]
 8002e2c:	4001      	ands	r1, r0
 8002e2e:	00c8      	lsls	r0, r1, #3
 8002e30:	43b3      	bics	r3, r6
 8002e32:	4303      	orrs	r3, r0
 8002e34:	7053      	strb	r3, [r2, #1]
 8002e36:	4813      	ldr	r0, [pc, #76]	; (8002e84 <crow_init+0x90>)
 8002e38:	f003 fdf2 	bl	8006a20 <sprite_palette_copy32_ID>
 8002e3c:	2101      	movs	r1, #1
 8002e3e:	0020      	movs	r0, r4
 8002e40:	2300      	movs	r3, #0
 8002e42:	2200      	movs	r2, #0
 8002e44:	4249      	negs	r1, r1
 8002e46:	f7fe f9d5 	bl	80011f4 <commonCharacterInit>
 8002e4a:	2300      	movs	r3, #0
 8002e4c:	2200      	movs	r2, #0
 8002e4e:	2100      	movs	r1, #0
 8002e50:	0020      	movs	r0, r4
 8002e52:	9300      	str	r3, [sp, #0]
 8002e54:	f7fe f9b8 	bl	80011c8 <commonCharacterSetPosition>
 8002e58:	4b0b      	ldr	r3, [pc, #44]	; (8002e88 <crow_init+0x94>)
 8002e5a:	6023      	str	r3, [r4, #0]
 8002e5c:	4b0b      	ldr	r3, [pc, #44]	; (8002e8c <crow_init+0x98>)
 8002e5e:	6063      	str	r3, [r4, #4]
 8002e60:	4b0b      	ldr	r3, [pc, #44]	; (8002e90 <crow_init+0x9c>)
 8002e62:	60a3      	str	r3, [r4, #8]
 8002e64:	4b0b      	ldr	r3, [pc, #44]	; (8002e94 <crow_init+0xa0>)
 8002e66:	60e3      	str	r3, [r4, #12]
 8002e68:	4b0b      	ldr	r3, [pc, #44]	; (8002e98 <crow_init+0xa4>)
 8002e6a:	6123      	str	r3, [r4, #16]
 8002e6c:	4b0b      	ldr	r3, [pc, #44]	; (8002e9c <crow_init+0xa8>)
 8002e6e:	0028      	movs	r0, r5
 8002e70:	6163      	str	r3, [r4, #20]
 8002e72:	f002 fe2f 	bl	8005ad4 <mchar_getControlType>
 8002e76:	23ff      	movs	r3, #255	; 0xff
 8002e78:	6520      	str	r0, [r4, #80]	; 0x50
 8002e7a:	8723      	strh	r3, [r4, #56]	; 0x38
 8002e7c:	b002      	add	sp, #8
 8002e7e:	bc70      	pop	{r4, r5, r6}
 8002e80:	bc01      	pop	{r0}
 8002e82:	4700      	bx	r0
 8002e84:	0802e25c 	.word	0x0802e25c
 8002e88:	08002ea5 	.word	0x08002ea5
 8002e8c:	08002c71 	.word	0x08002c71
 8002e90:	08002da1 	.word	0x08002da1
 8002e94:	08002ca9 	.word	0x08002ca9
 8002e98:	08002cc9 	.word	0x08002cc9
 8002e9c:	08002cc5 	.word	0x08002cc5
 8002ea0:	4718      	bx	r3
 8002ea2:	4728      	bx	r5

08002ea4 <crow_controller>:
 8002ea4:	b510      	push	{r4, lr}
 8002ea6:	2101      	movs	r1, #1
 8002ea8:	0004      	movs	r4, r0
 8002eaa:	0010      	movs	r0, r2
 8002eac:	f002 fdac 	bl	8005a08 <mchar_findCharacterType>
 8002eb0:	2200      	movs	r2, #0
 8002eb2:	6d23      	ldr	r3, [r4, #80]	; 0x50
 8002eb4:	86e2      	strh	r2, [r4, #54]	; 0x36
 8002eb6:	2800      	cmp	r0, #0
 8002eb8:	d003      	beq.n	8002ec2 <crow_controller+0x1e>
 8002eba:	3304      	adds	r3, #4
 8002ebc:	303c      	adds	r0, #60	; 0x3c
 8002ebe:	c806      	ldmia	r0!, {r1, r2}
 8002ec0:	c306      	stmia	r3!, {r1, r2}
 8002ec2:	bc10      	pop	{r4}
 8002ec4:	bc01      	pop	{r0}
 8002ec6:	4700      	bx	r0

08002ec8 <crow_setCharacter>:
 8002ec8:	4b01      	ldr	r3, [pc, #4]	; (8002ed0 <crow_setCharacter+0x8>)
 8002eca:	6003      	str	r3, [r0, #0]
 8002ecc:	4770      	bx	lr
 8002ece:	46c0      	nop			; (mov r8, r8)
 8002ed0:	08002ea5 	.word	0x08002ea5

08002ed4 <ghostMan_doAction>:
 8002ed4:	b570      	push	{r4, r5, r6, lr}
 8002ed6:	2436      	movs	r4, #54	; 0x36
 8002ed8:	5d04      	ldrb	r4, [r0, r4]
 8002eda:	2c02      	cmp	r4, #2
 8002edc:	d804      	bhi.n	8002ee8 <ghostMan_doAction+0x14>
 8002ede:	4d04      	ldr	r5, [pc, #16]	; (8002ef0 <ghostMan_doAction+0x1c>)
 8002ee0:	00a4      	lsls	r4, r4, #2
 8002ee2:	5964      	ldr	r4, [r4, r5]
 8002ee4:	f000 f964 	bl	80031b0 <ghostMan_init+0xac>
 8002ee8:	bc70      	pop	{r4, r5, r6}
 8002eea:	bc01      	pop	{r0}
 8002eec:	4700      	bx	r0
 8002eee:	46c0      	nop			; (mov r8, r8)
 8002ef0:	08008874 	.word	0x08008874

08002ef4 <ghostMan_getBoundingBox>:
 8002ef4:	4770      	bx	lr
 8002ef6:	46c0      	nop			; (mov r8, r8)

08002ef8 <ghostMan_checkCollision>:
 8002ef8:	4770      	bx	lr
 8002efa:	46c0      	nop			; (mov r8, r8)

08002efc <ghostMan_checkMapCollision>:
 8002efc:	4770      	bx	lr
 8002efe:	46c0      	nop			; (mov r8, r8)

08002f00 <ghostMan_doSit>:
 8002f00:	b570      	push	{r4, r5, r6, lr}
 8002f02:	2521      	movs	r5, #33	; 0x21
 8002f04:	267b      	movs	r6, #123	; 0x7b
 8002f06:	5d43      	ldrb	r3, [r0, r5]
 8002f08:	4033      	ands	r3, r6
 8002f0a:	5543      	strb	r3, [r0, r5]
 8002f0c:	0004      	movs	r4, r0
 8002f0e:	f7fe fb6b 	bl	80015e8 <commonInitializeAction>
 8002f12:	2801      	cmp	r0, #1
 8002f14:	d105      	bne.n	8002f22 <ghostMan_doSit+0x22>
 8002f16:	5d63      	ldrb	r3, [r4, r5]
 8002f18:	401e      	ands	r6, r3
 8002f1a:	237c      	movs	r3, #124	; 0x7c
 8002f1c:	425b      	negs	r3, r3
 8002f1e:	4333      	orrs	r3, r6
 8002f20:	5563      	strb	r3, [r4, r5]
 8002f22:	2336      	movs	r3, #54	; 0x36
 8002f24:	2135      	movs	r1, #53	; 0x35
 8002f26:	200f      	movs	r0, #15
 8002f28:	5ce2      	ldrb	r2, [r4, r3]
 8002f2a:	3b02      	subs	r3, #2
 8002f2c:	54e2      	strb	r2, [r4, r3]
 8002f2e:	3303      	adds	r3, #3
 8002f30:	5ce2      	ldrb	r2, [r4, r3]
 8002f32:	5c63      	ldrb	r3, [r4, r1]
 8002f34:	4002      	ands	r2, r0
 8002f36:	4383      	bics	r3, r0
 8002f38:	4313      	orrs	r3, r2
 8002f3a:	5463      	strb	r3, [r4, r1]
 8002f3c:	2300      	movs	r3, #0
 8002f3e:	8723      	strh	r3, [r4, #56]	; 0x38
 8002f40:	4b02      	ldr	r3, [pc, #8]	; (8002f4c <ghostMan_doSit+0x4c>)
 8002f42:	61e3      	str	r3, [r4, #28]
 8002f44:	bc70      	pop	{r4, r5, r6}
 8002f46:	bc01      	pop	{r0}
 8002f48:	4700      	bx	r0
 8002f4a:	46c0      	nop			; (mov r8, r8)
 8002f4c:	080329c8 	.word	0x080329c8

08002f50 <ghostMan_doFollow>:
 8002f50:	b5f0      	push	{r4, r5, r6, r7, lr}
 8002f52:	2621      	movs	r6, #33	; 0x21
 8002f54:	277b      	movs	r7, #123	; 0x7b
 8002f56:	5d83      	ldrb	r3, [r0, r6]
 8002f58:	403b      	ands	r3, r7
 8002f5a:	6d05      	ldr	r5, [r0, #80]	; 0x50
 8002f5c:	b083      	sub	sp, #12
 8002f5e:	5583      	strb	r3, [r0, r6]
 8002f60:	0004      	movs	r4, r0
 8002f62:	f7fe fb57 	bl	8001614 <commonUpdateAnimation>
 8002f66:	2801      	cmp	r0, #1
 8002f68:	d105      	bne.n	8002f76 <ghostMan_doFollow+0x26>
 8002f6a:	5da3      	ldrb	r3, [r4, r6]
 8002f6c:	401f      	ands	r7, r3
 8002f6e:	237c      	movs	r3, #124	; 0x7c
 8002f70:	425b      	negs	r3, r3
 8002f72:	433b      	orrs	r3, r7
 8002f74:	55a3      	strb	r3, [r4, r6]
 8002f76:	2336      	movs	r3, #54	; 0x36
 8002f78:	2135      	movs	r1, #53	; 0x35
 8002f7a:	200f      	movs	r0, #15
 8002f7c:	5ce2      	ldrb	r2, [r4, r3]
 8002f7e:	3b02      	subs	r3, #2
 8002f80:	54e2      	strb	r2, [r4, r3]
 8002f82:	3303      	adds	r3, #3
 8002f84:	5ce2      	ldrb	r2, [r4, r3]
 8002f86:	5c63      	ldrb	r3, [r4, r1]
 8002f88:	4002      	ands	r2, r0
 8002f8a:	4383      	bics	r3, r0
 8002f8c:	4313      	orrs	r3, r2
 8002f8e:	5463      	strb	r3, [r4, r1]
 8002f90:	88aa      	ldrh	r2, [r5, #4]
 8002f92:	3214      	adds	r2, #20
 8002f94:	0412      	lsls	r2, r2, #16
 8002f96:	1412      	asrs	r2, r2, #16
 8002f98:	87a2      	strh	r2, [r4, #60]	; 0x3c
 8002f9a:	3104      	adds	r1, #4
 8002f9c:	5c63      	ldrb	r3, [r4, r1]
 8002f9e:	3301      	adds	r3, #1
 8002fa0:	061b      	lsls	r3, r3, #24
 8002fa2:	0e1b      	lsrs	r3, r3, #24
 8002fa4:	5463      	strb	r3, [r4, r1]
 8002fa6:	3029      	adds	r0, #41	; 0x29
 8002fa8:	5c20      	ldrb	r0, [r4, r0]
 8002faa:	4298      	cmp	r0, r3
 8002fac:	d814      	bhi.n	8002fd8 <ghostMan_doFollow+0x88>
 8002fae:	2004      	movs	r0, #4
 8002fb0:	5e2b      	ldrsh	r3, [r5, r0]
 8002fb2:	1a9b      	subs	r3, r3, r2
 8002fb4:	2200      	movs	r2, #0
 8002fb6:	5462      	strb	r2, [r4, r1]
 8002fb8:	1119      	asrs	r1, r3, #4
 8002fba:	2b00      	cmp	r3, #0
 8002fbc:	db12      	blt.n	8002fe4 <ghostMan_doFollow+0x94>
 8002fbe:	2900      	cmp	r1, #0
 8002fc0:	d112      	bne.n	8002fe8 <ghostMan_doFollow+0x98>
 8002fc2:	2300      	movs	r3, #0
 8002fc4:	43cd      	mvns	r5, r1
 8002fc6:	0fc8      	lsrs	r0, r1, #31
 8002fc8:	0fed      	lsrs	r5, r5, #31
 8002fca:	1a2d      	subs	r5, r5, r0
 8002fcc:	4369      	muls	r1, r5
 8002fce:	4808      	ldr	r0, [pc, #32]	; (8002ff0 <ghostMan_doFollow+0xa0>)
 8002fd0:	9100      	str	r1, [sp, #0]
 8002fd2:	2100      	movs	r1, #0
 8002fd4:	f003 fa22 	bl	800641c <msound_setChannel3d>
 8002fd8:	4b06      	ldr	r3, [pc, #24]	; (8002ff4 <ghostMan_doFollow+0xa4>)
 8002fda:	61e3      	str	r3, [r4, #28]
 8002fdc:	b003      	add	sp, #12
 8002fde:	bcf0      	pop	{r4, r5, r6, r7}
 8002fe0:	bc01      	pop	{r0}
 8002fe2:	4700      	bx	r0
 8002fe4:	2206      	movs	r2, #6
 8002fe6:	e7ec      	b.n	8002fc2 <ghostMan_doFollow+0x72>
 8002fe8:	2200      	movs	r2, #0
 8002fea:	2306      	movs	r3, #6
 8002fec:	e7ea      	b.n	8002fc4 <ghostMan_doFollow+0x74>
 8002fee:	46c0      	nop			; (mov r8, r8)
 8002ff0:	0801f288 	.word	0x0801f288
 8002ff4:	08032a88 	.word	0x08032a88

08002ff8 <ghostMan_doTransitionToFollow>:
 8002ff8:	b5f0      	push	{r4, r5, r6, r7, lr}
 8002ffa:	46c6      	mov	lr, r8
 8002ffc:	2721      	movs	r7, #33	; 0x21
 8002ffe:	227b      	movs	r2, #123	; 0x7b
 8003000:	b500      	push	{lr}
 8003002:	5dc3      	ldrb	r3, [r0, r7]
 8003004:	4013      	ands	r3, r2
 8003006:	6d06      	ldr	r6, [r0, #80]	; 0x50
 8003008:	b086      	sub	sp, #24
 800300a:	55c3      	strb	r3, [r0, r7]
 800300c:	0004      	movs	r4, r0
 800300e:	000d      	movs	r5, r1
 8003010:	4690      	mov	r8, r2
 8003012:	f7fe faff 	bl	8001614 <commonUpdateAnimation>
 8003016:	2801      	cmp	r0, #1
 8003018:	d107      	bne.n	800302a <ghostMan_doTransitionToFollow+0x32>
 800301a:	4642      	mov	r2, r8
 800301c:	5de3      	ldrb	r3, [r4, r7]
 800301e:	401a      	ands	r2, r3
 8003020:	0013      	movs	r3, r2
 8003022:	227c      	movs	r2, #124	; 0x7c
 8003024:	4252      	negs	r2, r2
 8003026:	4313      	orrs	r3, r2
 8003028:	55e3      	strb	r3, [r4, r7]
 800302a:	2336      	movs	r3, #54	; 0x36
 800302c:	2135      	movs	r1, #53	; 0x35
 800302e:	200f      	movs	r0, #15
 8003030:	2722      	movs	r7, #34	; 0x22
 8003032:	5ce2      	ldrb	r2, [r4, r3]
 8003034:	3b02      	subs	r3, #2
 8003036:	54e2      	strb	r2, [r4, r3]
 8003038:	3303      	adds	r3, #3
 800303a:	5ce2      	ldrb	r2, [r4, r3]
 800303c:	5c63      	ldrb	r3, [r4, r1]
 800303e:	4002      	ands	r2, r0
 8003040:	4383      	bics	r3, r0
 8003042:	4313      	orrs	r3, r2
 8003044:	5463      	strb	r3, [r4, r1]
 8003046:	5de2      	ldrb	r2, [r4, r7]
 8003048:	2a05      	cmp	r2, #5
 800304a:	d017      	beq.n	800307c <ghostMan_doTransitionToFollow+0x84>
 800304c:	0013      	movs	r3, r2
 800304e:	3b1e      	subs	r3, #30
 8003050:	4259      	negs	r1, r3
 8003052:	414b      	adcs	r3, r1
 8003054:	0011      	movs	r1, r2
 8003056:	393c      	subs	r1, #60	; 0x3c
 8003058:	4248      	negs	r0, r1
 800305a:	4141      	adcs	r1, r0
 800305c:	430b      	orrs	r3, r1
 800305e:	d109      	bne.n	8003074 <ghostMan_doTransitionToFollow+0x7c>
 8003060:	2a5a      	cmp	r2, #90	; 0x5a
 8003062:	d007      	beq.n	8003074 <ghostMan_doTransitionToFollow+0x7c>
 8003064:	4b10      	ldr	r3, [pc, #64]	; (80030a8 <ghostMan_doTransitionToFollow+0xb0>)
 8003066:	61e3      	str	r3, [r4, #28]
 8003068:	b006      	add	sp, #24
 800306a:	bc80      	pop	{r7}
 800306c:	46b8      	mov	r8, r7
 800306e:	bcf0      	pop	{r4, r5, r6, r7}
 8003070:	bc01      	pop	{r0}
 8003072:	4700      	bx	r0
 8003074:	0028      	movs	r0, r5
 8003076:	f003 fe1d 	bl	8006cb4 <mapCommon_initFlashScreen>
 800307a:	e7f3      	b.n	8003064 <ghostMan_doTransitionToFollow+0x6c>
 800307c:	2204      	movs	r2, #4
 800307e:	5eb3      	ldrsh	r3, [r6, r2]
 8003080:	213c      	movs	r1, #60	; 0x3c
 8003082:	5e62      	ldrsh	r2, [r4, r1]
 8003084:	a803      	add	r0, sp, #12
 8003086:	1a9b      	subs	r3, r3, r2
 8003088:	a904      	add	r1, sp, #16
 800308a:	aa05      	add	r2, sp, #20
 800308c:	9303      	str	r3, [sp, #12]
 800308e:	f003 fbcf 	bl	8006830 <msound_process3dSound>
 8003092:	9903      	ldr	r1, [sp, #12]
 8003094:	9a04      	ldr	r2, [sp, #16]
 8003096:	9100      	str	r1, [sp, #0]
 8003098:	9b05      	ldr	r3, [sp, #20]
 800309a:	2100      	movs	r1, #0
 800309c:	4803      	ldr	r0, [pc, #12]	; (80030ac <ghostMan_doTransitionToFollow+0xb4>)
 800309e:	f003 f9bd 	bl	800641c <msound_setChannel3d>
 80030a2:	5de2      	ldrb	r2, [r4, r7]
 80030a4:	e7d2      	b.n	800304c <ghostMan_doTransitionToFollow+0x54>
 80030a6:	46c0      	nop			; (mov r8, r8)
 80030a8:	080329c0 	.word	0x080329c0
 80030ac:	0802241c 	.word	0x0802241c

080030b0 <ghostMan_setPosition>:
 80030b0:	b570      	push	{r4, r5, r6, lr}
 80030b2:	0004      	movs	r4, r0
 80030b4:	0025      	movs	r5, r4
 80030b6:	8fc3      	ldrh	r3, [r0, #62]	; 0x3e
 80030b8:	8850      	ldrh	r0, [r2, #2]
 80030ba:	1a1b      	subs	r3, r3, r0
 80030bc:	3520      	adds	r5, #32
 80030be:	3b18      	subs	r3, #24
 80030c0:	712b      	strb	r3, [r5, #4]
 80030c2:	8812      	ldrh	r2, [r2, #0]
 80030c4:	8fa3      	ldrh	r3, [r4, #60]	; 0x3c
 80030c6:	480e      	ldr	r0, [pc, #56]	; (8003100 <ghostMan_setPosition+0x50>)
 80030c8:	1a9b      	subs	r3, r3, r2
 80030ca:	6a62      	ldr	r2, [r4, #36]	; 0x24
 80030cc:	4002      	ands	r2, r0
 80030ce:	0020      	movs	r0, r4
 80030d0:	3b05      	subs	r3, #5
 80030d2:	05db      	lsls	r3, r3, #23
 80030d4:	0bdb      	lsrs	r3, r3, #15
 80030d6:	4313      	orrs	r3, r2
 80030d8:	6263      	str	r3, [r4, #36]	; 0x24
 80030da:	301c      	adds	r0, #28
 80030dc:	f7fe f932 	bl	8001344 <commonSetToOamBuffer>
 80030e0:	2202      	movs	r2, #2
 80030e2:	79ab      	ldrb	r3, [r5, #6]
 80030e4:	4313      	orrs	r3, r2
 80030e6:	71ab      	strb	r3, [r5, #6]
 80030e8:	2323      	movs	r3, #35	; 0x23
 80030ea:	69e2      	ldr	r2, [r4, #28]
 80030ec:	5ce3      	ldrb	r3, [r4, r3]
 80030ee:	6812      	ldr	r2, [r2, #0]
 80030f0:	065b      	lsls	r3, r3, #25
 80030f2:	0d9b      	lsrs	r3, r3, #22
 80030f4:	18d3      	adds	r3, r2, r3
 80030f6:	88d8      	ldrh	r0, [r3, #6]
 80030f8:	bc70      	pop	{r4, r5, r6}
 80030fa:	bc02      	pop	{r1}
 80030fc:	4708      	bx	r1
 80030fe:	46c0      	nop			; (mov r8, r8)
 8003100:	fffe00ff 	.word	0xfffe00ff

08003104 <ghostMan_init>:
 8003104:	23c0      	movs	r3, #192	; 0xc0
 8003106:	b570      	push	{r4, r5, r6, lr}
 8003108:	009b      	lsls	r3, r3, #2
 800310a:	0004      	movs	r4, r0
 800310c:	b082      	sub	sp, #8
 800310e:	8603      	strh	r3, [r0, #48]	; 0x30
 8003110:	000d      	movs	r5, r1
 8003112:	f003 fbbf 	bl	8006894 <sprite_vram_findId>
 8003116:	2380      	movs	r3, #128	; 0x80
 8003118:	8c22      	ldrh	r2, [r4, #32]
 800311a:	0580      	lsls	r0, r0, #22
 800311c:	0d80      	lsrs	r0, r0, #22
 800311e:	00db      	lsls	r3, r3, #3
 8003120:	0ad2      	lsrs	r2, r2, #11
 8003122:	02d2      	lsls	r2, r2, #11
 8003124:	4303      	orrs	r3, r0
 8003126:	4313      	orrs	r3, r2
 8003128:	8423      	strh	r3, [r4, #32]
 800312a:	2101      	movs	r1, #1
 800312c:	2003      	movs	r0, #3
 800312e:	f003 fc1d 	bl	800696c <sprite_palette_findId>
 8003132:	0022      	movs	r2, r4
 8003134:	210f      	movs	r1, #15
 8003136:	2678      	movs	r6, #120	; 0x78
 8003138:	3220      	adds	r2, #32
 800313a:	7853      	ldrb	r3, [r2, #1]
 800313c:	4001      	ands	r1, r0
 800313e:	00c8      	lsls	r0, r1, #3
 8003140:	43b3      	bics	r3, r6
 8003142:	4303      	orrs	r3, r0
 8003144:	7053      	strb	r3, [r2, #1]
 8003146:	4813      	ldr	r0, [pc, #76]	; (8003194 <ghostMan_init+0x90>)
 8003148:	f003 fc6a 	bl	8006a20 <sprite_palette_copy32_ID>
 800314c:	2101      	movs	r1, #1
 800314e:	0020      	movs	r0, r4
 8003150:	2306      	movs	r3, #6
 8003152:	2200      	movs	r2, #0
 8003154:	4249      	negs	r1, r1
 8003156:	f7fe f84d 	bl	80011f4 <commonCharacterInit>
 800315a:	2306      	movs	r3, #6
 800315c:	2200      	movs	r2, #0
 800315e:	2100      	movs	r1, #0
 8003160:	0020      	movs	r0, r4
 8003162:	9300      	str	r3, [sp, #0]
 8003164:	2300      	movs	r3, #0
 8003166:	f7fe f82f 	bl	80011c8 <commonCharacterSetPosition>
 800316a:	4b0b      	ldr	r3, [pc, #44]	; (8003198 <ghostMan_init+0x94>)
 800316c:	6023      	str	r3, [r4, #0]
 800316e:	4b0b      	ldr	r3, [pc, #44]	; (800319c <ghostMan_init+0x98>)
 8003170:	6063      	str	r3, [r4, #4]
 8003172:	4b0b      	ldr	r3, [pc, #44]	; (80031a0 <ghostMan_init+0x9c>)
 8003174:	60a3      	str	r3, [r4, #8]
 8003176:	4b0b      	ldr	r3, [pc, #44]	; (80031a4 <ghostMan_init+0xa0>)
 8003178:	60e3      	str	r3, [r4, #12]
 800317a:	4b0b      	ldr	r3, [pc, #44]	; (80031a8 <ghostMan_init+0xa4>)
 800317c:	6123      	str	r3, [r4, #16]
 800317e:	4b0b      	ldr	r3, [pc, #44]	; (80031ac <ghostMan_init+0xa8>)
 8003180:	0028      	movs	r0, r5
 8003182:	6163      	str	r3, [r4, #20]
 8003184:	f002 fca6 	bl	8005ad4 <mchar_getControlType>
 8003188:	6520      	str	r0, [r4, #80]	; 0x50
 800318a:	b002      	add	sp, #8
 800318c:	bc70      	pop	{r4, r5, r6}
 800318e:	bc01      	pop	{r0}
 8003190:	4700      	bx	r0
 8003192:	46c0      	nop			; (mov r8, r8)
 8003194:	0802e4a8 	.word	0x0802e4a8
 8003198:	080033e5 	.word	0x080033e5
 800319c:	08002ed5 	.word	0x08002ed5
 80031a0:	080030b1 	.word	0x080030b1
 80031a4:	08002ef5 	.word	0x08002ef5
 80031a8:	08002ef9 	.word	0x08002ef9
 80031ac:	08002efd 	.word	0x08002efd
 80031b0:	4720      	bx	r4
 80031b2:	46c0      	nop			; (mov r8, r8)

080031b4 <ghostlyHand_doAction>:
 80031b4:	b570      	push	{r4, r5, r6, lr}
 80031b6:	2436      	movs	r4, #54	; 0x36
 80031b8:	5d04      	ldrb	r4, [r0, r4]
 80031ba:	2c01      	cmp	r4, #1
 80031bc:	d804      	bhi.n	80031c8 <ghostlyHand_doAction+0x14>
 80031be:	4d04      	ldr	r5, [pc, #16]	; (80031d0 <ghostlyHand_doAction+0x1c>)
 80031c0:	00a4      	lsls	r4, r4, #2
 80031c2:	5964      	ldr	r4, [r4, r5]
 80031c4:	f000 f8fc 	bl	80033c0 <ghostlyHand_init+0xac>
 80031c8:	bc70      	pop	{r4, r5, r6}
 80031ca:	bc01      	pop	{r0}
 80031cc:	4700      	bx	r0
 80031ce:	46c0      	nop			; (mov r8, r8)
 80031d0:	08008888 	.word	0x08008888

080031d4 <ghostlyHand_getBoundingBox>:
 80031d4:	4770      	bx	lr
 80031d6:	46c0      	nop			; (mov r8, r8)

080031d8 <ghostlyHand_checkCollision>:
 80031d8:	4770      	bx	lr
 80031da:	46c0      	nop			; (mov r8, r8)

080031dc <ghostlyHand_checkMapCollision>:
 80031dc:	4770      	bx	lr
 80031de:	46c0      	nop			; (mov r8, r8)

080031e0 <ghostlyHand_setPosition>:
 80031e0:	b570      	push	{r4, r5, r6, lr}
 80031e2:	0004      	movs	r4, r0
 80031e4:	0025      	movs	r5, r4
 80031e6:	8fc3      	ldrh	r3, [r0, #62]	; 0x3e
 80031e8:	8850      	ldrh	r0, [r2, #2]
 80031ea:	1a1b      	subs	r3, r3, r0
 80031ec:	3520      	adds	r5, #32
 80031ee:	3b18      	subs	r3, #24
 80031f0:	712b      	strb	r3, [r5, #4]
 80031f2:	8812      	ldrh	r2, [r2, #0]
 80031f4:	8fa3      	ldrh	r3, [r4, #60]	; 0x3c
 80031f6:	480e      	ldr	r0, [pc, #56]	; (8003230 <ghostlyHand_setPosition+0x50>)
 80031f8:	1a9b      	subs	r3, r3, r2
 80031fa:	6a62      	ldr	r2, [r4, #36]	; 0x24
 80031fc:	4002      	ands	r2, r0
 80031fe:	0020      	movs	r0, r4
 8003200:	3b05      	subs	r3, #5
 8003202:	05db      	lsls	r3, r3, #23
 8003204:	0bdb      	lsrs	r3, r3, #15
 8003206:	4313      	orrs	r3, r2
 8003208:	6263      	str	r3, [r4, #36]	; 0x24
 800320a:	301c      	adds	r0, #28
 800320c:	f7fe f89a 	bl	8001344 <commonSetToOamBuffer>
 8003210:	2202      	movs	r2, #2
 8003212:	79ab      	ldrb	r3, [r5, #6]
 8003214:	4313      	orrs	r3, r2
 8003216:	71ab      	strb	r3, [r5, #6]
 8003218:	2323      	movs	r3, #35	; 0x23
 800321a:	69e2      	ldr	r2, [r4, #28]
 800321c:	5ce3      	ldrb	r3, [r4, r3]
 800321e:	6812      	ldr	r2, [r2, #0]
 8003220:	065b      	lsls	r3, r3, #25
 8003222:	0d9b      	lsrs	r3, r3, #22
 8003224:	18d3      	adds	r3, r2, r3
 8003226:	88d8      	ldrh	r0, [r3, #6]
 8003228:	bc70      	pop	{r4, r5, r6}
 800322a:	bc02      	pop	{r1}
 800322c:	4708      	bx	r1
 800322e:	46c0      	nop			; (mov r8, r8)
 8003230:	fffe00ff 	.word	0xfffe00ff

08003234 <ghostlyHand_doHide>:
 8003234:	2221      	movs	r2, #33	; 0x21
 8003236:	237b      	movs	r3, #123	; 0x7b
 8003238:	b510      	push	{r4, lr}
 800323a:	5c81      	ldrb	r1, [r0, r2]
 800323c:	400b      	ands	r3, r1
 800323e:	5483      	strb	r3, [r0, r2]
 8003240:	0004      	movs	r4, r0
 8003242:	f7fe f9d1 	bl	80015e8 <commonInitializeAction>
 8003246:	2801      	cmp	r0, #1
 8003248:	d106      	bne.n	8003258 <ghostlyHand_doHide+0x24>
 800324a:	6a22      	ldr	r2, [r4, #32]
 800324c:	4b0c      	ldr	r3, [pc, #48]	; (8003280 <ghostlyHand_doHide+0x4c>)
 800324e:	401a      	ands	r2, r3
 8003250:	2384      	movs	r3, #132	; 0x84
 8003252:	021b      	lsls	r3, r3, #8
 8003254:	4313      	orrs	r3, r2
 8003256:	6223      	str	r3, [r4, #32]
 8003258:	2336      	movs	r3, #54	; 0x36
 800325a:	2135      	movs	r1, #53	; 0x35
 800325c:	200f      	movs	r0, #15
 800325e:	5ce2      	ldrb	r2, [r4, r3]
 8003260:	3b02      	subs	r3, #2
 8003262:	54e2      	strb	r2, [r4, r3]
 8003264:	3303      	adds	r3, #3
 8003266:	5ce2      	ldrb	r2, [r4, r3]
 8003268:	5c63      	ldrb	r3, [r4, r1]
 800326a:	4002      	ands	r2, r0
 800326c:	4383      	bics	r3, r0
 800326e:	4313      	orrs	r3, r2
 8003270:	5463      	strb	r3, [r4, r1]
 8003272:	2300      	movs	r3, #0
 8003274:	8723      	strh	r3, [r4, #56]	; 0x38
 8003276:	4b03      	ldr	r3, [pc, #12]	; (8003284 <ghostlyHand_doHide+0x50>)
 8003278:	61e3      	str	r3, [r4, #28]
 800327a:	bc10      	pop	{r4}
 800327c:	bc01      	pop	{r0}
 800327e:	4700      	bx	r0
 8003280:	80ff7bff 	.word	0x80ff7bff
 8003284:	08032a70 	.word	0x08032a70

08003288 <ghostlyHand_doAppear>:
 8003288:	b570      	push	{r4, r5, r6, lr}
 800328a:	2521      	movs	r5, #33	; 0x21
 800328c:	267b      	movs	r6, #123	; 0x7b
 800328e:	5d43      	ldrb	r3, [r0, r5]
 8003290:	4033      	ands	r3, r6
 8003292:	b086      	sub	sp, #24
 8003294:	5543      	strb	r3, [r0, r5]
 8003296:	0004      	movs	r4, r0
 8003298:	f7fe f9bc 	bl	8001614 <commonUpdateAnimation>
 800329c:	2801      	cmp	r0, #1
 800329e:	d105      	bne.n	80032ac <ghostlyHand_doAppear+0x24>
 80032a0:	5d63      	ldrb	r3, [r4, r5]
 80032a2:	401e      	ands	r6, r3
 80032a4:	237c      	movs	r3, #124	; 0x7c
 80032a6:	425b      	negs	r3, r3
 80032a8:	4333      	orrs	r3, r6
 80032aa:	5563      	strb	r3, [r4, r5]
 80032ac:	2336      	movs	r3, #54	; 0x36
 80032ae:	2135      	movs	r1, #53	; 0x35
 80032b0:	200f      	movs	r0, #15
 80032b2:	5ce2      	ldrb	r2, [r4, r3]
 80032b4:	3b02      	subs	r3, #2
 80032b6:	54e2      	strb	r2, [r4, r3]
 80032b8:	3303      	adds	r3, #3
 80032ba:	5ce2      	ldrb	r2, [r4, r3]
 80032bc:	5c63      	ldrb	r3, [r4, r1]
 80032be:	4002      	ands	r2, r0
 80032c0:	4383      	bics	r3, r0
 80032c2:	4313      	orrs	r3, r2
 80032c4:	5463      	strb	r3, [r4, r1]
 80032c6:	2322      	movs	r3, #34	; 0x22
 80032c8:	5ce3      	ldrb	r3, [r4, r3]
 80032ca:	2b00      	cmp	r3, #0
 80032cc:	d103      	bne.n	80032d6 <ghostlyHand_doAppear+0x4e>
 80032ce:	3323      	adds	r3, #35	; 0x23
 80032d0:	5ce3      	ldrb	r3, [r4, r3]
 80032d2:	065b      	lsls	r3, r3, #25
 80032d4:	d105      	bne.n	80032e2 <ghostlyHand_doAppear+0x5a>
 80032d6:	4b0d      	ldr	r3, [pc, #52]	; (800330c <ghostlyHand_doAppear+0x84>)
 80032d8:	61e3      	str	r3, [r4, #28]
 80032da:	b006      	add	sp, #24
 80032dc:	bc70      	pop	{r4, r5, r6}
 80032de:	bc01      	pop	{r0}
 80032e0:	4700      	bx	r0
 80032e2:	6d23      	ldr	r3, [r4, #80]	; 0x50
 80032e4:	2204      	movs	r2, #4
 80032e6:	5e9b      	ldrsh	r3, [r3, r2]
 80032e8:	213c      	movs	r1, #60	; 0x3c
 80032ea:	5e62      	ldrsh	r2, [r4, r1]
 80032ec:	a803      	add	r0, sp, #12
 80032ee:	1a9b      	subs	r3, r3, r2
 80032f0:	a904      	add	r1, sp, #16
 80032f2:	aa05      	add	r2, sp, #20
 80032f4:	9303      	str	r3, [sp, #12]
 80032f6:	f003 fa9b 	bl	8006830 <msound_process3dSound>
 80032fa:	9903      	ldr	r1, [sp, #12]
 80032fc:	9b05      	ldr	r3, [sp, #20]
 80032fe:	9100      	str	r1, [sp, #0]
 8003300:	9a04      	ldr	r2, [sp, #16]
 8003302:	2100      	movs	r1, #0
 8003304:	4802      	ldr	r0, [pc, #8]	; (8003310 <ghostlyHand_doAppear+0x88>)
 8003306:	f003 f889 	bl	800641c <msound_setChannel3d>
 800330a:	e7e4      	b.n	80032d6 <ghostlyHand_doAppear+0x4e>
 800330c:	080329e8 	.word	0x080329e8
 8003310:	0802b0f4 	.word	0x0802b0f4

08003314 <ghostlyHand_init>:
 8003314:	2380      	movs	r3, #128	; 0x80
 8003316:	b570      	push	{r4, r5, r6, lr}
 8003318:	009b      	lsls	r3, r3, #2
 800331a:	0004      	movs	r4, r0
 800331c:	b082      	sub	sp, #8
 800331e:	8603      	strh	r3, [r0, #48]	; 0x30
 8003320:	000d      	movs	r5, r1
 8003322:	f003 fab7 	bl	8006894 <sprite_vram_findId>
 8003326:	2380      	movs	r3, #128	; 0x80
 8003328:	8c22      	ldrh	r2, [r4, #32]
 800332a:	0580      	lsls	r0, r0, #22
 800332c:	0d80      	lsrs	r0, r0, #22
 800332e:	00db      	lsls	r3, r3, #3
 8003330:	0ad2      	lsrs	r2, r2, #11
 8003332:	02d2      	lsls	r2, r2, #11
 8003334:	4303      	orrs	r3, r0
 8003336:	4313      	orrs	r3, r2
 8003338:	8423      	strh	r3, [r4, #32]
 800333a:	2101      	movs	r1, #1
 800333c:	2002      	movs	r0, #2
 800333e:	f003 fb15 	bl	800696c <sprite_palette_findId>
 8003342:	0022      	movs	r2, r4
 8003344:	210f      	movs	r1, #15
 8003346:	2678      	movs	r6, #120	; 0x78
 8003348:	3220      	adds	r2, #32
 800334a:	7853      	ldrb	r3, [r2, #1]
 800334c:	4001      	ands	r1, r0
 800334e:	00c8      	lsls	r0, r1, #3
 8003350:	43b3      	bics	r3, r6
 8003352:	4303      	orrs	r3, r0
 8003354:	7053      	strb	r3, [r2, #1]
 8003356:	4813      	ldr	r0, [pc, #76]	; (80033a4 <ghostlyHand_init+0x90>)
 8003358:	f003 fb62 	bl	8006a20 <sprite_palette_copy32_ID>
 800335c:	2101      	movs	r1, #1
 800335e:	0020      	movs	r0, r4
 8003360:	2306      	movs	r3, #6
 8003362:	2200      	movs	r2, #0
 8003364:	4249      	negs	r1, r1
 8003366:	f7fd ff45 	bl	80011f4 <commonCharacterInit>
 800336a:	2306      	movs	r3, #6
 800336c:	2200      	movs	r2, #0
 800336e:	2100      	movs	r1, #0
 8003370:	0020      	movs	r0, r4
 8003372:	9300      	str	r3, [sp, #0]
 8003374:	2300      	movs	r3, #0
 8003376:	f7fd ff27 	bl	80011c8 <commonCharacterSetPosition>
 800337a:	4b0b      	ldr	r3, [pc, #44]	; (80033a8 <ghostlyHand_init+0x94>)
 800337c:	6023      	str	r3, [r4, #0]
 800337e:	4b0b      	ldr	r3, [pc, #44]	; (80033ac <ghostlyHand_init+0x98>)
 8003380:	6063      	str	r3, [r4, #4]
 8003382:	4b0b      	ldr	r3, [pc, #44]	; (80033b0 <ghostlyHand_init+0x9c>)
 8003384:	60a3      	str	r3, [r4, #8]
 8003386:	4b0b      	ldr	r3, [pc, #44]	; (80033b4 <ghostlyHand_init+0xa0>)
 8003388:	60e3      	str	r3, [r4, #12]
 800338a:	4b0b      	ldr	r3, [pc, #44]	; (80033b8 <ghostlyHand_init+0xa4>)
 800338c:	6123      	str	r3, [r4, #16]
 800338e:	4b0b      	ldr	r3, [pc, #44]	; (80033bc <ghostlyHand_init+0xa8>)
 8003390:	0028      	movs	r0, r5
 8003392:	6163      	str	r3, [r4, #20]
 8003394:	f002 fb9e 	bl	8005ad4 <mchar_getControlType>
 8003398:	6520      	str	r0, [r4, #80]	; 0x50
 800339a:	b002      	add	sp, #8
 800339c:	bc70      	pop	{r4, r5, r6}
 800339e:	bc01      	pop	{r0}
 80033a0:	4700      	bx	r0
 80033a2:	46c0      	nop			; (mov r8, r8)
 80033a4:	0802e37c 	.word	0x0802e37c
 80033a8:	080033c5 	.word	0x080033c5
 80033ac:	080031b5 	.word	0x080031b5
 80033b0:	080031e1 	.word	0x080031e1
 80033b4:	080031d5 	.word	0x080031d5
 80033b8:	080031d9 	.word	0x080031d9
 80033bc:	080031dd 	.word	0x080031dd
 80033c0:	4720      	bx	r4
 80033c2:	46c0      	nop			; (mov r8, r8)

080033c4 <ghostlyHand_controller>:
 80033c4:	23c0      	movs	r3, #192	; 0xc0
 80033c6:	00db      	lsls	r3, r3, #3
 80033c8:	86c3      	strh	r3, [r0, #54]	; 0x36
 80033ca:	4770      	bx	lr

080033cc <ghostlyHand_setCharacter>:
 80033cc:	4b01      	ldr	r3, [pc, #4]	; (80033d4 <ghostlyHand_setCharacter+0x8>)
 80033ce:	6003      	str	r3, [r0, #0]
 80033d0:	4770      	bx	lr
 80033d2:	46c0      	nop			; (mov r8, r8)
 80033d4:	080033c5 	.word	0x080033c5

080033d8 <ghostMan_followController>:
 80033d8:	4b01      	ldr	r3, [pc, #4]	; (80033e0 <ghostMan_followController+0x8>)
 80033da:	86c3      	strh	r3, [r0, #54]	; 0x36
 80033dc:	4770      	bx	lr
 80033de:	46c0      	nop			; (mov r8, r8)
 80033e0:	00000602 	.word	0x00000602

080033e4 <ghostMan_controller>:
 80033e4:	b570      	push	{r4, r5, r6, lr}
 80033e6:	2101      	movs	r1, #1
 80033e8:	0004      	movs	r4, r0
 80033ea:	b08a      	sub	sp, #40	; 0x28
 80033ec:	0010      	movs	r0, r2
 80033ee:	f002 fb0b 	bl	8005a08 <mchar_findCharacterType>
 80033f2:	22c0      	movs	r2, #192	; 0xc0
 80033f4:	00d2      	lsls	r2, r2, #3
 80033f6:	86e2      	strh	r2, [r4, #54]	; 0x36
 80033f8:	8fa2      	ldrh	r2, [r4, #60]	; 0x3c
 80033fa:	0011      	movs	r1, r2
 80033fc:	ad02      	add	r5, sp, #8
 80033fe:	3920      	subs	r1, #32
 8003400:	3220      	adds	r2, #32
 8003402:	8029      	strh	r1, [r5, #0]
 8003404:	80aa      	strh	r2, [r5, #4]
 8003406:	8fe2      	ldrh	r2, [r4, #62]	; 0x3e
 8003408:	0011      	movs	r1, r2
 800340a:	3220      	adds	r2, #32
 800340c:	3920      	subs	r1, #32
 800340e:	6d23      	ldr	r3, [r4, #80]	; 0x50
 8003410:	8069      	strh	r1, [r5, #2]
 8003412:	80ea      	strh	r2, [r5, #6]
 8003414:	2800      	cmp	r0, #0
 8003416:	d004      	beq.n	8003422 <ghostMan_controller+0x3e>
 8003418:	0002      	movs	r2, r0
 800341a:	3304      	adds	r3, #4
 800341c:	323c      	adds	r2, #60	; 0x3c
 800341e:	ca42      	ldmia	r2!, {r1, r6}
 8003420:	c342      	stmia	r3!, {r1, r6}
 8003422:	68c3      	ldr	r3, [r0, #12]
 8003424:	a901      	add	r1, sp, #4
 8003426:	aa06      	add	r2, sp, #24
 8003428:	f000 f83e 	bl	80034a8 <ghostMan_setCharacter+0xc>
 800342c:	0028      	movs	r0, r5
 800342e:	a906      	add	r1, sp, #24
 8003430:	f7fe f9d6 	bl	80017e0 <hasCollision>
 8003434:	2800      	cmp	r0, #0
 8003436:	d005      	beq.n	8003444 <ghostMan_controller+0x60>
 8003438:	4b06      	ldr	r3, [pc, #24]	; (8003454 <ghostMan_controller+0x70>)
 800343a:	6023      	str	r3, [r4, #0]
 800343c:	b00a      	add	sp, #40	; 0x28
 800343e:	bc70      	pop	{r4, r5, r6}
 8003440:	bc01      	pop	{r0}
 8003442:	4700      	bx	r0
 8003444:	0029      	movs	r1, r5
 8003446:	a806      	add	r0, sp, #24
 8003448:	f7fe f9ca 	bl	80017e0 <hasCollision>
 800344c:	2800      	cmp	r0, #0
 800344e:	d1f3      	bne.n	8003438 <ghostMan_controller+0x54>
 8003450:	e7f4      	b.n	800343c <ghostMan_controller+0x58>
 8003452:	46c0      	nop			; (mov r8, r8)
 8003454:	08003459 	.word	0x08003459

08003458 <ghostMan_transistionToFollowController>:
 8003458:	b510      	push	{r4, lr}
 800345a:	b084      	sub	sp, #16
 800345c:	2300      	movs	r3, #0
 800345e:	466a      	mov	r2, sp
 8003460:	71d3      	strb	r3, [r2, #7]
 8003462:	4b0c      	ldr	r3, [pc, #48]	; (8003494 <ghostMan_transistionToFollowController+0x3c>)
 8003464:	86c3      	strh	r3, [r0, #54]	; 0x36
 8003466:	466b      	mov	r3, sp
 8003468:	aa03      	add	r2, sp, #12
 800346a:	3307      	adds	r3, #7
 800346c:	a902      	add	r1, sp, #8
 800346e:	0004      	movs	r4, r0
 8003470:	f7fe f90c 	bl	800168c <commonGetNextFrame>
 8003474:	466b      	mov	r3, sp
 8003476:	79db      	ldrb	r3, [r3, #7]
 8003478:	2b00      	cmp	r3, #0
 800347a:	d006      	beq.n	800348a <ghostMan_transistionToFollowController+0x32>
 800347c:	23dc      	movs	r3, #220	; 0xdc
 800347e:	2202      	movs	r2, #2
 8003480:	8723      	strh	r3, [r4, #56]	; 0x38
 8003482:	3ba6      	subs	r3, #166	; 0xa6
 8003484:	54e2      	strb	r2, [r4, r3]
 8003486:	4b04      	ldr	r3, [pc, #16]	; (8003498 <ghostMan_transistionToFollowController+0x40>)
 8003488:	6023      	str	r3, [r4, #0]
 800348a:	b004      	add	sp, #16
 800348c:	bc10      	pop	{r4}
 800348e:	bc01      	pop	{r0}
 8003490:	4700      	bx	r0
 8003492:	46c0      	nop			; (mov r8, r8)
 8003494:	00000601 	.word	0x00000601
 8003498:	080033d9 	.word	0x080033d9

0800349c <ghostMan_setCharacter>:
 800349c:	4b01      	ldr	r3, [pc, #4]	; (80034a4 <ghostMan_setCharacter+0x8>)
 800349e:	6003      	str	r3, [r0, #0]
 80034a0:	4770      	bx	lr
 80034a2:	46c0      	nop			; (mov r8, r8)
 80034a4:	080033e5 	.word	0x080033e5
 80034a8:	4718      	bx	r3
 80034aa:	46c0      	nop			; (mov r8, r8)

080034ac <kankandara_doAction>:
 80034ac:	b570      	push	{r4, r5, r6, lr}
 80034ae:	2436      	movs	r4, #54	; 0x36
 80034b0:	5d04      	ldrb	r4, [r0, r4]
 80034b2:	2c02      	cmp	r4, #2
 80034b4:	d804      	bhi.n	80034c0 <kankandara_doAction+0x14>
 80034b6:	4d04      	ldr	r5, [pc, #16]	; (80034c8 <kankandara_doAction+0x1c>)
 80034b8:	00a4      	lsls	r4, r4, #2
 80034ba:	5964      	ldr	r4, [r4, r5]
 80034bc:	f000 fa94 	bl	80039e8 <kankandara_crawlInit+0x1c>
 80034c0:	bc70      	pop	{r4, r5, r6}
 80034c2:	bc01      	pop	{r0}
 80034c4:	4700      	bx	r0
 80034c6:	46c0      	nop			; (mov r8, r8)
 80034c8:	08008898 	.word	0x08008898

080034cc <kankandara_getBoundingBoxStanding>:
 80034cc:	2301      	movs	r3, #1
 80034ce:	b510      	push	{r4, lr}
 80034d0:	600b      	str	r3, [r1, #0]
 80034d2:	8f81      	ldrh	r1, [r0, #60]	; 0x3c
 80034d4:	000c      	movs	r4, r1
 80034d6:	8fc3      	ldrh	r3, [r0, #62]	; 0x3e
 80034d8:	3c08      	subs	r4, #8
 80034da:	8014      	strh	r4, [r2, #0]
 80034dc:	001c      	movs	r4, r3
 80034de:	3308      	adds	r3, #8
 80034e0:	80d3      	strh	r3, [r2, #6]
 80034e2:	2335      	movs	r3, #53	; 0x35
 80034e4:	3108      	adds	r1, #8
 80034e6:	8091      	strh	r1, [r2, #4]
 80034e8:	2138      	movs	r1, #56	; 0x38
 80034ea:	3c08      	subs	r4, #8
 80034ec:	8054      	strh	r4, [r2, #2]
 80034ee:	5cc3      	ldrb	r3, [r0, r3]
 80034f0:	7b10      	ldrb	r0, [r2, #12]
 80034f2:	075b      	lsls	r3, r3, #29
 80034f4:	4001      	ands	r1, r0
 80034f6:	0f5b      	lsrs	r3, r3, #29
 80034f8:	430b      	orrs	r3, r1
 80034fa:	7313      	strb	r3, [r2, #12]
 80034fc:	bc10      	pop	{r4}
 80034fe:	bc01      	pop	{r0}
 8003500:	4700      	bx	r0
 8003502:	46c0      	nop			; (mov r8, r8)

08003504 <kankandara_checkCollision>:
 8003504:	2300      	movs	r3, #0
 8003506:	7013      	strb	r3, [r2, #0]
 8003508:	4770      	bx	lr
 800350a:	46c0      	nop			; (mov r8, r8)

0800350c <kankandara_checkActionEventCollision>:
 800350c:	4770      	bx	lr
 800350e:	46c0      	nop			; (mov r8, r8)

08003510 <kankandara_setPosition>:
 8003510:	b5f0      	push	{r4, r5, r6, r7, lr}
 8003512:	0005      	movs	r5, r0
 8003514:	464f      	mov	r7, r9
 8003516:	4646      	mov	r6, r8
 8003518:	46d6      	mov	lr, sl
 800351a:	b5c0      	push	{r6, r7, lr}
 800351c:	002e      	movs	r6, r5
 800351e:	4699      	mov	r9, r3
 8003520:	468a      	mov	sl, r1
 8003522:	233e      	movs	r3, #62	; 0x3e
 8003524:	5ec1      	ldrsh	r1, [r0, r3]
 8003526:	8850      	ldrh	r0, [r2, #2]
 8003528:	1a08      	subs	r0, r1, r0
 800352a:	381a      	subs	r0, #26
 800352c:	3620      	adds	r6, #32
 800352e:	7130      	strb	r0, [r6, #4]
 8003530:	6a6f      	ldr	r7, [r5, #36]	; 0x24
 8003532:	46bc      	mov	ip, r7
 8003534:	4f28      	ldr	r7, [pc, #160]	; (80035d8 <kankandara_setPosition+0xc8>)
 8003536:	46b8      	mov	r8, r7
 8003538:	233c      	movs	r3, #60	; 0x3c
 800353a:	5ee8      	ldrsh	r0, [r5, r3]
 800353c:	4667      	mov	r7, ip
 800353e:	4643      	mov	r3, r8
 8003540:	401f      	ands	r7, r3
 8003542:	231c      	movs	r3, #28
 8003544:	8814      	ldrh	r4, [r2, #0]
 8003546:	1b04      	subs	r4, r0, r4
 8003548:	3c08      	subs	r4, #8
 800354a:	05e4      	lsls	r4, r4, #23
 800354c:	0be4      	lsrs	r4, r4, #15
 800354e:	433c      	orrs	r4, r7
 8003550:	425b      	negs	r3, r3
 8003552:	626c      	str	r4, [r5, #36]	; 0x24
 8003554:	469c      	mov	ip, r3
 8003556:	0004      	movs	r4, r0
 8003558:	464b      	mov	r3, r9
 800355a:	b082      	sub	sp, #8
 800355c:	448c      	add	ip, r1
 800355e:	340a      	adds	r4, #10
 8003560:	9301      	str	r3, [sp, #4]
 8003562:	9200      	str	r2, [sp, #0]
 8003564:	4663      	mov	r3, ip
 8003566:	000a      	movs	r2, r1
 8003568:	380a      	subs	r0, #10
 800356a:	0021      	movs	r1, r4
 800356c:	f7fe f8ca 	bl	8001704 <commonIsInScreen>
 8003570:	2800      	cmp	r0, #0
 8003572:	d10c      	bne.n	800358e <kankandara_setPosition+0x7e>
 8003574:	2202      	movs	r2, #2
 8003576:	2000      	movs	r0, #0
 8003578:	79b3      	ldrb	r3, [r6, #6]
 800357a:	4393      	bics	r3, r2
 800357c:	71b3      	strb	r3, [r6, #6]
 800357e:	b002      	add	sp, #8
 8003580:	bce0      	pop	{r5, r6, r7}
 8003582:	46ba      	mov	sl, r7
 8003584:	46b1      	mov	r9, r6
 8003586:	46a8      	mov	r8, r5
 8003588:	bcf0      	pop	{r4, r5, r6, r7}
 800358a:	bc02      	pop	{r1}
 800358c:	4708      	bx	r1
 800358e:	2326      	movs	r3, #38	; 0x26
 8003590:	2221      	movs	r2, #33	; 0x21
 8003592:	2101      	movs	r1, #1
 8003594:	5ceb      	ldrb	r3, [r5, r3]
 8003596:	5caa      	ldrb	r2, [r5, r2]
 8003598:	079b      	lsls	r3, r3, #30
 800359a:	0fdb      	lsrs	r3, r3, #31
 800359c:	0892      	lsrs	r2, r2, #2
 800359e:	401a      	ands	r2, r3
 80035a0:	404b      	eors	r3, r1
 80035a2:	18d3      	adds	r3, r2, r3
 80035a4:	2201      	movs	r2, #1
 80035a6:	2104      	movs	r1, #4
 80035a8:	401a      	ands	r2, r3
 80035aa:	7873      	ldrb	r3, [r6, #1]
 80035ac:	0092      	lsls	r2, r2, #2
 80035ae:	438b      	bics	r3, r1
 80035b0:	4313      	orrs	r3, r2
 80035b2:	2202      	movs	r2, #2
 80035b4:	0028      	movs	r0, r5
 80035b6:	7073      	strb	r3, [r6, #1]
 80035b8:	79b3      	ldrb	r3, [r6, #6]
 80035ba:	4313      	orrs	r3, r2
 80035bc:	71b3      	strb	r3, [r6, #6]
 80035be:	301c      	adds	r0, #28
 80035c0:	4651      	mov	r1, sl
 80035c2:	f7fd febf 	bl	8001344 <commonSetToOamBuffer>
 80035c6:	2323      	movs	r3, #35	; 0x23
 80035c8:	69ea      	ldr	r2, [r5, #28]
 80035ca:	5ceb      	ldrb	r3, [r5, r3]
 80035cc:	6812      	ldr	r2, [r2, #0]
 80035ce:	065b      	lsls	r3, r3, #25
 80035d0:	0d9b      	lsrs	r3, r3, #22
 80035d2:	18d3      	adds	r3, r2, r3
 80035d4:	88d8      	ldrh	r0, [r3, #6]
 80035d6:	e7d2      	b.n	800357e <kankandara_setPosition+0x6e>
 80035d8:	fffe00ff 	.word	0xfffe00ff

080035dc <kankandara_checkMapCollision>:
 80035dc:	b510      	push	{r4, lr}
 80035de:	f7fd fe1f 	bl	8001220 <commonCharacterMapEdgeCheck>
 80035e2:	bc10      	pop	{r4}
 80035e4:	bc01      	pop	{r0}
 80035e6:	4700      	bx	r0

080035e8 <kankandara_actionWait>:
 80035e8:	b5f0      	push	{r4, r5, r6, r7, lr}
 80035ea:	0017      	movs	r7, r2
 80035ec:	2221      	movs	r2, #33	; 0x21
 80035ee:	237b      	movs	r3, #123	; 0x7b
 80035f0:	5c81      	ldrb	r1, [r0, r2]
 80035f2:	400b      	ands	r3, r1
 80035f4:	6d05      	ldr	r5, [r0, #80]	; 0x50
 80035f6:	b085      	sub	sp, #20
 80035f8:	5483      	strb	r3, [r0, r2]
 80035fa:	0004      	movs	r4, r0
 80035fc:	f7fd fff4 	bl	80015e8 <commonInitializeAction>
 8003600:	2801      	cmp	r0, #1
 8003602:	d106      	bne.n	8003612 <kankandara_actionWait+0x2a>
 8003604:	6a22      	ldr	r2, [r4, #32]
 8003606:	4b1d      	ldr	r3, [pc, #116]	; (800367c <kankandara_actionWait+0x94>)
 8003608:	401a      	ands	r2, r3
 800360a:	2384      	movs	r3, #132	; 0x84
 800360c:	021b      	lsls	r3, r3, #8
 800360e:	4313      	orrs	r3, r2
 8003610:	6223      	str	r3, [r4, #32]
 8003612:	2100      	movs	r1, #0
 8003614:	2336      	movs	r3, #54	; 0x36
 8003616:	2035      	movs	r0, #53	; 0x35
 8003618:	260f      	movs	r6, #15
 800361a:	6461      	str	r1, [r4, #68]	; 0x44
 800361c:	5ce2      	ldrb	r2, [r4, r3]
 800361e:	3b02      	subs	r3, #2
 8003620:	54e2      	strb	r2, [r4, r3]
 8003622:	3303      	adds	r3, #3
 8003624:	5ce2      	ldrb	r2, [r4, r3]
 8003626:	5c23      	ldrb	r3, [r4, r0]
 8003628:	4032      	ands	r2, r6
 800362a:	43b3      	bics	r3, r6
 800362c:	4313      	orrs	r3, r2
 800362e:	5423      	strb	r3, [r4, r0]
 8003630:	4b13      	ldr	r3, [pc, #76]	; (8003680 <kankandara_actionWait+0x98>)
 8003632:	61e3      	str	r3, [r4, #28]
 8003634:	8fa3      	ldrh	r3, [r4, #60]	; 0x3c
 8003636:	001a      	movs	r2, r3
 8003638:	8721      	strh	r1, [r4, #56]	; 0x38
 800363a:	4669      	mov	r1, sp
 800363c:	3a20      	subs	r2, #32
 800363e:	3320      	adds	r3, #32
 8003640:	800a      	strh	r2, [r1, #0]
 8003642:	808b      	strh	r3, [r1, #4]
 8003644:	8fe3      	ldrh	r3, [r4, #62]	; 0x3e
 8003646:	001a      	movs	r2, r3
 8003648:	3350      	adds	r3, #80	; 0x50
 800364a:	3220      	adds	r2, #32
 800364c:	804a      	strh	r2, [r1, #2]
 800364e:	80cb      	strh	r3, [r1, #6]
 8003650:	2200      	movs	r2, #0
 8003652:	2301      	movs	r3, #1
 8003654:	0038      	movs	r0, r7
 8003656:	f7ff fa33 	bl	8002ac0 <commonFindCharTypeInBoundingBox>
 800365a:	1d2b      	adds	r3, r5, #4
 800365c:	c806      	ldmia	r0!, {r1, r2}
 800365e:	c306      	stmia	r3!, {r1, r2}
 8003660:	1d28      	adds	r0, r5, #4
 8003662:	f7ff faf5 	bl	8002c50 <commonIsFoundPosition>
 8003666:	2800      	cmp	r0, #0
 8003668:	d004      	beq.n	8003674 <kankandara_actionWait+0x8c>
 800366a:	2201      	movs	r2, #1
 800366c:	78eb      	ldrb	r3, [r5, #3]
 800366e:	43b3      	bics	r3, r6
 8003670:	4313      	orrs	r3, r2
 8003672:	70eb      	strb	r3, [r5, #3]
 8003674:	b005      	add	sp, #20
 8003676:	bcf0      	pop	{r4, r5, r6, r7}
 8003678:	bc01      	pop	{r0}
 800367a:	4700      	bx	r0
 800367c:	80ff7bff 	.word	0x80ff7bff
 8003680:	08032c58 	.word	0x08032c58

08003684 <kankandara_actionDissappear>:
 8003684:	2221      	movs	r2, #33	; 0x21
 8003686:	237b      	movs	r3, #123	; 0x7b
 8003688:	b570      	push	{r4, r5, r6, lr}
 800368a:	5c81      	ldrb	r1, [r0, r2]
 800368c:	400b      	ands	r3, r1
 800368e:	5483      	strb	r3, [r0, r2]
 8003690:	0004      	movs	r4, r0
 8003692:	f7fd ffa9 	bl	80015e8 <commonInitializeAction>
 8003696:	2801      	cmp	r0, #1
 8003698:	d106      	bne.n	80036a8 <kankandara_actionDissappear+0x24>
 800369a:	6a22      	ldr	r2, [r4, #32]
 800369c:	4b12      	ldr	r3, [pc, #72]	; (80036e8 <kankandara_actionDissappear+0x64>)
 800369e:	401a      	ands	r2, r3
 80036a0:	2384      	movs	r3, #132	; 0x84
 80036a2:	021b      	lsls	r3, r3, #8
 80036a4:	4313      	orrs	r3, r2
 80036a6:	6223      	str	r3, [r4, #32]
 80036a8:	0020      	movs	r0, r4
 80036aa:	f7fd ffb3 	bl	8001614 <commonUpdateAnimation>
 80036ae:	2801      	cmp	r0, #1
 80036b0:	d105      	bne.n	80036be <kankandara_actionDissappear+0x3a>
 80036b2:	2221      	movs	r2, #33	; 0x21
 80036b4:	217c      	movs	r1, #124	; 0x7c
 80036b6:	5ca3      	ldrb	r3, [r4, r2]
 80036b8:	4249      	negs	r1, r1
 80036ba:	430b      	orrs	r3, r1
 80036bc:	54a3      	strb	r3, [r4, r2]
 80036be:	2100      	movs	r1, #0
 80036c0:	2336      	movs	r3, #54	; 0x36
 80036c2:	2035      	movs	r0, #53	; 0x35
 80036c4:	250f      	movs	r5, #15
 80036c6:	6461      	str	r1, [r4, #68]	; 0x44
 80036c8:	5ce2      	ldrb	r2, [r4, r3]
 80036ca:	3b02      	subs	r3, #2
 80036cc:	54e2      	strb	r2, [r4, r3]
 80036ce:	3303      	adds	r3, #3
 80036d0:	5ce2      	ldrb	r2, [r4, r3]
 80036d2:	5c23      	ldrb	r3, [r4, r0]
 80036d4:	402a      	ands	r2, r5
 80036d6:	43ab      	bics	r3, r5
 80036d8:	4313      	orrs	r3, r2
 80036da:	5423      	strb	r3, [r4, r0]
 80036dc:	4b03      	ldr	r3, [pc, #12]	; (80036ec <kankandara_actionDissappear+0x68>)
 80036de:	8721      	strh	r1, [r4, #56]	; 0x38
 80036e0:	61e3      	str	r3, [r4, #28]
 80036e2:	bc70      	pop	{r4, r5, r6}
 80036e4:	bc01      	pop	{r0}
 80036e6:	4700      	bx	r0
 80036e8:	80ff7bff 	.word	0x80ff7bff
 80036ec:	08032aa8 	.word	0x08032aa8

080036f0 <kankandara_actionCrawl>:
 80036f0:	b5f0      	push	{r4, r5, r6, r7, lr}
 80036f2:	464e      	mov	r6, r9
 80036f4:	4645      	mov	r5, r8
 80036f6:	46de      	mov	lr, fp
 80036f8:	4657      	mov	r7, sl
 80036fa:	4690      	mov	r8, r2
 80036fc:	220f      	movs	r2, #15
 80036fe:	b5e0      	push	{r5, r6, r7, lr}
 8003700:	6d06      	ldr	r6, [r0, #80]	; 0x50
 8003702:	4699      	mov	r9, r3
 8003704:	78f3      	ldrb	r3, [r6, #3]
 8003706:	4393      	bics	r3, r2
 8003708:	2202      	movs	r2, #2
 800370a:	4313      	orrs	r3, r2
 800370c:	2221      	movs	r2, #33	; 0x21
 800370e:	70f3      	strb	r3, [r6, #3]
 8003710:	237b      	movs	r3, #123	; 0x7b
 8003712:	5c81      	ldrb	r1, [r0, r2]
 8003714:	400b      	ands	r3, r1
 8003716:	b08d      	sub	sp, #52	; 0x34
 8003718:	5483      	strb	r3, [r0, r2]
 800371a:	0004      	movs	r4, r0
 800371c:	f7fd ff64 	bl	80015e8 <commonInitializeAction>
 8003720:	2801      	cmp	r0, #1
 8003722:	d106      	bne.n	8003732 <kankandara_actionCrawl+0x42>
 8003724:	6a22      	ldr	r2, [r4, #32]
 8003726:	4b73      	ldr	r3, [pc, #460]	; (80038f4 <kankandara_actionCrawl+0x204>)
 8003728:	401a      	ands	r2, r3
 800372a:	2384      	movs	r3, #132	; 0x84
 800372c:	021b      	lsls	r3, r3, #8
 800372e:	4313      	orrs	r3, r2
 8003730:	6223      	str	r3, [r4, #32]
 8003732:	0020      	movs	r0, r4
 8003734:	f7fd ff6e 	bl	8001614 <commonUpdateAnimation>
 8003738:	2801      	cmp	r0, #1
 800373a:	d105      	bne.n	8003748 <kankandara_actionCrawl+0x58>
 800373c:	2221      	movs	r2, #33	; 0x21
 800373e:	217c      	movs	r1, #124	; 0x7c
 8003740:	5ca3      	ldrb	r3, [r4, r2]
 8003742:	4249      	negs	r1, r1
 8003744:	430b      	orrs	r3, r1
 8003746:	54a3      	strb	r3, [r4, r2]
 8003748:	2337      	movs	r3, #55	; 0x37
 800374a:	56e3      	ldrsb	r3, [r4, r3]
 800374c:	469b      	mov	fp, r3
 800374e:	3b06      	subs	r3, #6
 8003750:	425a      	negs	r2, r3
 8003752:	415a      	adcs	r2, r3
 8003754:	1e59      	subs	r1, r3, #1
 8003756:	418b      	sbcs	r3, r1
 8003758:	1a9b      	subs	r3, r3, r2
 800375a:	2244      	movs	r2, #68	; 0x44
 800375c:	2000      	movs	r0, #0
 800375e:	0419      	lsls	r1, r3, #16
 8003760:	0c09      	lsrs	r1, r1, #16
 8003762:	52a1      	strh	r1, [r4, r2]
 8003764:	3202      	adds	r2, #2
 8003766:	52a0      	strh	r0, [r4, r2]
 8003768:	8fa2      	ldrh	r2, [r4, #60]	; 0x3c
 800376a:	1889      	adds	r1, r1, r2
 800376c:	2236      	movs	r2, #54	; 0x36
 800376e:	0409      	lsls	r1, r1, #16
 8003770:	0c0d      	lsrs	r5, r1, #16
 8003772:	1409      	asrs	r1, r1, #16
 8003774:	87a1      	strh	r1, [r4, #60]	; 0x3c
 8003776:	5ca0      	ldrb	r0, [r4, r2]
 8003778:	3a02      	subs	r2, #2
 800377a:	54a0      	strb	r0, [r4, r2]
 800377c:	465f      	mov	r7, fp
 800377e:	3a25      	subs	r2, #37	; 0x25
 8003780:	4694      	mov	ip, r2
 8003782:	2035      	movs	r0, #53	; 0x35
 8003784:	403a      	ands	r2, r7
 8003786:	4692      	mov	sl, r2
 8003788:	4667      	mov	r7, ip
 800378a:	5c22      	ldrb	r2, [r4, r0]
 800378c:	43ba      	bics	r2, r7
 800378e:	4657      	mov	r7, sl
 8003790:	433a      	orrs	r2, r7
 8003792:	5422      	strb	r2, [r4, r0]
 8003794:	2238      	movs	r2, #56	; 0x38
 8003796:	3808      	subs	r0, #8
 8003798:	54a0      	strb	r0, [r4, r2]
 800379a:	300c      	adds	r0, #12
 800379c:	5c22      	ldrb	r2, [r4, r0]
 800379e:	3201      	adds	r2, #1
 80037a0:	5422      	strb	r2, [r4, r0]
 80037a2:	465a      	mov	r2, fp
 80037a4:	2a06      	cmp	r2, #6
 80037a6:	d05d      	beq.n	8003864 <kankandara_actionCrawl+0x174>
 80037a8:	4a53      	ldr	r2, [pc, #332]	; (80038f8 <kankandara_actionCrawl+0x208>)
 80037aa:	61e2      	str	r2, [r4, #28]
 80037ac:	011a      	lsls	r2, r3, #4
 80037ae:	1ad3      	subs	r3, r2, r3
 80037b0:	18ed      	adds	r5, r5, r3
 80037b2:	042d      	lsls	r5, r5, #16
 80037b4:	ab02      	add	r3, sp, #8
 80037b6:	142d      	asrs	r5, r5, #16
 80037b8:	801d      	strh	r5, [r3, #0]
 80037ba:	223e      	movs	r2, #62	; 0x3e
 80037bc:	5ea0      	ldrsh	r0, [r4, r2]
 80037be:	0402      	lsls	r2, r0, #16
 80037c0:	0c12      	lsrs	r2, r2, #16
 80037c2:	8058      	strh	r0, [r3, #2]
 80037c4:	0010      	movs	r0, r2
 80037c6:	300a      	adds	r0, #10
 80037c8:	8158      	strh	r0, [r3, #10]
 80037ca:	300a      	adds	r0, #10
 80037cc:	8258      	strh	r0, [r3, #18]
 80037ce:	3a14      	subs	r2, #20
 80037d0:	381e      	subs	r0, #30
 80037d2:	811d      	strh	r5, [r3, #8]
 80037d4:	821d      	strh	r5, [r3, #16]
 80037d6:	8319      	strh	r1, [r3, #24]
 80037d8:	8358      	strh	r0, [r3, #26]
 80037da:	8419      	strh	r1, [r3, #32]
 80037dc:	845a      	strh	r2, [r3, #34]	; 0x22
 80037de:	2101      	movs	r1, #1
 80037e0:	2201      	movs	r2, #1
 80037e2:	4648      	mov	r0, r9
 80037e4:	9300      	str	r3, [sp, #0]
 80037e6:	2305      	movs	r3, #5
 80037e8:	f002 f9c8 	bl	8005b7c <mchar_actione_add>
 80037ec:	2100      	movs	r1, #0
 80037ee:	4640      	mov	r0, r8
 80037f0:	f002 f90a 	bl	8005a08 <mchar_findCharacterType>
 80037f4:	1e05      	subs	r5, r0, #0
 80037f6:	d02c      	beq.n	8003852 <kankandara_actionCrawl+0x162>
 80037f8:	0002      	movs	r2, r0
 80037fa:	1d33      	adds	r3, r6, #4
 80037fc:	323c      	adds	r2, #60	; 0x3c
 80037fe:	ca03      	ldmia	r2!, {r0, r1}
 8003800:	c303      	stmia	r3!, {r0, r1}
 8003802:	2039      	movs	r0, #57	; 0x39
 8003804:	5c27      	ldrb	r7, [r4, r0]
 8003806:	46b8      	mov	r8, r7
 8003808:	2738      	movs	r7, #56	; 0x38
 800380a:	2304      	movs	r3, #4
 800380c:	5ef2      	ldrsh	r2, [r6, r3]
 800380e:	233c      	movs	r3, #60	; 0x3c
 8003810:	5ee1      	ldrsh	r1, [r4, r3]
 8003812:	5de7      	ldrb	r7, [r4, r7]
 8003814:	1a53      	subs	r3, r2, r1
 8003816:	45b8      	cmp	r8, r7
 8003818:	d30d      	bcc.n	8003836 <kankandara_actionCrawl+0x146>
 800381a:	2200      	movs	r2, #0
 800381c:	5422      	strb	r2, [r4, r0]
 800381e:	2b00      	cmp	r3, #0
 8003820:	db49      	blt.n	80038b6 <kankandara_actionCrawl+0x1c6>
 8003822:	d04f      	beq.n	80038c4 <kankandara_actionCrawl+0x1d4>
 8003824:	3833      	subs	r0, #51	; 0x33
 8003826:	4684      	mov	ip, r0
 8003828:	111b      	asrs	r3, r3, #4
 800382a:	0018      	movs	r0, r3
 800382c:	300e      	adds	r0, #14
 800382e:	281c      	cmp	r0, #28
 8003830:	d956      	bls.n	80038e0 <kankandara_actionCrawl+0x1f0>
 8003832:	2004      	movs	r0, #4
 8003834:	5e32      	ldrsh	r2, [r6, r0]
 8003836:	465f      	mov	r7, fp
 8003838:	1a88      	subs	r0, r1, r2
 800383a:	2f06      	cmp	r7, #6
 800383c:	d014      	beq.n	8003868 <kankandara_actionCrawl+0x178>
 800383e:	213e      	movs	r1, #62	; 0x3e
 8003840:	5e62      	ldrsh	r2, [r4, r1]
 8003842:	2706      	movs	r7, #6
 8003844:	5ff1      	ldrsh	r1, [r6, r7]
 8003846:	1a52      	subs	r2, r2, r1
 8003848:	3214      	adds	r2, #20
 800384a:	2a28      	cmp	r2, #40	; 0x28
 800384c:	d801      	bhi.n	8003852 <kankandara_actionCrawl+0x162>
 800384e:	284f      	cmp	r0, #79	; 0x4f
 8003850:	d914      	bls.n	800387c <kankandara_actionCrawl+0x18c>
 8003852:	b00d      	add	sp, #52	; 0x34
 8003854:	bcf0      	pop	{r4, r5, r6, r7}
 8003856:	46bb      	mov	fp, r7
 8003858:	46b2      	mov	sl, r6
 800385a:	46a9      	mov	r9, r5
 800385c:	46a0      	mov	r8, r4
 800385e:	bcf0      	pop	{r4, r5, r6, r7}
 8003860:	bc01      	pop	{r0}
 8003862:	4700      	bx	r0
 8003864:	4a25      	ldr	r2, [pc, #148]	; (80038fc <kankandara_actionCrawl+0x20c>)
 8003866:	e7a0      	b.n	80037aa <kankandara_actionCrawl+0xba>
 8003868:	1a50      	subs	r0, r2, r1
 800386a:	213e      	movs	r1, #62	; 0x3e
 800386c:	5e62      	ldrsh	r2, [r4, r1]
 800386e:	2706      	movs	r7, #6
 8003870:	5ff1      	ldrsh	r1, [r6, r7]
 8003872:	1a52      	subs	r2, r2, r1
 8003874:	3214      	adds	r2, #20
 8003876:	2a28      	cmp	r2, #40	; 0x28
 8003878:	d9e9      	bls.n	800384e <kankandara_actionCrawl+0x15e>
 800387a:	e7ea      	b.n	8003852 <kankandara_actionCrawl+0x162>
 800387c:	210f      	movs	r1, #15
 800387e:	78f2      	ldrb	r2, [r6, #3]
 8003880:	438a      	bics	r2, r1
 8003882:	2103      	movs	r1, #3
 8003884:	430a      	orrs	r2, r1
 8003886:	70f2      	strb	r2, [r6, #3]
 8003888:	2100      	movs	r1, #0
 800388a:	2239      	movs	r2, #57	; 0x39
 800388c:	54a1      	strb	r1, [r4, r2]
 800388e:	2b00      	cmp	r3, #0
 8003890:	db15      	blt.n	80038be <kankandara_actionCrawl+0x1ce>
 8003892:	2200      	movs	r2, #0
 8003894:	2406      	movs	r4, #6
 8003896:	2b00      	cmp	r3, #0
 8003898:	d012      	beq.n	80038c0 <kankandara_actionCrawl+0x1d0>
 800389a:	6d29      	ldr	r1, [r5, #80]	; 0x50
 800389c:	7848      	ldrb	r0, [r1, #1]
 800389e:	210f      	movs	r1, #15
 80038a0:	4001      	ands	r1, r0
 80038a2:	2901      	cmp	r1, #1
 80038a4:	d0d5      	beq.n	8003852 <kankandara_actionCrawl+0x162>
 80038a6:	111b      	asrs	r3, r3, #4
 80038a8:	9300      	str	r3, [sp, #0]
 80038aa:	2100      	movs	r1, #0
 80038ac:	0023      	movs	r3, r4
 80038ae:	4814      	ldr	r0, [pc, #80]	; (8003900 <kankandara_actionCrawl+0x210>)
 80038b0:	f002 fdb4 	bl	800641c <msound_setChannel3d>
 80038b4:	e7cd      	b.n	8003852 <kankandara_actionCrawl+0x162>
 80038b6:	2000      	movs	r0, #0
 80038b8:	2206      	movs	r2, #6
 80038ba:	4684      	mov	ip, r0
 80038bc:	e7b4      	b.n	8003828 <kankandara_actionCrawl+0x138>
 80038be:	2206      	movs	r2, #6
 80038c0:	2400      	movs	r4, #0
 80038c2:	e7ea      	b.n	800389a <kankandara_actionCrawl+0x1aa>
 80038c4:	2200      	movs	r2, #0
 80038c6:	4690      	mov	r8, r2
 80038c8:	4641      	mov	r1, r8
 80038ca:	480e      	ldr	r0, [pc, #56]	; (8003904 <kankandara_actionCrawl+0x214>)
 80038cc:	9100      	str	r1, [sp, #0]
 80038ce:	2100      	movs	r1, #0
 80038d0:	f002 fda4 	bl	800641c <msound_setChannel3d>
 80038d4:	233c      	movs	r3, #60	; 0x3c
 80038d6:	5ee1      	ldrsh	r1, [r4, r3]
 80038d8:	2304      	movs	r3, #4
 80038da:	5ef2      	ldrsh	r2, [r6, r3]
 80038dc:	4643      	mov	r3, r8
 80038de:	e7aa      	b.n	8003836 <kankandara_actionCrawl+0x146>
 80038e0:	43d9      	mvns	r1, r3
 80038e2:	0fd8      	lsrs	r0, r3, #31
 80038e4:	0fc9      	lsrs	r1, r1, #31
 80038e6:	1a09      	subs	r1, r1, r0
 80038e8:	0018      	movs	r0, r3
 80038ea:	4348      	muls	r0, r1
 80038ec:	4663      	mov	r3, ip
 80038ee:	4680      	mov	r8, r0
 80038f0:	e7ea      	b.n	80038c8 <kankandara_actionCrawl+0x1d8>
 80038f2:	46c0      	nop			; (mov r8, r8)
 80038f4:	80ff7bff 	.word	0x80ff7bff
 80038f8:	08032bf0 	.word	0x08032bf0
 80038fc:	08032b88 	.word	0x08032b88
 8003900:	08027498 	.word	0x08027498
 8003904:	0802a110 	.word	0x0802a110

08003908 <kankandara_init>:
 8003908:	b570      	push	{r4, r5, r6, lr}
 800390a:	0004      	movs	r4, r0
 800390c:	b082      	sub	sp, #8
 800390e:	0008      	movs	r0, r1
 8003910:	f002 f8e0 	bl	8005ad4 <mchar_getControlType>
 8003914:	2380      	movs	r3, #128	; 0x80
 8003916:	011b      	lsls	r3, r3, #4
 8003918:	8623      	strh	r3, [r4, #48]	; 0x30
 800391a:	0005      	movs	r5, r0
 800391c:	f002 ffba 	bl	8006894 <sprite_vram_findId>
 8003920:	2380      	movs	r3, #128	; 0x80
 8003922:	8c22      	ldrh	r2, [r4, #32]
 8003924:	0580      	lsls	r0, r0, #22
 8003926:	0d80      	lsrs	r0, r0, #22
 8003928:	00db      	lsls	r3, r3, #3
 800392a:	0ad2      	lsrs	r2, r2, #11
 800392c:	02d2      	lsls	r2, r2, #11
 800392e:	4303      	orrs	r3, r0
 8003930:	4313      	orrs	r3, r2
 8003932:	8423      	strh	r3, [r4, #32]
 8003934:	2101      	movs	r1, #1
 8003936:	2008      	movs	r0, #8
 8003938:	f003 f818 	bl	800696c <sprite_palette_findId>
 800393c:	0022      	movs	r2, r4
 800393e:	210f      	movs	r1, #15
 8003940:	2678      	movs	r6, #120	; 0x78
 8003942:	3220      	adds	r2, #32
 8003944:	7853      	ldrb	r3, [r2, #1]
 8003946:	4001      	ands	r1, r0
 8003948:	00c8      	lsls	r0, r1, #3
 800394a:	43b3      	bics	r3, r6
 800394c:	4303      	orrs	r3, r0
 800394e:	7053      	strb	r3, [r2, #1]
 8003950:	4814      	ldr	r0, [pc, #80]	; (80039a4 <kankandara_init+0x9c>)
 8003952:	f003 f865 	bl	8006a20 <sprite_palette_copy32_ID>
 8003956:	2101      	movs	r1, #1
 8003958:	0020      	movs	r0, r4
 800395a:	2300      	movs	r3, #0
 800395c:	2200      	movs	r2, #0
 800395e:	4249      	negs	r1, r1
 8003960:	f7fd fc48 	bl	80011f4 <commonCharacterInit>
 8003964:	2300      	movs	r3, #0
 8003966:	2200      	movs	r2, #0
 8003968:	9300      	str	r3, [sp, #0]
 800396a:	2100      	movs	r1, #0
 800396c:	0020      	movs	r0, r4
 800396e:	f7fd fc2b 	bl	80011c8 <commonCharacterSetPosition>
 8003972:	4b0d      	ldr	r3, [pc, #52]	; (80039a8 <kankandara_init+0xa0>)
 8003974:	6023      	str	r3, [r4, #0]
 8003976:	4b0d      	ldr	r3, [pc, #52]	; (80039ac <kankandara_init+0xa4>)
 8003978:	6063      	str	r3, [r4, #4]
 800397a:	4b0d      	ldr	r3, [pc, #52]	; (80039b0 <kankandara_init+0xa8>)
 800397c:	60a3      	str	r3, [r4, #8]
 800397e:	4b0d      	ldr	r3, [pc, #52]	; (80039b4 <kankandara_init+0xac>)
 8003980:	60e3      	str	r3, [r4, #12]
 8003982:	4b0d      	ldr	r3, [pc, #52]	; (80039b8 <kankandara_init+0xb0>)
 8003984:	6123      	str	r3, [r4, #16]
 8003986:	4b0d      	ldr	r3, [pc, #52]	; (80039bc <kankandara_init+0xb4>)
 8003988:	6163      	str	r3, [r4, #20]
 800398a:	4b0d      	ldr	r3, [pc, #52]	; (80039c0 <kankandara_init+0xb8>)
 800398c:	61a3      	str	r3, [r4, #24]
 800398e:	4b0d      	ldr	r3, [pc, #52]	; (80039c4 <kankandara_init+0xbc>)
 8003990:	682a      	ldr	r2, [r5, #0]
 8003992:	401a      	ands	r2, r3
 8003994:	4b0c      	ldr	r3, [pc, #48]	; (80039c8 <kankandara_init+0xc0>)
 8003996:	4313      	orrs	r3, r2
 8003998:	602b      	str	r3, [r5, #0]
 800399a:	6525      	str	r5, [r4, #80]	; 0x50
 800399c:	b002      	add	sp, #8
 800399e:	bc70      	pop	{r4, r5, r6}
 80039a0:	bc01      	pop	{r0}
 80039a2:	4700      	bx	r0
 80039a4:	0802f15c 	.word	0x0802f15c
 80039a8:	08003ac1 	.word	0x08003ac1
 80039ac:	080034ad 	.word	0x080034ad
 80039b0:	08003511 	.word	0x08003511
 80039b4:	080034cd 	.word	0x080034cd
 80039b8:	08003505 	.word	0x08003505
 80039bc:	080035dd 	.word	0x080035dd
 80039c0:	0800350d 	.word	0x0800350d
 80039c4:	0000fff8 	.word	0x0000fff8
 80039c8:	00800001 	.word	0x00800001

080039cc <kankandara_crawlInit>:
 80039cc:	b510      	push	{r4, lr}
 80039ce:	0004      	movs	r4, r0
 80039d0:	f7ff ff9a 	bl	8003908 <kankandara_init>
 80039d4:	4b03      	ldr	r3, [pc, #12]	; (80039e4 <kankandara_crawlInit+0x18>)
 80039d6:	6023      	str	r3, [r4, #0]
 80039d8:	23dc      	movs	r3, #220	; 0xdc
 80039da:	8723      	strh	r3, [r4, #56]	; 0x38
 80039dc:	bc10      	pop	{r4}
 80039de:	bc01      	pop	{r0}
 80039e0:	4700      	bx	r0
 80039e2:	46c0      	nop			; (mov r8, r8)
 80039e4:	080039ed 	.word	0x080039ed
 80039e8:	4720      	bx	r4
 80039ea:	46c0      	nop			; (mov r8, r8)

080039ec <kankandara_crawlController>:
 80039ec:	b530      	push	{r4, r5, lr}
 80039ee:	b085      	sub	sp, #20
 80039f0:	466b      	mov	r3, sp
 80039f2:	2200      	movs	r2, #0
 80039f4:	2137      	movs	r1, #55	; 0x37
 80039f6:	2504      	movs	r5, #4
 80039f8:	71da      	strb	r2, [r3, #7]
 80039fa:	5c42      	ldrb	r2, [r0, r1]
 80039fc:	3307      	adds	r3, #7
 80039fe:	6d04      	ldr	r4, [r0, #80]	; 0x50
 8003a00:	43aa      	bics	r2, r5
 8003a02:	2a02      	cmp	r2, #2
 8003a04:	d001      	beq.n	8003a0a <kankandara_crawlController+0x1e>
 8003a06:	2206      	movs	r2, #6
 8003a08:	5442      	strb	r2, [r0, r1]
 8003a0a:	2236      	movs	r2, #54	; 0x36
 8003a0c:	2502      	movs	r5, #2
 8003a0e:	210f      	movs	r1, #15
 8003a10:	5485      	strb	r5, [r0, r2]
 8003a12:	3a01      	subs	r2, #1
 8003a14:	5c82      	ldrb	r2, [r0, r2]
 8003a16:	4011      	ands	r1, r2
 8003a18:	78e2      	ldrb	r2, [r4, #3]
 8003a1a:	2906      	cmp	r1, #6
 8003a1c:	d028      	beq.n	8003a70 <kankandara_crawlController+0x84>
 8003a1e:	2902      	cmp	r1, #2
 8003a20:	d00b      	beq.n	8003a3a <kankandara_crawlController+0x4e>
 8003a22:	210f      	movs	r1, #15
 8003a24:	400a      	ands	r2, r1
 8003a26:	2a03      	cmp	r2, #3
 8003a28:	d014      	beq.n	8003a54 <kankandara_crawlController+0x68>
 8003a2a:	aa03      	add	r2, sp, #12
 8003a2c:	a902      	add	r1, sp, #8
 8003a2e:	f7fd fe2d 	bl	800168c <commonGetNextFrame>
 8003a32:	b005      	add	sp, #20
 8003a34:	bc30      	pop	{r4, r5}
 8003a36:	bc01      	pop	{r0}
 8003a38:	4700      	bx	r0
 8003a3a:	311e      	adds	r1, #30
 8003a3c:	4211      	tst	r1, r2
 8003a3e:	d0f0      	beq.n	8003a22 <kankandara_crawlController+0x36>
 8003a40:	2237      	movs	r2, #55	; 0x37
 8003a42:	2506      	movs	r5, #6
 8003a44:	5485      	strb	r5, [r0, r2]
 8003a46:	78e2      	ldrb	r2, [r4, #3]
 8003a48:	438a      	bics	r2, r1
 8003a4a:	210f      	movs	r1, #15
 8003a4c:	70e2      	strb	r2, [r4, #3]
 8003a4e:	400a      	ands	r2, r1
 8003a50:	2a03      	cmp	r2, #3
 8003a52:	d1ea      	bne.n	8003a2a <kankandara_crawlController+0x3e>
 8003a54:	2502      	movs	r5, #2
 8003a56:	78e2      	ldrb	r2, [r4, #3]
 8003a58:	438a      	bics	r2, r1
 8003a5a:	432a      	orrs	r2, r5
 8003a5c:	70e2      	strb	r2, [r4, #3]
 8003a5e:	2235      	movs	r2, #53	; 0x35
 8003a60:	5c82      	ldrb	r2, [r0, r2]
 8003a62:	4011      	ands	r1, r2
 8003a64:	2906      	cmp	r1, #6
 8003a66:	d00c      	beq.n	8003a82 <kankandara_crawlController+0x96>
 8003a68:	2237      	movs	r2, #55	; 0x37
 8003a6a:	2106      	movs	r1, #6
 8003a6c:	5481      	strb	r1, [r0, r2]
 8003a6e:	e7dc      	b.n	8003a2a <kankandara_crawlController+0x3e>
 8003a70:	310a      	adds	r1, #10
 8003a72:	4211      	tst	r1, r2
 8003a74:	d0d5      	beq.n	8003a22 <kankandara_crawlController+0x36>
 8003a76:	2237      	movs	r2, #55	; 0x37
 8003a78:	5485      	strb	r5, [r0, r2]
 8003a7a:	78e2      	ldrb	r2, [r4, #3]
 8003a7c:	438a      	bics	r2, r1
 8003a7e:	70e2      	strb	r2, [r4, #3]
 8003a80:	e7cf      	b.n	8003a22 <kankandara_crawlController+0x36>
 8003a82:	2237      	movs	r2, #55	; 0x37
 8003a84:	3904      	subs	r1, #4
 8003a86:	5481      	strb	r1, [r0, r2]
 8003a88:	e7cf      	b.n	8003a2a <kankandara_crawlController+0x3e>
 8003a8a:	46c0      	nop			; (mov r8, r8)

08003a8c <kankandara_dissappearController>:
 8003a8c:	b510      	push	{r4, lr}
 8003a8e:	b084      	sub	sp, #16
 8003a90:	2300      	movs	r3, #0
 8003a92:	466a      	mov	r2, sp
 8003a94:	71d3      	strb	r3, [r2, #7]
 8003a96:	3301      	adds	r3, #1
 8003a98:	86c3      	strh	r3, [r0, #54]	; 0x36
 8003a9a:	466b      	mov	r3, sp
 8003a9c:	aa03      	add	r2, sp, #12
 8003a9e:	3307      	adds	r3, #7
 8003aa0:	a902      	add	r1, sp, #8
 8003aa2:	0004      	movs	r4, r0
 8003aa4:	f7fd fdf2 	bl	800168c <commonGetNextFrame>
 8003aa8:	466b      	mov	r3, sp
 8003aaa:	79db      	ldrb	r3, [r3, #7]
 8003aac:	2b00      	cmp	r3, #0
 8003aae:	d103      	bne.n	8003ab8 <kankandara_dissappearController+0x2c>
 8003ab0:	b004      	add	sp, #16
 8003ab2:	bc10      	pop	{r4}
 8003ab4:	bc01      	pop	{r0}
 8003ab6:	4700      	bx	r0
 8003ab8:	0020      	movs	r0, r4
 8003aba:	f7fd fb63 	bl	8001184 <commonRemoveCharacter>
 8003abe:	e7f7      	b.n	8003ab0 <kankandara_dissappearController+0x24>

08003ac0 <kankandara_controller>:
 8003ac0:	b510      	push	{r4, lr}
 8003ac2:	6d03      	ldr	r3, [r0, #80]	; 0x50
 8003ac4:	78da      	ldrb	r2, [r3, #3]
 8003ac6:	230f      	movs	r3, #15
 8003ac8:	0004      	movs	r4, r0
 8003aca:	b084      	sub	sp, #16
 8003acc:	4013      	ands	r3, r2
 8003ace:	2b01      	cmp	r3, #1
 8003ad0:	d005      	beq.n	8003ade <kankandara_controller+0x1e>
 8003ad2:	2300      	movs	r3, #0
 8003ad4:	86c3      	strh	r3, [r0, #54]	; 0x36
 8003ad6:	b004      	add	sp, #16
 8003ad8:	bc10      	pop	{r4}
 8003ada:	bc01      	pop	{r0}
 8003adc:	4700      	bx	r0
 8003ade:	4a0a      	ldr	r2, [pc, #40]	; (8003b08 <kankandara_controller+0x48>)
 8003ae0:	4669      	mov	r1, sp
 8003ae2:	6002      	str	r2, [r0, #0]
 8003ae4:	86c3      	strh	r3, [r0, #54]	; 0x36
 8003ae6:	2200      	movs	r2, #0
 8003ae8:	466b      	mov	r3, sp
 8003aea:	71ca      	strb	r2, [r1, #7]
 8003aec:	3307      	adds	r3, #7
 8003aee:	aa03      	add	r2, sp, #12
 8003af0:	a902      	add	r1, sp, #8
 8003af2:	f7fd fdcb 	bl	800168c <commonGetNextFrame>
 8003af6:	466b      	mov	r3, sp
 8003af8:	79db      	ldrb	r3, [r3, #7]
 8003afa:	2b00      	cmp	r3, #0
 8003afc:	d0eb      	beq.n	8003ad6 <kankandara_controller+0x16>
 8003afe:	0020      	movs	r0, r4
 8003b00:	f7fd fb40 	bl	8001184 <commonRemoveCharacter>
 8003b04:	e7e7      	b.n	8003ad6 <kankandara_controller+0x16>
 8003b06:	46c0      	nop			; (mov r8, r8)
 8003b08:	08003a8d 	.word	0x08003a8d

08003b0c <kankandara_setCharacter>:
 8003b0c:	4b01      	ldr	r3, [pc, #4]	; (8003b14 <kankandara_setCharacter+0x8>)
 8003b0e:	6003      	str	r3, [r0, #0]
 8003b10:	4770      	bx	lr
 8003b12:	46c0      	nop			; (mov r8, r8)
 8003b14:	08003ac1 	.word	0x08003ac1

08003b18 <kankandara_setCrawlCharacter>:
 8003b18:	4b01      	ldr	r3, [pc, #4]	; (8003b20 <kankandara_setCrawlCharacter+0x8>)
 8003b1a:	6003      	str	r3, [r0, #0]
 8003b1c:	4770      	bx	lr
 8003b1e:	46c0      	nop			; (mov r8, r8)
 8003b20:	080039ed 	.word	0x080039ed

08003b24 <werewolf_doAction>:
 8003b24:	b570      	push	{r4, r5, r6, lr}
 8003b26:	2436      	movs	r4, #54	; 0x36
 8003b28:	5d04      	ldrb	r4, [r0, r4]
 8003b2a:	2c03      	cmp	r4, #3
 8003b2c:	d804      	bhi.n	8003b38 <werewolf_doAction+0x14>
 8003b2e:	4d04      	ldr	r5, [pc, #16]	; (8003b40 <werewolf_doAction+0x1c>)
 8003b30:	00a4      	lsls	r4, r4, #2
 8003b32:	5964      	ldr	r4, [r4, r5]
 8003b34:	f000 fab0 	bl	8004098 <werewolf_getBoundingBoxMoving+0x3c>
 8003b38:	bc70      	pop	{r4, r5, r6}
 8003b3a:	bc01      	pop	{r0}
 8003b3c:	4700      	bx	r0
 8003b3e:	46c0      	nop			; (mov r8, r8)
 8003b40:	03000b88 	.word	0x03000b88

08003b44 <werewolf_getBoundingBoxStanding>:
 8003b44:	2301      	movs	r3, #1
 8003b46:	b510      	push	{r4, lr}
 8003b48:	600b      	str	r3, [r1, #0]
 8003b4a:	8f81      	ldrh	r1, [r0, #60]	; 0x3c
 8003b4c:	000c      	movs	r4, r1
 8003b4e:	8fc3      	ldrh	r3, [r0, #62]	; 0x3e
 8003b50:	3c08      	subs	r4, #8
 8003b52:	8014      	strh	r4, [r2, #0]
 8003b54:	001c      	movs	r4, r3
 8003b56:	3308      	adds	r3, #8
 8003b58:	80d3      	strh	r3, [r2, #6]
 8003b5a:	2335      	movs	r3, #53	; 0x35
 8003b5c:	3108      	adds	r1, #8
 8003b5e:	8091      	strh	r1, [r2, #4]
 8003b60:	2138      	movs	r1, #56	; 0x38
 8003b62:	3c08      	subs	r4, #8
 8003b64:	8054      	strh	r4, [r2, #2]
 8003b66:	5cc3      	ldrb	r3, [r0, r3]
 8003b68:	7b10      	ldrb	r0, [r2, #12]
 8003b6a:	075b      	lsls	r3, r3, #29
 8003b6c:	4001      	ands	r1, r0
 8003b6e:	0f5b      	lsrs	r3, r3, #29
 8003b70:	430b      	orrs	r3, r1
 8003b72:	7313      	strb	r3, [r2, #12]
 8003b74:	bc10      	pop	{r4}
 8003b76:	bc01      	pop	{r0}
 8003b78:	4700      	bx	r0
 8003b7a:	46c0      	nop			; (mov r8, r8)

08003b7c <werewolf_actionWalk>:
 8003b7c:	b5f0      	push	{r4, r5, r6, r7, lr}
 8003b7e:	4647      	mov	r7, r8
 8003b80:	46ce      	mov	lr, r9
 8003b82:	b580      	push	{r7, lr}
 8003b84:	2721      	movs	r7, #33	; 0x21
 8003b86:	4691      	mov	r9, r2
 8003b88:	227b      	movs	r2, #123	; 0x7b
 8003b8a:	5dc3      	ldrb	r3, [r0, r7]
 8003b8c:	4013      	ands	r3, r2
 8003b8e:	6d05      	ldr	r5, [r0, #80]	; 0x50
 8003b90:	b085      	sub	sp, #20
 8003b92:	55c3      	strb	r3, [r0, r7]
 8003b94:	0004      	movs	r4, r0
 8003b96:	4690      	mov	r8, r2
 8003b98:	f7fd fd3c 	bl	8001614 <commonUpdateAnimation>
 8003b9c:	2801      	cmp	r0, #1
 8003b9e:	d107      	bne.n	8003bb0 <werewolf_actionWalk+0x34>
 8003ba0:	4642      	mov	r2, r8
 8003ba2:	5de3      	ldrb	r3, [r4, r7]
 8003ba4:	401a      	ands	r2, r3
 8003ba6:	0013      	movs	r3, r2
 8003ba8:	227c      	movs	r2, #124	; 0x7c
 8003baa:	4252      	negs	r2, r2
 8003bac:	4313      	orrs	r3, r2
 8003bae:	55e3      	strb	r3, [r4, r7]
 8003bb0:	2336      	movs	r3, #54	; 0x36
 8003bb2:	2234      	movs	r2, #52	; 0x34
 8003bb4:	5ce3      	ldrb	r3, [r4, r3]
 8003bb6:	5ca1      	ldrb	r1, [r4, r2]
 8003bb8:	4299      	cmp	r1, r3
 8003bba:	d05a      	beq.n	8003c72 <werewolf_actionWalk+0xf6>
 8003bbc:	2138      	movs	r1, #56	; 0x38
 8003bbe:	2008      	movs	r0, #8
 8003bc0:	5460      	strb	r0, [r4, r1]
 8003bc2:	54a3      	strb	r3, [r4, r2]
 8003bc4:	2337      	movs	r3, #55	; 0x37
 8003bc6:	2235      	movs	r2, #53	; 0x35
 8003bc8:	3007      	adds	r0, #7
 8003bca:	0007      	movs	r7, r0
 8003bcc:	5ce1      	ldrb	r1, [r4, r3]
 8003bce:	5ca3      	ldrb	r3, [r4, r2]
 8003bd0:	0709      	lsls	r1, r1, #28
 8003bd2:	1709      	asrs	r1, r1, #28
 8003bd4:	400f      	ands	r7, r1
 8003bd6:	4383      	bics	r3, r0
 8003bd8:	433b      	orrs	r3, r7
 8003bda:	54a3      	strb	r3, [r4, r2]
 8003bdc:	2300      	movs	r3, #0
 8003bde:	1c5f      	adds	r7, r3, #1
 8003be0:	063f      	lsls	r7, r7, #24
 8003be2:	0e3f      	lsrs	r7, r7, #24
 8003be4:	2644      	movs	r6, #68	; 0x44
 8003be6:	00c8      	lsls	r0, r1, #3
 8003be8:	4a2e      	ldr	r2, [pc, #184]	; (8003ca4 <werewolf_actionWalk+0x128>)
 8003bea:	18c3      	adds	r3, r0, r3
 8003bec:	009b      	lsls	r3, r3, #2
 8003bee:	589a      	ldr	r2, [r3, r2]
 8003bf0:	53a2      	strh	r2, [r4, r6]
 8003bf2:	8fa6      	ldrh	r6, [r4, #60]	; 0x3c
 8003bf4:	46b4      	mov	ip, r6
 8003bf6:	4e2c      	ldr	r6, [pc, #176]	; (8003ca8 <werewolf_actionWalk+0x12c>)
 8003bf8:	599b      	ldr	r3, [r3, r6]
 8003bfa:	2646      	movs	r6, #70	; 0x46
 8003bfc:	4462      	add	r2, ip
 8003bfe:	0412      	lsls	r2, r2, #16
 8003c00:	0c12      	lsrs	r2, r2, #16
 8003c02:	87a2      	strh	r2, [r4, #60]	; 0x3c
 8003c04:	53a3      	strh	r3, [r4, r6]
 8003c06:	8fe6      	ldrh	r6, [r4, #62]	; 0x3e
 8003c08:	46b4      	mov	ip, r6
 8003c0a:	2639      	movs	r6, #57	; 0x39
 8003c0c:	4463      	add	r3, ip
 8003c0e:	041b      	lsls	r3, r3, #16
 8003c10:	0c1b      	lsrs	r3, r3, #16
 8003c12:	87e3      	strh	r3, [r4, #62]	; 0x3e
 8003c14:	55a7      	strb	r7, [r4, r6]
 8003c16:	466e      	mov	r6, sp
 8003c18:	4f24      	ldr	r7, [pc, #144]	; (8003cac <werewolf_actionWalk+0x130>)
 8003c1a:	0089      	lsls	r1, r1, #2
 8003c1c:	59c9      	ldr	r1, [r1, r7]
 8003c1e:	61e1      	str	r1, [r4, #28]
 8003c20:	4923      	ldr	r1, [pc, #140]	; (8003cb0 <werewolf_actionWalk+0x134>)
 8003c22:	5a44      	ldrh	r4, [r0, r1]
 8003c24:	1809      	adds	r1, r1, r0
 8003c26:	8848      	ldrh	r0, [r1, #2]
 8003c28:	1818      	adds	r0, r3, r0
 8003c2a:	8070      	strh	r0, [r6, #2]
 8003c2c:	8888      	ldrh	r0, [r1, #4]
 8003c2e:	1914      	adds	r4, r2, r4
 8003c30:	1812      	adds	r2, r2, r0
 8003c32:	80b2      	strh	r2, [r6, #4]
 8003c34:	88ca      	ldrh	r2, [r1, #6]
 8003c36:	189b      	adds	r3, r3, r2
 8003c38:	4669      	mov	r1, sp
 8003c3a:	2200      	movs	r2, #0
 8003c3c:	80f3      	strh	r3, [r6, #6]
 8003c3e:	4648      	mov	r0, r9
 8003c40:	2301      	movs	r3, #1
 8003c42:	8034      	strh	r4, [r6, #0]
 8003c44:	f7fe ff3c 	bl	8002ac0 <commonFindCharTypeInBoundingBox>
 8003c48:	1d2b      	adds	r3, r5, #4
 8003c4a:	c806      	ldmia	r0!, {r1, r2}
 8003c4c:	c306      	stmia	r3!, {r1, r2}
 8003c4e:	1d28      	adds	r0, r5, #4
 8003c50:	f7fe fffe 	bl	8002c50 <commonIsFoundPosition>
 8003c54:	2800      	cmp	r0, #0
 8003c56:	d005      	beq.n	8003c64 <werewolf_actionWalk+0xe8>
 8003c58:	220f      	movs	r2, #15
 8003c5a:	78eb      	ldrb	r3, [r5, #3]
 8003c5c:	4393      	bics	r3, r2
 8003c5e:	2201      	movs	r2, #1
 8003c60:	4313      	orrs	r3, r2
 8003c62:	70eb      	strb	r3, [r5, #3]
 8003c64:	b005      	add	sp, #20
 8003c66:	bcc0      	pop	{r6, r7}
 8003c68:	46b9      	mov	r9, r7
 8003c6a:	46b0      	mov	r8, r6
 8003c6c:	bcf0      	pop	{r4, r5, r6, r7}
 8003c6e:	bc01      	pop	{r0}
 8003c70:	4700      	bx	r0
 8003c72:	2339      	movs	r3, #57	; 0x39
 8003c74:	2038      	movs	r0, #56	; 0x38
 8003c76:	5ce3      	ldrb	r3, [r4, r3]
 8003c78:	5c20      	ldrb	r0, [r4, r0]
 8003c7a:	54a1      	strb	r1, [r4, r2]
 8003c7c:	3203      	adds	r2, #3
 8003c7e:	5ca1      	ldrb	r1, [r4, r2]
 8003c80:	3a28      	subs	r2, #40	; 0x28
 8003c82:	4694      	mov	ip, r2
 8003c84:	0709      	lsls	r1, r1, #28
 8003c86:	2735      	movs	r7, #53	; 0x35
 8003c88:	1709      	asrs	r1, r1, #28
 8003c8a:	400a      	ands	r2, r1
 8003c8c:	4690      	mov	r8, r2
 8003c8e:	4666      	mov	r6, ip
 8003c90:	5de2      	ldrb	r2, [r4, r7]
 8003c92:	43b2      	bics	r2, r6
 8003c94:	4646      	mov	r6, r8
 8003c96:	4332      	orrs	r2, r6
 8003c98:	55e2      	strb	r2, [r4, r7]
 8003c9a:	4283      	cmp	r3, r0
 8003c9c:	d39f      	bcc.n	8003bde <werewolf_actionWalk+0x62>
 8003c9e:	2701      	movs	r7, #1
 8003ca0:	2300      	movs	r3, #0
 8003ca2:	e79f      	b.n	8003be4 <werewolf_actionWalk+0x68>
 8003ca4:	08008ad8 	.word	0x08008ad8
 8003ca8:	080089d8 	.word	0x080089d8
 8003cac:	03000d04 	.word	0x03000d04
 8003cb0:	08008918 	.word	0x08008918

08003cb4 <werewolf_actionFindTarget>:
 8003cb4:	b5f0      	push	{r4, r5, r6, r7, lr}
 8003cb6:	2335      	movs	r3, #53	; 0x35
 8003cb8:	0004      	movs	r4, r0
 8003cba:	b085      	sub	sp, #20
 8003cbc:	466f      	mov	r7, sp
 8003cbe:	5ce1      	ldrb	r1, [r4, r3]
 8003cc0:	4b28      	ldr	r3, [pc, #160]	; (8003d64 <werewolf_actionFindTarget+0xb0>)
 8003cc2:	0709      	lsls	r1, r1, #28
 8003cc4:	1649      	asrs	r1, r1, #25
 8003cc6:	5ace      	ldrh	r6, [r1, r3]
 8003cc8:	0010      	movs	r0, r2
 8003cca:	8fa2      	ldrh	r2, [r4, #60]	; 0x3c
 8003ccc:	1996      	adds	r6, r2, r6
 8003cce:	803e      	strh	r6, [r7, #0]
 8003cd0:	185b      	adds	r3, r3, r1
 8003cd2:	8fe6      	ldrh	r6, [r4, #62]	; 0x3e
 8003cd4:	8859      	ldrh	r1, [r3, #2]
 8003cd6:	1871      	adds	r1, r6, r1
 8003cd8:	8079      	strh	r1, [r7, #2]
 8003cda:	8899      	ldrh	r1, [r3, #4]
 8003cdc:	88db      	ldrh	r3, [r3, #6]
 8003cde:	1852      	adds	r2, r2, r1
 8003ce0:	80ba      	strh	r2, [r7, #4]
 8003ce2:	4669      	mov	r1, sp
 8003ce4:	2200      	movs	r2, #0
 8003ce6:	18f6      	adds	r6, r6, r3
 8003ce8:	2301      	movs	r3, #1
 8003cea:	6d25      	ldr	r5, [r4, #80]	; 0x50
 8003cec:	80fe      	strh	r6, [r7, #6]
 8003cee:	f7fe fee7 	bl	8002ac0 <commonFindCharTypeInBoundingBox>
 8003cf2:	1d2b      	adds	r3, r5, #4
 8003cf4:	c806      	ldmia	r0!, {r1, r2}
 8003cf6:	c306      	stmia	r3!, {r1, r2}
 8003cf8:	1d28      	adds	r0, r5, #4
 8003cfa:	f7fe ffa9 	bl	8002c50 <commonIsFoundPosition>
 8003cfe:	2800      	cmp	r0, #0
 8003d00:	d005      	beq.n	8003d0e <werewolf_actionFindTarget+0x5a>
 8003d02:	220f      	movs	r2, #15
 8003d04:	78eb      	ldrb	r3, [r5, #3]
 8003d06:	4393      	bics	r3, r2
 8003d08:	2201      	movs	r2, #1
 8003d0a:	4313      	orrs	r3, r2
 8003d0c:	70eb      	strb	r3, [r5, #3]
 8003d0e:	2521      	movs	r5, #33	; 0x21
 8003d10:	267b      	movs	r6, #123	; 0x7b
 8003d12:	5d63      	ldrb	r3, [r4, r5]
 8003d14:	4033      	ands	r3, r6
 8003d16:	5563      	strb	r3, [r4, r5]
 8003d18:	2300      	movs	r3, #0
 8003d1a:	0020      	movs	r0, r4
 8003d1c:	6463      	str	r3, [r4, #68]	; 0x44
 8003d1e:	f7fd fc79 	bl	8001614 <commonUpdateAnimation>
 8003d22:	2801      	cmp	r0, #1
 8003d24:	d105      	bne.n	8003d32 <werewolf_actionFindTarget+0x7e>
 8003d26:	5d63      	ldrb	r3, [r4, r5]
 8003d28:	401e      	ands	r6, r3
 8003d2a:	237c      	movs	r3, #124	; 0x7c
 8003d2c:	425b      	negs	r3, r3
 8003d2e:	4333      	orrs	r3, r6
 8003d30:	5563      	strb	r3, [r4, r5]
 8003d32:	200f      	movs	r0, #15
 8003d34:	2336      	movs	r3, #54	; 0x36
 8003d36:	2135      	movs	r1, #53	; 0x35
 8003d38:	0005      	movs	r5, r0
 8003d3a:	5ce2      	ldrb	r2, [r4, r3]
 8003d3c:	3b02      	subs	r3, #2
 8003d3e:	54e2      	strb	r2, [r4, r3]
 8003d40:	3303      	adds	r3, #3
 8003d42:	5ce3      	ldrb	r3, [r4, r3]
 8003d44:	5c62      	ldrb	r2, [r4, r1]
 8003d46:	071b      	lsls	r3, r3, #28
 8003d48:	171b      	asrs	r3, r3, #28
 8003d4a:	401d      	ands	r5, r3
 8003d4c:	4382      	bics	r2, r0
 8003d4e:	432a      	orrs	r2, r5
 8003d50:	5462      	strb	r2, [r4, r1]
 8003d52:	4a05      	ldr	r2, [pc, #20]	; (8003d68 <werewolf_actionFindTarget+0xb4>)
 8003d54:	009b      	lsls	r3, r3, #2
 8003d56:	589b      	ldr	r3, [r3, r2]
 8003d58:	61e3      	str	r3, [r4, #28]
 8003d5a:	b005      	add	sp, #20
 8003d5c:	bcf0      	pop	{r4, r5, r6, r7}
 8003d5e:	bc01      	pop	{r0}
 8003d60:	4700      	bx	r0
 8003d62:	46c0      	nop			; (mov r8, r8)
 8003d64:	08008918 	.word	0x08008918
 8003d68:	03000ce4 	.word	0x03000ce4

08003d6c <werewolf_setPosition>:
 8003d6c:	b5f0      	push	{r4, r5, r6, r7, lr}
 8003d6e:	0005      	movs	r5, r0
 8003d70:	464f      	mov	r7, r9
 8003d72:	4646      	mov	r6, r8
 8003d74:	46d6      	mov	lr, sl
 8003d76:	b5c0      	push	{r6, r7, lr}
 8003d78:	002e      	movs	r6, r5
 8003d7a:	4699      	mov	r9, r3
 8003d7c:	468a      	mov	sl, r1
 8003d7e:	233e      	movs	r3, #62	; 0x3e
 8003d80:	5ec1      	ldrsh	r1, [r0, r3]
 8003d82:	8850      	ldrh	r0, [r2, #2]
 8003d84:	1a08      	subs	r0, r1, r0
 8003d86:	381a      	subs	r0, #26
 8003d88:	3620      	adds	r6, #32
 8003d8a:	7130      	strb	r0, [r6, #4]
 8003d8c:	6a6f      	ldr	r7, [r5, #36]	; 0x24
 8003d8e:	46bc      	mov	ip, r7
 8003d90:	4f28      	ldr	r7, [pc, #160]	; (8003e34 <werewolf_setPosition+0xc8>)
 8003d92:	46b8      	mov	r8, r7
 8003d94:	233c      	movs	r3, #60	; 0x3c
 8003d96:	5ee8      	ldrsh	r0, [r5, r3]
 8003d98:	4667      	mov	r7, ip
 8003d9a:	4643      	mov	r3, r8
 8003d9c:	401f      	ands	r7, r3
 8003d9e:	231c      	movs	r3, #28
 8003da0:	8814      	ldrh	r4, [r2, #0]
 8003da2:	1b04      	subs	r4, r0, r4
 8003da4:	3c08      	subs	r4, #8
 8003da6:	05e4      	lsls	r4, r4, #23
 8003da8:	0be4      	lsrs	r4, r4, #15
 8003daa:	433c      	orrs	r4, r7
 8003dac:	425b      	negs	r3, r3
 8003dae:	626c      	str	r4, [r5, #36]	; 0x24
 8003db0:	469c      	mov	ip, r3
 8003db2:	0004      	movs	r4, r0
 8003db4:	464b      	mov	r3, r9
 8003db6:	b082      	sub	sp, #8
 8003db8:	448c      	add	ip, r1
 8003dba:	340a      	adds	r4, #10
 8003dbc:	9301      	str	r3, [sp, #4]
 8003dbe:	9200      	str	r2, [sp, #0]
 8003dc0:	4663      	mov	r3, ip
 8003dc2:	000a      	movs	r2, r1
 8003dc4:	380a      	subs	r0, #10
 8003dc6:	0021      	movs	r1, r4
 8003dc8:	f7fd fc9c 	bl	8001704 <commonIsInScreen>
 8003dcc:	2800      	cmp	r0, #0
 8003dce:	d10c      	bne.n	8003dea <werewolf_setPosition+0x7e>
 8003dd0:	2202      	movs	r2, #2
 8003dd2:	2000      	movs	r0, #0
 8003dd4:	79b3      	ldrb	r3, [r6, #6]
 8003dd6:	4393      	bics	r3, r2
 8003dd8:	71b3      	strb	r3, [r6, #6]
 8003dda:	b002      	add	sp, #8
 8003ddc:	bce0      	pop	{r5, r6, r7}
 8003dde:	46ba      	mov	sl, r7
 8003de0:	46b1      	mov	r9, r6
 8003de2:	46a8      	mov	r8, r5
 8003de4:	bcf0      	pop	{r4, r5, r6, r7}
 8003de6:	bc02      	pop	{r1}
 8003de8:	4708      	bx	r1
 8003dea:	2326      	movs	r3, #38	; 0x26
 8003dec:	2221      	movs	r2, #33	; 0x21
 8003dee:	2101      	movs	r1, #1
 8003df0:	5ceb      	ldrb	r3, [r5, r3]
 8003df2:	5caa      	ldrb	r2, [r5, r2]
 8003df4:	079b      	lsls	r3, r3, #30
 8003df6:	0fdb      	lsrs	r3, r3, #31
 8003df8:	0892      	lsrs	r2, r2, #2
 8003dfa:	401a      	ands	r2, r3
 8003dfc:	404b      	eors	r3, r1
 8003dfe:	18d3      	adds	r3, r2, r3
 8003e00:	2201      	movs	r2, #1
 8003e02:	2104      	movs	r1, #4
 8003e04:	401a      	ands	r2, r3
 8003e06:	7873      	ldrb	r3, [r6, #1]
 8003e08:	0092      	lsls	r2, r2, #2
 8003e0a:	438b      	bics	r3, r1
 8003e0c:	4313      	orrs	r3, r2
 8003e0e:	2202      	movs	r2, #2
 8003e10:	0028      	movs	r0, r5
 8003e12:	7073      	strb	r3, [r6, #1]
 8003e14:	79b3      	ldrb	r3, [r6, #6]
 8003e16:	4313      	orrs	r3, r2
 8003e18:	71b3      	strb	r3, [r6, #6]
 8003e1a:	301c      	adds	r0, #28
 8003e1c:	4651      	mov	r1, sl
 8003e1e:	f7fd fa91 	bl	8001344 <commonSetToOamBuffer>
 8003e22:	2323      	movs	r3, #35	; 0x23
 8003e24:	69ea      	ldr	r2, [r5, #28]
 8003e26:	5ceb      	ldrb	r3, [r5, r3]
 8003e28:	6812      	ldr	r2, [r2, #0]
 8003e2a:	065b      	lsls	r3, r3, #25
 8003e2c:	0d9b      	lsrs	r3, r3, #22
 8003e2e:	18d3      	adds	r3, r2, r3
 8003e30:	88d8      	ldrh	r0, [r3, #6]
 8003e32:	e7d2      	b.n	8003dda <werewolf_setPosition+0x6e>
 8003e34:	fffe00ff 	.word	0xfffe00ff

08003e38 <werewolf_checkMapCollision>:
 8003e38:	b570      	push	{r4, r5, r6, lr}
 8003e3a:	0004      	movs	r4, r0
 8003e3c:	000d      	movs	r5, r1
 8003e3e:	f7fd f9ef 	bl	8001220 <commonCharacterMapEdgeCheck>
 8003e42:	2335      	movs	r3, #53	; 0x35
 8003e44:	5ce2      	ldrb	r2, [r4, r3]
 8003e46:	4b06      	ldr	r3, [pc, #24]	; (8003e60 <werewolf_checkMapCollision+0x28>)
 8003e48:	0712      	lsls	r2, r2, #28
 8003e4a:	1692      	asrs	r2, r2, #26
 8003e4c:	189b      	adds	r3, r3, r2
 8003e4e:	0029      	movs	r1, r5
 8003e50:	6c1a      	ldr	r2, [r3, #64]	; 0x40
 8003e52:	0020      	movs	r0, r4
 8003e54:	6e1b      	ldr	r3, [r3, #96]	; 0x60
 8003e56:	f000 f91e 	bl	8004096 <werewolf_getBoundingBoxMoving+0x3a>
 8003e5a:	bc70      	pop	{r4, r5, r6}
 8003e5c:	bc01      	pop	{r0}
 8003e5e:	4700      	bx	r0
 8003e60:	08008918 	.word	0x08008918

08003e64 <werewolf_checkCollision>:
 8003e64:	b5f0      	push	{r4, r5, r6, r7, lr}
 8003e66:	001d      	movs	r5, r3
 8003e68:	000f      	movs	r7, r1
 8003e6a:	b08b      	sub	sp, #44	; 0x2c
 8003e6c:	68c3      	ldr	r3, [r0, #12]
 8003e6e:	0016      	movs	r6, r2
 8003e70:	a901      	add	r1, sp, #4
 8003e72:	aa02      	add	r2, sp, #8
 8003e74:	0004      	movs	r4, r0
 8003e76:	f000 f90e 	bl	8004096 <werewolf_getBoundingBoxMoving+0x3a>
 8003e7a:	0028      	movs	r0, r5
 8003e7c:	68eb      	ldr	r3, [r5, #12]
 8003e7e:	aa06      	add	r2, sp, #24
 8003e80:	a901      	add	r1, sp, #4
 8003e82:	f000 f908 	bl	8004096 <werewolf_getBoundingBoxMoving+0x3a>
 8003e86:	0038      	movs	r0, r7
 8003e88:	aa06      	add	r2, sp, #24
 8003e8a:	a902      	add	r1, sp, #8
 8003e8c:	f7fd fc90 	bl	80017b0 <common_checkNext>
 8003e90:	7030      	strb	r0, [r6, #0]
 8003e92:	2800      	cmp	r0, #0
 8003e94:	d011      	beq.n	8003eba <werewolf_checkCollision+0x56>
 8003e96:	466b      	mov	r3, sp
 8003e98:	2135      	movs	r1, #53	; 0x35
 8003e9a:	7d1b      	ldrb	r3, [r3, #20]
 8003e9c:	5c61      	ldrb	r1, [r4, r1]
 8003e9e:	065b      	lsls	r3, r3, #25
 8003ea0:	0fdb      	lsrs	r3, r3, #31
 8003ea2:	0709      	lsls	r1, r1, #28
 8003ea4:	1709      	asrs	r1, r1, #28
 8003ea6:	00db      	lsls	r3, r3, #3
 8003ea8:	4a06      	ldr	r2, [pc, #24]	; (8003ec4 <werewolf_checkCollision+0x60>)
 8003eaa:	185b      	adds	r3, r3, r1
 8003eac:	009b      	lsls	r3, r3, #2
 8003eae:	589b      	ldr	r3, [r3, r2]
 8003eb0:	0020      	movs	r0, r4
 8003eb2:	aa06      	add	r2, sp, #24
 8003eb4:	a902      	add	r1, sp, #8
 8003eb6:	f000 f8ee 	bl	8004096 <werewolf_getBoundingBoxMoving+0x3a>
 8003eba:	b00b      	add	sp, #44	; 0x2c
 8003ebc:	bcf0      	pop	{r4, r5, r6, r7}
 8003ebe:	bc01      	pop	{r0}
 8003ec0:	4700      	bx	r0
 8003ec2:	46c0      	nop			; (mov r8, r8)
 8003ec4:	08008998 	.word	0x08008998

08003ec8 <werewolf_checkActionEventCollision>:
 8003ec8:	b5f0      	push	{r4, r5, r6, r7, lr}
 8003eca:	46de      	mov	lr, fp
 8003ecc:	4657      	mov	r7, sl
 8003ece:	464e      	mov	r6, r9
 8003ed0:	4645      	mov	r5, r8
 8003ed2:	4689      	mov	r9, r1
 8003ed4:	b5e0      	push	{r5, r6, r7, lr}
 8003ed6:	b087      	sub	sp, #28
 8003ed8:	68c3      	ldr	r3, [r0, #12]
 8003eda:	aa02      	add	r2, sp, #8
 8003edc:	a901      	add	r1, sp, #4
 8003ede:	4682      	mov	sl, r0
 8003ee0:	f000 f8d9 	bl	8004096 <werewolf_getBoundingBoxMoving+0x3a>
 8003ee4:	464b      	mov	r3, r9
 8003ee6:	781a      	ldrb	r2, [r3, #0]
 8003ee8:	2a00      	cmp	r2, #0
 8003eea:	d025      	beq.n	8003f38 <werewolf_checkActionEventCollision+0x70>
 8003eec:	2300      	movs	r3, #0
 8003eee:	469b      	mov	fp, r3
 8003ef0:	4698      	mov	r8, r3
 8003ef2:	464b      	mov	r3, r9
 8003ef4:	685e      	ldr	r6, [r3, #4]
 8003ef6:	445e      	add	r6, fp
 8003ef8:	7a73      	ldrb	r3, [r6, #9]
 8003efa:	095b      	lsrs	r3, r3, #5
 8003efc:	d014      	beq.n	8003f28 <werewolf_checkActionEventCollision+0x60>
 8003efe:	0035      	movs	r5, r6
 8003f00:	2700      	movs	r7, #0
 8003f02:	2400      	movs	r4, #0
 8003f04:	350c      	adds	r5, #12
 8003f06:	0028      	movs	r0, r5
 8003f08:	a902      	add	r1, sp, #8
 8003f0a:	f7fe f9b7 	bl	800227c <commonPositionInBounds>
 8003f0e:	7a73      	ldrb	r3, [r6, #9]
 8003f10:	4338      	orrs	r0, r7
 8003f12:	0600      	lsls	r0, r0, #24
 8003f14:	3401      	adds	r4, #1
 8003f16:	0e07      	lsrs	r7, r0, #24
 8003f18:	3508      	adds	r5, #8
 8003f1a:	095b      	lsrs	r3, r3, #5
 8003f1c:	42a3      	cmp	r3, r4
 8003f1e:	dcf2      	bgt.n	8003f06 <werewolf_checkActionEventCollision+0x3e>
 8003f20:	2f00      	cmp	r7, #0
 8003f22:	d112      	bne.n	8003f4a <werewolf_checkActionEventCollision+0x82>
 8003f24:	464b      	mov	r3, r9
 8003f26:	781a      	ldrb	r2, [r3, #0]
 8003f28:	2301      	movs	r3, #1
 8003f2a:	469c      	mov	ip, r3
 8003f2c:	3333      	adds	r3, #51	; 0x33
 8003f2e:	44e0      	add	r8, ip
 8003f30:	469c      	mov	ip, r3
 8003f32:	44e3      	add	fp, ip
 8003f34:	4542      	cmp	r2, r8
 8003f36:	dcdc      	bgt.n	8003ef2 <werewolf_checkActionEventCollision+0x2a>
 8003f38:	b007      	add	sp, #28
 8003f3a:	bcf0      	pop	{r4, r5, r6, r7}
 8003f3c:	46bb      	mov	fp, r7
 8003f3e:	46b2      	mov	sl, r6
 8003f40:	46a9      	mov	r9, r5
 8003f42:	46a0      	mov	r8, r4
 8003f44:	bcf0      	pop	{r4, r5, r6, r7}
 8003f46:	bc01      	pop	{r0}
 8003f48:	4700      	bx	r0
 8003f4a:	4653      	mov	r3, sl
 8003f4c:	4652      	mov	r2, sl
 8003f4e:	8d5b      	ldrh	r3, [r3, #42]	; 0x2a
 8003f50:	3b01      	subs	r3, #1
 8003f52:	041b      	lsls	r3, r3, #16
 8003f54:	141b      	asrs	r3, r3, #16
 8003f56:	8553      	strh	r3, [r2, #42]	; 0x2a
 8003f58:	2b00      	cmp	r3, #0
 8003f5a:	dced      	bgt.n	8003f38 <werewolf_checkActionEventCollision+0x70>
 8003f5c:	4650      	mov	r0, sl
 8003f5e:	f7fd f911 	bl	8001184 <commonRemoveCharacter>
 8003f62:	e7e9      	b.n	8003f38 <werewolf_checkActionEventCollision+0x70>

08003f64 <werewolf_init>:
 8003f64:	23a0      	movs	r3, #160	; 0xa0
 8003f66:	b570      	push	{r4, r5, r6, lr}
 8003f68:	000d      	movs	r5, r1
 8003f6a:	2101      	movs	r1, #1
 8003f6c:	00db      	lsls	r3, r3, #3
 8003f6e:	b082      	sub	sp, #8
 8003f70:	8603      	strh	r3, [r0, #48]	; 0x30
 8003f72:	2201      	movs	r2, #1
 8003f74:	2300      	movs	r3, #0
 8003f76:	4249      	negs	r1, r1
 8003f78:	0004      	movs	r4, r0
 8003f7a:	f7fd f93b 	bl	80011f4 <commonCharacterInit>
 8003f7e:	2300      	movs	r3, #0
 8003f80:	2200      	movs	r2, #0
 8003f82:	2100      	movs	r1, #0
 8003f84:	0020      	movs	r0, r4
 8003f86:	9300      	str	r3, [sp, #0]
 8003f88:	f7fd f91e 	bl	80011c8 <commonCharacterSetPosition>
 8003f8c:	4b1f      	ldr	r3, [pc, #124]	; (800400c <werewolf_init+0xa8>)
 8003f8e:	6023      	str	r3, [r4, #0]
 8003f90:	4b1f      	ldr	r3, [pc, #124]	; (8004010 <werewolf_init+0xac>)
 8003f92:	6063      	str	r3, [r4, #4]
 8003f94:	4b1f      	ldr	r3, [pc, #124]	; (8004014 <werewolf_init+0xb0>)
 8003f96:	60a3      	str	r3, [r4, #8]
 8003f98:	4b1f      	ldr	r3, [pc, #124]	; (8004018 <werewolf_init+0xb4>)
 8003f9a:	60e3      	str	r3, [r4, #12]
 8003f9c:	4b1f      	ldr	r3, [pc, #124]	; (800401c <werewolf_init+0xb8>)
 8003f9e:	6123      	str	r3, [r4, #16]
 8003fa0:	4b1f      	ldr	r3, [pc, #124]	; (8004020 <werewolf_init+0xbc>)
 8003fa2:	6163      	str	r3, [r4, #20]
 8003fa4:	4b1f      	ldr	r3, [pc, #124]	; (8004024 <werewolf_init+0xc0>)
 8003fa6:	61a3      	str	r3, [r4, #24]
 8003fa8:	f002 fc74 	bl	8006894 <sprite_vram_findId>
 8003fac:	2380      	movs	r3, #128	; 0x80
 8003fae:	8c22      	ldrh	r2, [r4, #32]
 8003fb0:	0580      	lsls	r0, r0, #22
 8003fb2:	0d80      	lsrs	r0, r0, #22
 8003fb4:	00db      	lsls	r3, r3, #3
 8003fb6:	0ad2      	lsrs	r2, r2, #11
 8003fb8:	02d2      	lsls	r2, r2, #11
 8003fba:	4303      	orrs	r3, r0
 8003fbc:	4313      	orrs	r3, r2
 8003fbe:	8423      	strh	r3, [r4, #32]
 8003fc0:	2101      	movs	r1, #1
 8003fc2:	2005      	movs	r0, #5
 8003fc4:	f002 fcd2 	bl	800696c <sprite_palette_findId>
 8003fc8:	210f      	movs	r1, #15
 8003fca:	0026      	movs	r6, r4
 8003fcc:	4001      	ands	r1, r0
 8003fce:	2078      	movs	r0, #120	; 0x78
 8003fd0:	3620      	adds	r6, #32
 8003fd2:	7873      	ldrb	r3, [r6, #1]
 8003fd4:	00ca      	lsls	r2, r1, #3
 8003fd6:	4383      	bics	r3, r0
 8003fd8:	4313      	orrs	r3, r2
 8003fda:	7073      	strb	r3, [r6, #1]
 8003fdc:	4812      	ldr	r0, [pc, #72]	; (8004028 <werewolf_init+0xc4>)
 8003fde:	f002 fd1f 	bl	8006a20 <sprite_palette_copy32_ID>
 8003fe2:	2380      	movs	r3, #128	; 0x80
 8003fe4:	7872      	ldrb	r2, [r6, #1]
 8003fe6:	425b      	negs	r3, r3
 8003fe8:	4313      	orrs	r3, r2
 8003fea:	7073      	strb	r3, [r6, #1]
 8003fec:	0028      	movs	r0, r5
 8003fee:	f001 fd71 	bl	8005ad4 <mchar_getControlType>
 8003ff2:	4b0e      	ldr	r3, [pc, #56]	; (800402c <werewolf_init+0xc8>)
 8003ff4:	6802      	ldr	r2, [r0, #0]
 8003ff6:	401a      	ands	r2, r3
 8003ff8:	4b0d      	ldr	r3, [pc, #52]	; (8004030 <werewolf_init+0xcc>)
 8003ffa:	4313      	orrs	r3, r2
 8003ffc:	6003      	str	r3, [r0, #0]
 8003ffe:	4b0d      	ldr	r3, [pc, #52]	; (8004034 <werewolf_init+0xd0>)
 8004000:	6520      	str	r0, [r4, #80]	; 0x50
 8004002:	62a3      	str	r3, [r4, #40]	; 0x28
 8004004:	b002      	add	sp, #8
 8004006:	bc70      	pop	{r4, r5, r6}
 8004008:	bc01      	pop	{r0}
 800400a:	4700      	bx	r0
 800400c:	0800409d 	.word	0x0800409d
 8004010:	08003b25 	.word	0x08003b25
 8004014:	08003d6d 	.word	0x08003d6d
 8004018:	08003b45 	.word	0x08003b45
 800401c:	08003e65 	.word	0x08003e65
 8004020:	08003e39 	.word	0x08003e39
 8004024:	08003ec9 	.word	0x08003ec9
 8004028:	0802fd88 	.word	0x0802fd88
 800402c:	0f00fff8 	.word	0x0f00fff8
 8004030:	00800001 	.word	0x00800001
 8004034:	0005000a 	.word	0x0005000a

08004038 <werewolf_getBounds>:
 8004038:	2301      	movs	r3, #1
 800403a:	600b      	str	r3, [r1, #0]
 800403c:	8fc3      	ldrh	r3, [r0, #62]	; 0x3e
 800403e:	3b08      	subs	r3, #8
 8004040:	8f81      	ldrh	r1, [r0, #60]	; 0x3c
 8004042:	8053      	strh	r3, [r2, #2]
 8004044:	2300      	movs	r3, #0
 8004046:	8093      	strh	r3, [r2, #4]
 8004048:	4b03      	ldr	r3, [pc, #12]	; (8004058 <werewolf_getBounds+0x20>)
 800404a:	6093      	str	r3, [r2, #8]
 800404c:	2318      	movs	r3, #24
 800404e:	3908      	subs	r1, #8
 8004050:	8011      	strh	r1, [r2, #0]
 8004052:	8193      	strh	r3, [r2, #12]
 8004054:	4770      	bx	lr
 8004056:	46c0      	nop			; (mov r8, r8)
 8004058:	00100010 	.word	0x00100010

0800405c <werewolf_getBoundingBoxMoving>:
 800405c:	2301      	movs	r3, #1
 800405e:	b510      	push	{r4, lr}
 8004060:	600b      	str	r3, [r1, #0]
 8004062:	8f81      	ldrh	r1, [r0, #60]	; 0x3c
 8004064:	000c      	movs	r4, r1
 8004066:	8fc3      	ldrh	r3, [r0, #62]	; 0x3e
 8004068:	3c08      	subs	r4, #8
 800406a:	8014      	strh	r4, [r2, #0]
 800406c:	001c      	movs	r4, r3
 800406e:	3308      	adds	r3, #8
 8004070:	80d3      	strh	r3, [r2, #6]
 8004072:	2335      	movs	r3, #53	; 0x35
 8004074:	3108      	adds	r1, #8
 8004076:	8091      	strh	r1, [r2, #4]
 8004078:	2140      	movs	r1, #64	; 0x40
 800407a:	3c08      	subs	r4, #8
 800407c:	8054      	strh	r4, [r2, #2]
 800407e:	5cc3      	ldrb	r3, [r0, r3]
 8004080:	075b      	lsls	r3, r3, #29
 8004082:	0f5b      	lsrs	r3, r3, #29
 8004084:	430b      	orrs	r3, r1
 8004086:	2138      	movs	r1, #56	; 0x38
 8004088:	7b10      	ldrb	r0, [r2, #12]
 800408a:	4001      	ands	r1, r0
 800408c:	430b      	orrs	r3, r1
 800408e:	7313      	strb	r3, [r2, #12]
 8004090:	bc10      	pop	{r4}
 8004092:	bc01      	pop	{r0}
 8004094:	4700      	bx	r0
 8004096:	4718      	bx	r3
 8004098:	4720      	bx	r4
 800409a:	46c0      	nop			; (mov r8, r8)

0800409c <werewolf_scanSurroundingsController>:
 800409c:	b5f8      	push	{r3, r4, r5, r6, r7, lr}
 800409e:	6d04      	ldr	r4, [r0, #80]	; 0x50
 80040a0:	78e5      	ldrb	r5, [r4, #3]
 80040a2:	06ea      	lsls	r2, r5, #27
 80040a4:	06a9      	lsls	r1, r5, #26
 80040a6:	4311      	orrs	r1, r2
 80040a8:	066a      	lsls	r2, r5, #25
 80040aa:	0006      	movs	r6, r0
 80040ac:	430a      	orrs	r2, r1
 80040ae:	d417      	bmi.n	80040e0 <werewolf_scanSurroundingsController+0x44>
 80040b0:	09ed      	lsrs	r5, r5, #7
 80040b2:	d115      	bne.n	80040e0 <werewolf_scanSurroundingsController+0x44>
 80040b4:	f7fe fcee 	bl	8002a94 <commonDoIntializeActions>
 80040b8:	2800      	cmp	r0, #0
 80040ba:	d146      	bne.n	800414a <werewolf_scanSurroundingsController+0xae>
 80040bc:	0030      	movs	r0, r6
 80040be:	f7fe fcb3 	bl	8002a28 <commonDoNextAction>
 80040c2:	2800      	cmp	r0, #0
 80040c4:	d118      	bne.n	80040f8 <werewolf_scanSurroundingsController+0x5c>
 80040c6:	78a3      	ldrb	r3, [r4, #2]
 80040c8:	091b      	lsrs	r3, r3, #4
 80040ca:	3302      	adds	r3, #2
 80040cc:	009a      	lsls	r2, r3, #2
 80040ce:	18a2      	adds	r2, r4, r2
 80040d0:	7952      	ldrb	r2, [r2, #5]
 80040d2:	3201      	adds	r2, #1
 80040d4:	0612      	lsls	r2, r2, #24
 80040d6:	0e12      	lsrs	r2, r2, #24
 80040d8:	009b      	lsls	r3, r3, #2
 80040da:	18e4      	adds	r4, r4, r3
 80040dc:	7162      	strb	r2, [r4, #5]
 80040de:	e008      	b.n	80040f2 <werewolf_scanSurroundingsController+0x56>
 80040e0:	220f      	movs	r2, #15
 80040e2:	4b33      	ldr	r3, [pc, #204]	; (80041b0 <werewolf_scanSurroundingsController+0x114>)
 80040e4:	6033      	str	r3, [r6, #0]
 80040e6:	78a3      	ldrb	r3, [r4, #2]
 80040e8:	401a      	ands	r2, r3
 80040ea:	2380      	movs	r3, #128	; 0x80
 80040ec:	425b      	negs	r3, r3
 80040ee:	4313      	orrs	r3, r2
 80040f0:	70a3      	strb	r3, [r4, #2]
 80040f2:	bcf8      	pop	{r3, r4, r5, r6, r7}
 80040f4:	bc01      	pop	{r0}
 80040f6:	4700      	bx	r0
 80040f8:	78a1      	ldrb	r1, [r4, #2]
 80040fa:	070a      	lsls	r2, r1, #28
 80040fc:	0f12      	lsrs	r2, r2, #28
 80040fe:	3a01      	subs	r2, #1
 8004100:	090b      	lsrs	r3, r1, #4
 8004102:	4293      	cmp	r3, r2
 8004104:	dae1      	bge.n	80040ca <werewolf_scanSurroundingsController+0x2e>
 8004106:	220f      	movs	r2, #15
 8004108:	3301      	adds	r3, #1
 800410a:	4013      	ands	r3, r2
 800410c:	011b      	lsls	r3, r3, #4
 800410e:	400a      	ands	r2, r1
 8004110:	431a      	orrs	r2, r3
 8004112:	4b28      	ldr	r3, [pc, #160]	; (80041b4 <werewolf_scanSurroundingsController+0x118>)
 8004114:	70a2      	strb	r2, [r4, #2]
 8004116:	60f3      	str	r3, [r6, #12]
 8004118:	78a3      	ldrb	r3, [r4, #2]
 800411a:	091b      	lsrs	r3, r3, #4
 800411c:	3302      	adds	r3, #2
 800411e:	009b      	lsls	r3, r3, #2
 8004120:	18e3      	adds	r3, r4, r3
 8004122:	79da      	ldrb	r2, [r3, #7]
 8004124:	2336      	movs	r3, #54	; 0x36
 8004126:	54f2      	strb	r2, [r6, r3]
 8004128:	78a3      	ldrb	r3, [r4, #2]
 800412a:	091b      	lsrs	r3, r3, #4
 800412c:	3302      	adds	r3, #2
 800412e:	009b      	lsls	r3, r3, #2
 8004130:	18e3      	adds	r3, r4, r3
 8004132:	799a      	ldrb	r2, [r3, #6]
 8004134:	2337      	movs	r3, #55	; 0x37
 8004136:	2100      	movs	r1, #0
 8004138:	54f2      	strb	r2, [r6, r3]
 800413a:	78a3      	ldrb	r3, [r4, #2]
 800413c:	091b      	lsrs	r3, r3, #4
 800413e:	3302      	adds	r3, #2
 8004140:	009a      	lsls	r2, r3, #2
 8004142:	18a2      	adds	r2, r4, r2
 8004144:	7151      	strb	r1, [r2, #5]
 8004146:	2201      	movs	r2, #1
 8004148:	e7c6      	b.n	80040d8 <werewolf_scanSurroundingsController+0x3c>
 800414a:	f004 f951 	bl	80083f0 <__rand_from_thumb>
 800414e:	2307      	movs	r3, #7
 8004150:	2104      	movs	r1, #4
 8004152:	4a19      	ldr	r2, [pc, #100]	; (80041b8 <werewolf_scanSurroundingsController+0x11c>)
 8004154:	4003      	ands	r3, r0
 8004156:	70a1      	strb	r1, [r4, #2]
 8004158:	5cd1      	ldrb	r1, [r2, r3]
 800415a:	2301      	movs	r3, #1
 800415c:	4399      	bics	r1, r3
 800415e:	3301      	adds	r3, #1
 8004160:	73e3      	strb	r3, [r4, #15]
 8004162:	4b16      	ldr	r3, [pc, #88]	; (80041bc <werewolf_scanSurroundingsController+0x120>)
 8004164:	81a5      	strh	r5, [r4, #12]
 8004166:	73a1      	strb	r1, [r4, #14]
 8004168:	60f3      	str	r3, [r6, #12]
 800416a:	78a3      	ldrb	r3, [r4, #2]
 800416c:	0718      	lsls	r0, r3, #28
 800416e:	0f00      	lsrs	r0, r0, #28
 8004170:	2801      	cmp	r0, #1
 8004172:	d90c      	bls.n	800418e <werewolf_scanSurroundingsController+0xf2>
 8004174:	0023      	movs	r3, r4
 8004176:	2201      	movs	r2, #1
 8004178:	2714      	movs	r7, #20
 800417a:	2501      	movs	r5, #1
 800417c:	3310      	adds	r3, #16
 800417e:	3201      	adds	r2, #1
 8004180:	801f      	strh	r7, [r3, #0]
 8004182:	7099      	strb	r1, [r3, #2]
 8004184:	70dd      	strb	r5, [r3, #3]
 8004186:	3304      	adds	r3, #4
 8004188:	4282      	cmp	r2, r0
 800418a:	dbf8      	blt.n	800417e <werewolf_scanSurroundingsController+0xe2>
 800418c:	78a3      	ldrb	r3, [r4, #2]
 800418e:	091b      	lsrs	r3, r3, #4
 8004190:	3302      	adds	r3, #2
 8004192:	009b      	lsls	r3, r3, #2
 8004194:	18e3      	adds	r3, r4, r3
 8004196:	79da      	ldrb	r2, [r3, #7]
 8004198:	2336      	movs	r3, #54	; 0x36
 800419a:	54f2      	strb	r2, [r6, r3]
 800419c:	78a3      	ldrb	r3, [r4, #2]
 800419e:	091b      	lsrs	r3, r3, #4
 80041a0:	3302      	adds	r3, #2
 80041a2:	009b      	lsls	r3, r3, #2
 80041a4:	18e3      	adds	r3, r4, r3
 80041a6:	799a      	ldrb	r2, [r3, #6]
 80041a8:	2337      	movs	r3, #55	; 0x37
 80041aa:	54f2      	strb	r2, [r6, r3]
 80041ac:	e786      	b.n	80040bc <werewolf_scanSurroundingsController+0x20>
 80041ae:	46c0      	nop			; (mov r8, r8)
 80041b0:	080041c1 	.word	0x080041c1
 80041b4:	0800405d 	.word	0x0800405d
 80041b8:	08008be0 	.word	0x08008be0
 80041bc:	08003b45 	.word	0x08003b45

080041c0 <werewolf_goAroundObstacleController>:
 80041c0:	b530      	push	{r4, r5, lr}
 80041c2:	b085      	sub	sp, #20
 80041c4:	466b      	mov	r3, sp
 80041c6:	2200      	movs	r2, #0
 80041c8:	6d04      	ldr	r4, [r0, #80]	; 0x50
 80041ca:	3307      	adds	r3, #7
 80041cc:	701a      	strb	r2, [r3, #0]
 80041ce:	a902      	add	r1, sp, #8
 80041d0:	aa03      	add	r2, sp, #12
 80041d2:	0005      	movs	r5, r0
 80041d4:	f7fd fa5a 	bl	800168c <commonGetNextFrame>
 80041d8:	78a3      	ldrb	r3, [r4, #2]
 80041da:	091a      	lsrs	r2, r3, #4
 80041dc:	2b7f      	cmp	r3, #127	; 0x7f
 80041de:	d843      	bhi.n	8004268 <werewolf_goAroundObstacleController+0xa8>
 80041e0:	071b      	lsls	r3, r3, #28
 80041e2:	0f1b      	lsrs	r3, r3, #28
 80041e4:	4293      	cmp	r3, r2
 80041e6:	d93f      	bls.n	8004268 <werewolf_goAroundObstacleController+0xa8>
 80041e8:	78e3      	ldrb	r3, [r4, #3]
 80041ea:	06da      	lsls	r2, r3, #27
 80041ec:	d505      	bpl.n	80041fa <werewolf_goAroundObstacleController+0x3a>
 80041ee:	2235      	movs	r2, #53	; 0x35
 80041f0:	5ca9      	ldrb	r1, [r5, r2]
 80041f2:	3a26      	subs	r2, #38	; 0x26
 80041f4:	400a      	ands	r2, r1
 80041f6:	2a06      	cmp	r2, #6
 80041f8:	d014      	beq.n	8004224 <werewolf_goAroundObstacleController+0x64>
 80041fa:	069a      	lsls	r2, r3, #26
 80041fc:	d505      	bpl.n	800420a <werewolf_goAroundObstacleController+0x4a>
 80041fe:	2235      	movs	r2, #53	; 0x35
 8004200:	5ca9      	ldrb	r1, [r5, r2]
 8004202:	3a26      	subs	r2, #38	; 0x26
 8004204:	400a      	ands	r2, r1
 8004206:	2a02      	cmp	r2, #2
 8004208:	d042      	beq.n	8004290 <werewolf_goAroundObstacleController+0xd0>
 800420a:	065a      	lsls	r2, r3, #25
 800420c:	d50e      	bpl.n	800422c <werewolf_goAroundObstacleController+0x6c>
 800420e:	2235      	movs	r2, #53	; 0x35
 8004210:	5ca9      	ldrb	r1, [r5, r2]
 8004212:	3a26      	subs	r2, #38	; 0x26
 8004214:	400a      	ands	r2, r1
 8004216:	2a04      	cmp	r2, #4
 8004218:	d108      	bne.n	800422c <werewolf_goAroundObstacleController+0x6c>
 800421a:	2337      	movs	r3, #55	; 0x37
 800421c:	3a02      	subs	r2, #2
 800421e:	54ea      	strb	r2, [r5, r3]
 8004220:	3b35      	subs	r3, #53	; 0x35
 8004222:	e007      	b.n	8004234 <werewolf_goAroundObstacleController+0x74>
 8004224:	2337      	movs	r3, #55	; 0x37
 8004226:	3a02      	subs	r2, #2
 8004228:	54ea      	strb	r2, [r5, r3]
 800422a:	78e3      	ldrb	r3, [r4, #3]
 800422c:	061b      	lsls	r3, r3, #24
 800422e:	d426      	bmi.n	800427e <werewolf_goAroundObstacleController+0xbe>
 8004230:	2337      	movs	r3, #55	; 0x37
 8004232:	5ceb      	ldrb	r3, [r5, r3]
 8004234:	0028      	movs	r0, r5
 8004236:	73a3      	strb	r3, [r4, #14]
 8004238:	f7fe fbf6 	bl	8002a28 <commonDoNextAction>
 800423c:	2800      	cmp	r0, #0
 800423e:	d008      	beq.n	8004252 <werewolf_goAroundObstacleController+0x92>
 8004240:	22f0      	movs	r2, #240	; 0xf0
 8004242:	8863      	ldrh	r3, [r4, #2]
 8004244:	0112      	lsls	r2, r2, #4
 8004246:	4013      	ands	r3, r2
 8004248:	2280      	movs	r2, #128	; 0x80
 800424a:	4313      	orrs	r3, r2
 800424c:	8063      	strh	r3, [r4, #2]
 800424e:	4b12      	ldr	r3, [pc, #72]	; (8004298 <werewolf_goAroundObstacleController+0xd8>)
 8004250:	602b      	str	r3, [r5, #0]
 8004252:	78a3      	ldrb	r3, [r4, #2]
 8004254:	091b      	lsrs	r3, r3, #4
 8004256:	009b      	lsls	r3, r3, #2
 8004258:	18e4      	adds	r4, r4, r3
 800425a:	7b63      	ldrb	r3, [r4, #13]
 800425c:	3301      	adds	r3, #1
 800425e:	7363      	strb	r3, [r4, #13]
 8004260:	b005      	add	sp, #20
 8004262:	bc30      	pop	{r4, r5}
 8004264:	bc01      	pop	{r0}
 8004266:	4700      	bx	r0
 8004268:	2201      	movs	r2, #1
 800426a:	2335      	movs	r3, #53	; 0x35
 800426c:	213c      	movs	r1, #60	; 0x3c
 800426e:	70a2      	strb	r2, [r4, #2]
 8004270:	5ceb      	ldrb	r3, [r5, r3]
 8004272:	071b      	lsls	r3, r3, #28
 8004274:	171b      	asrs	r3, r3, #28
 8004276:	81a1      	strh	r1, [r4, #12]
 8004278:	73a3      	strb	r3, [r4, #14]
 800427a:	73e2      	strb	r2, [r4, #15]
 800427c:	e7b4      	b.n	80041e8 <werewolf_goAroundObstacleController+0x28>
 800427e:	2335      	movs	r3, #53	; 0x35
 8004280:	5ceb      	ldrb	r3, [r5, r3]
 8004282:	071b      	lsls	r3, r3, #28
 8004284:	d1d4      	bne.n	8004230 <werewolf_goAroundObstacleController+0x70>
 8004286:	2337      	movs	r3, #55	; 0x37
 8004288:	2206      	movs	r2, #6
 800428a:	54ea      	strb	r2, [r5, r3]
 800428c:	3b31      	subs	r3, #49	; 0x31
 800428e:	e7d1      	b.n	8004234 <werewolf_goAroundObstacleController+0x74>
 8004290:	2337      	movs	r3, #55	; 0x37
 8004292:	2200      	movs	r2, #0
 8004294:	54ea      	strb	r2, [r5, r3]
 8004296:	e7cb      	b.n	8004230 <werewolf_goAroundObstacleController+0x70>
 8004298:	0800409d 	.word	0x0800409d

0800429c <werewolf_setCharacter>:
 800429c:	4b01      	ldr	r3, [pc, #4]	; (80042a4 <werewolf_setCharacter+0x8>)
 800429e:	6003      	str	r3, [r0, #0]
 80042a0:	4770      	bx	lr
 80042a2:	46c0      	nop			; (mov r8, r8)
 80042a4:	0800409d 	.word	0x0800409d

080042a8 <werewolf_huntTargetController>:
 80042a8:	4770      	bx	lr
 80042aa:	46c0      	nop			; (mov r8, r8)

080042ac <werewolf_remove>:
 80042ac:	b510      	push	{r4, lr}
 80042ae:	4803      	ldr	r0, [pc, #12]	; (80042bc <werewolf_remove+0x10>)
 80042b0:	f001 fe10 	bl	8005ed4 <mprinter_print>
 80042b4:	bc10      	pop	{r4}
 80042b6:	bc01      	pop	{r0}
 80042b8:	4700      	bx	r0
 80042ba:	46c0      	nop			; (mov r8, r8)
 80042bc:	08035d38 	.word	0x08035d38

080042c0 <windowmask_getBoundingBoxStanding>:
 80042c0:	4770      	bx	lr
 80042c2:	46c0      	nop			; (mov r8, r8)

080042c4 <windowmask_checkMapCollision>:
 80042c4:	4770      	bx	lr
 80042c6:	46c0      	nop			; (mov r8, r8)

080042c8 <windowmask_checkCollision>:
 80042c8:	4770      	bx	lr
 80042ca:	46c0      	nop			; (mov r8, r8)

080042cc <windowmask_setPosition>:
 80042cc:	b570      	push	{r4, r5, r6, lr}
 80042ce:	0004      	movs	r4, r0
 80042d0:	6d06      	ldr	r6, [r0, #80]	; 0x50
 80042d2:	2028      	movs	r0, #40	; 0x28
 80042d4:	0025      	movs	r5, r4
 80042d6:	8853      	ldrh	r3, [r2, #2]
 80042d8:	4240      	negs	r0, r0
 80042da:	1ac0      	subs	r0, r0, r3
 80042dc:	88f3      	ldrh	r3, [r6, #6]
 80042de:	3520      	adds	r5, #32
 80042e0:	181b      	adds	r3, r3, r0
 80042e2:	712b      	strb	r3, [r5, #4]
 80042e4:	2320      	movs	r3, #32
 80042e6:	8812      	ldrh	r2, [r2, #0]
 80042e8:	425b      	negs	r3, r3
 80042ea:	1a9b      	subs	r3, r3, r2
 80042ec:	88b2      	ldrh	r2, [r6, #4]
 80042ee:	480d      	ldr	r0, [pc, #52]	; (8004324 <windowmask_setPosition+0x58>)
 80042f0:	189b      	adds	r3, r3, r2
 80042f2:	6a62      	ldr	r2, [r4, #36]	; 0x24
 80042f4:	4002      	ands	r2, r0
 80042f6:	0020      	movs	r0, r4
 80042f8:	05db      	lsls	r3, r3, #23
 80042fa:	0bdb      	lsrs	r3, r3, #15
 80042fc:	4313      	orrs	r3, r2
 80042fe:	6263      	str	r3, [r4, #36]	; 0x24
 8004300:	301c      	adds	r0, #28
 8004302:	f7fd f8a5 	bl	8001450 <commonSetToOamBufferAsObjWindow>
 8004306:	2202      	movs	r2, #2
 8004308:	79ab      	ldrb	r3, [r5, #6]
 800430a:	4313      	orrs	r3, r2
 800430c:	71ab      	strb	r3, [r5, #6]
 800430e:	2323      	movs	r3, #35	; 0x23
 8004310:	69e2      	ldr	r2, [r4, #28]
 8004312:	5ce3      	ldrb	r3, [r4, r3]
 8004314:	6812      	ldr	r2, [r2, #0]
 8004316:	065b      	lsls	r3, r3, #25
 8004318:	0d9b      	lsrs	r3, r3, #22
 800431a:	18d3      	adds	r3, r2, r3
 800431c:	88d8      	ldrh	r0, [r3, #6]
 800431e:	bc70      	pop	{r4, r5, r6}
 8004320:	bc02      	pop	{r1}
 8004322:	4708      	bx	r1
 8004324:	fffe00ff 	.word	0xfffe00ff

08004328 <windowmask_checkActionEventCollision>:
 8004328:	4770      	bx	lr
 800432a:	46c0      	nop			; (mov r8, r8)

0800432c <windowmask_doAction>:
 800432c:	b5f0      	push	{r4, r5, r6, r7, lr}
 800432e:	7854      	ldrb	r4, [r2, #1]
 8004330:	6d07      	ldr	r7, [r0, #80]	; 0x50
 8004332:	2c00      	cmp	r4, #0
 8004334:	d014      	beq.n	8004360 <windowmask_doAction+0x34>
 8004336:	2300      	movs	r3, #0
 8004338:	2531      	movs	r5, #49	; 0x31
 800433a:	6856      	ldr	r6, [r2, #4]
 800433c:	e002      	b.n	8004344 <windowmask_doAction+0x18>
 800433e:	3301      	adds	r3, #1
 8004340:	42a3      	cmp	r3, r4
 8004342:	da0d      	bge.n	8004360 <windowmask_doAction+0x34>
 8004344:	009a      	lsls	r2, r3, #2
 8004346:	58b2      	ldr	r2, [r6, r2]
 8004348:	5751      	ldrsb	r1, [r2, r5]
 800434a:	2901      	cmp	r1, #1
 800434c:	d8f7      	bhi.n	800433e <windowmask_doAction+0x12>
 800434e:	4b07      	ldr	r3, [pc, #28]	; (800436c <windowmask_doAction+0x40>)
 8004350:	3704      	adds	r7, #4
 8004352:	323c      	adds	r2, #60	; 0x3c
 8004354:	ca12      	ldmia	r2!, {r1, r4}
 8004356:	c712      	stmia	r7!, {r1, r4}
 8004358:	61c3      	str	r3, [r0, #28]
 800435a:	bcf0      	pop	{r4, r5, r6, r7}
 800435c:	bc01      	pop	{r0}
 800435e:	4700      	bx	r0
 8004360:	2200      	movs	r2, #0
 8004362:	3704      	adds	r7, #4
 8004364:	ca03      	ldmia	r2!, {r0, r1}
 8004366:	c703      	stmia	r7!, {r0, r1}
 8004368:	deff      	udf	#255	; 0xff
 800436a:	46c0      	nop			; (mov r8, r8)
 800436c:	08033438 	.word	0x08033438

08004370 <windowmask_init>:
 8004370:	23a0      	movs	r3, #160	; 0xa0
 8004372:	b570      	push	{r4, r5, r6, lr}
 8004374:	011b      	lsls	r3, r3, #4
 8004376:	0004      	movs	r4, r0
 8004378:	b082      	sub	sp, #8
 800437a:	8603      	strh	r3, [r0, #48]	; 0x30
 800437c:	000d      	movs	r5, r1
 800437e:	f002 fa89 	bl	8006894 <sprite_vram_findId>
 8004382:	2380      	movs	r3, #128	; 0x80
 8004384:	8c22      	ldrh	r2, [r4, #32]
 8004386:	0580      	lsls	r0, r0, #22
 8004388:	0d80      	lsrs	r0, r0, #22
 800438a:	00db      	lsls	r3, r3, #3
 800438c:	0ad2      	lsrs	r2, r2, #11
 800438e:	02d2      	lsls	r2, r2, #11
 8004390:	4303      	orrs	r3, r0
 8004392:	4313      	orrs	r3, r2
 8004394:	8423      	strh	r3, [r4, #32]
 8004396:	2101      	movs	r1, #1
 8004398:	200a      	movs	r0, #10
 800439a:	f002 fae7 	bl	800696c <sprite_palette_findId>
 800439e:	0022      	movs	r2, r4
 80043a0:	210f      	movs	r1, #15
 80043a2:	2678      	movs	r6, #120	; 0x78
 80043a4:	3220      	adds	r2, #32
 80043a6:	7853      	ldrb	r3, [r2, #1]
 80043a8:	4001      	ands	r1, r0
 80043aa:	00c8      	lsls	r0, r1, #3
 80043ac:	43b3      	bics	r3, r6
 80043ae:	4303      	orrs	r3, r0
 80043b0:	7053      	strb	r3, [r2, #1]
 80043b2:	4816      	ldr	r0, [pc, #88]	; (800440c <windowmask_init+0x9c>)
 80043b4:	f002 fb34 	bl	8006a20 <sprite_palette_copy32_ID>
 80043b8:	2101      	movs	r1, #1
 80043ba:	0020      	movs	r0, r4
 80043bc:	2300      	movs	r3, #0
 80043be:	2200      	movs	r2, #0
 80043c0:	4249      	negs	r1, r1
 80043c2:	f7fc ff17 	bl	80011f4 <commonCharacterInit>
 80043c6:	2300      	movs	r3, #0
 80043c8:	2200      	movs	r2, #0
 80043ca:	2100      	movs	r1, #0
 80043cc:	0020      	movs	r0, r4
 80043ce:	9300      	str	r3, [sp, #0]
 80043d0:	f7fc fefa 	bl	80011c8 <commonCharacterSetPosition>
 80043d4:	4b0e      	ldr	r3, [pc, #56]	; (8004410 <windowmask_init+0xa0>)
 80043d6:	6023      	str	r3, [r4, #0]
 80043d8:	4b0e      	ldr	r3, [pc, #56]	; (8004414 <windowmask_init+0xa4>)
 80043da:	6063      	str	r3, [r4, #4]
 80043dc:	4b0e      	ldr	r3, [pc, #56]	; (8004418 <windowmask_init+0xa8>)
 80043de:	60a3      	str	r3, [r4, #8]
 80043e0:	4b0e      	ldr	r3, [pc, #56]	; (800441c <windowmask_init+0xac>)
 80043e2:	60e3      	str	r3, [r4, #12]
 80043e4:	4b0e      	ldr	r3, [pc, #56]	; (8004420 <windowmask_init+0xb0>)
 80043e6:	6123      	str	r3, [r4, #16]
 80043e8:	4b0e      	ldr	r3, [pc, #56]	; (8004424 <windowmask_init+0xb4>)
 80043ea:	6163      	str	r3, [r4, #20]
 80043ec:	4b0e      	ldr	r3, [pc, #56]	; (8004428 <windowmask_init+0xb8>)
 80043ee:	0028      	movs	r0, r5
 80043f0:	61a3      	str	r3, [r4, #24]
 80043f2:	f001 fb6f 	bl	8005ad4 <mchar_getControlType>
 80043f6:	2207      	movs	r2, #7
 80043f8:	7803      	ldrb	r3, [r0, #0]
 80043fa:	4393      	bics	r3, r2
 80043fc:	2201      	movs	r2, #1
 80043fe:	4313      	orrs	r3, r2
 8004400:	7003      	strb	r3, [r0, #0]
 8004402:	6520      	str	r0, [r4, #80]	; 0x50
 8004404:	b002      	add	sp, #8
 8004406:	bc70      	pop	{r4, r5, r6}
 8004408:	bc01      	pop	{r0}
 800440a:	4700      	bx	r0
 800440c:	080303e0 	.word	0x080303e0
 8004410:	080044dd 	.word	0x080044dd
 8004414:	0800432d 	.word	0x0800432d
 8004418:	080042cd 	.word	0x080042cd
 800441c:	080042c1 	.word	0x080042c1
 8004420:	080042c9 	.word	0x080042c9
 8004424:	080042c5 	.word	0x080042c5
 8004428:	08004329 	.word	0x08004329

0800442c <windowmask_actionFollow>:
 800442c:	b5f0      	push	{r4, r5, r6, r7, lr}
 800442e:	7854      	ldrb	r4, [r2, #1]
 8004430:	6d07      	ldr	r7, [r0, #80]	; 0x50
 8004432:	2c00      	cmp	r4, #0
 8004434:	d014      	beq.n	8004460 <windowmask_actionFollow+0x34>
 8004436:	2300      	movs	r3, #0
 8004438:	2531      	movs	r5, #49	; 0x31
 800443a:	6856      	ldr	r6, [r2, #4]
 800443c:	e002      	b.n	8004444 <windowmask_actionFollow+0x18>
 800443e:	3301      	adds	r3, #1
 8004440:	42a3      	cmp	r3, r4
 8004442:	da0d      	bge.n	8004460 <windowmask_actionFollow+0x34>
 8004444:	009a      	lsls	r2, r3, #2
 8004446:	58b2      	ldr	r2, [r6, r2]
 8004448:	5751      	ldrsb	r1, [r2, r5]
 800444a:	2901      	cmp	r1, #1
 800444c:	d8f7      	bhi.n	800443e <windowmask_actionFollow+0x12>
 800444e:	4b07      	ldr	r3, [pc, #28]	; (800446c <windowmask_actionFollow+0x40>)
 8004450:	3704      	adds	r7, #4
 8004452:	323c      	adds	r2, #60	; 0x3c
 8004454:	ca12      	ldmia	r2!, {r1, r4}
 8004456:	c712      	stmia	r7!, {r1, r4}
 8004458:	61c3      	str	r3, [r0, #28]
 800445a:	bcf0      	pop	{r4, r5, r6, r7}
 800445c:	bc01      	pop	{r0}
 800445e:	4700      	bx	r0
 8004460:	2200      	movs	r2, #0
 8004462:	3704      	adds	r7, #4
 8004464:	ca03      	ldmia	r2!, {r0, r1}
 8004466:	c703      	stmia	r7!, {r0, r1}
 8004468:	deff      	udf	#255	; 0xff
 800446a:	46c0      	nop			; (mov r8, r8)
 800446c:	08033438 	.word	0x08033438

08004470 <windowmask_getBoundingBoxMoving>:
 8004470:	4770      	bx	lr
 8004472:	46c0      	nop			; (mov r8, r8)

08004474 <findCharWindowMaskType>:
 8004474:	b5f0      	push	{r4, r5, r6, r7, lr}
 8004476:	464e      	mov	r6, r9
 8004478:	4645      	mov	r5, r8
 800447a:	46de      	mov	lr, fp
 800447c:	4657      	mov	r7, sl
 800447e:	b5e0      	push	{r5, r6, r7, lr}
 8004480:	7846      	ldrb	r6, [r0, #1]
 8004482:	4688      	mov	r8, r1
 8004484:	2e00      	cmp	r6, #0
 8004486:	d01d      	beq.n	80044c4 <findCharWindowMaskType+0x50>
 8004488:	6843      	ldr	r3, [r0, #4]
 800448a:	469c      	mov	ip, r3
 800448c:	17d3      	asrs	r3, r2, #31
 800448e:	469b      	mov	fp, r3
 8004490:	2331      	movs	r3, #49	; 0x31
 8004492:	469a      	mov	sl, r3
 8004494:	0fcb      	lsrs	r3, r1, #31
 8004496:	2500      	movs	r5, #0
 8004498:	4699      	mov	r9, r3
 800449a:	4660      	mov	r0, ip
 800449c:	00ab      	lsls	r3, r5, #2
 800449e:	58c0      	ldr	r0, [r0, r3]
 80044a0:	4653      	mov	r3, sl
 80044a2:	4659      	mov	r1, fp
 80044a4:	56c4      	ldrsb	r4, [r0, r3]
 80044a6:	0fe3      	lsrs	r3, r4, #31
 80044a8:	42a2      	cmp	r2, r4
 80044aa:	414b      	adcs	r3, r1
 80044ac:	061b      	lsls	r3, r3, #24
 80044ae:	d006      	beq.n	80044be <findCharWindowMaskType+0x4a>
 80044b0:	464f      	mov	r7, r9
 80044b2:	4641      	mov	r1, r8
 80044b4:	17e3      	asrs	r3, r4, #31
 80044b6:	428c      	cmp	r4, r1
 80044b8:	417b      	adcs	r3, r7
 80044ba:	061b      	lsls	r3, r3, #24
 80044bc:	d10b      	bne.n	80044d6 <findCharWindowMaskType+0x62>
 80044be:	3501      	adds	r5, #1
 80044c0:	42b5      	cmp	r5, r6
 80044c2:	dbea      	blt.n	800449a <findCharWindowMaskType+0x26>
 80044c4:	2000      	movs	r0, #0
 80044c6:	bcf0      	pop	{r4, r5, r6, r7}
 80044c8:	46bb      	mov	fp, r7
 80044ca:	46b2      	mov	sl, r6
 80044cc:	46a9      	mov	r9, r5
 80044ce:	46a0      	mov	r8, r4
 80044d0:	bcf0      	pop	{r4, r5, r6, r7}
 80044d2:	bc02      	pop	{r1}
 80044d4:	4708      	bx	r1
 80044d6:	303c      	adds	r0, #60	; 0x3c
 80044d8:	e7f5      	b.n	80044c6 <findCharWindowMaskType+0x52>
 80044da:	46c0      	nop			; (mov r8, r8)

080044dc <windowmask_controller>:
 80044dc:	2336      	movs	r3, #54	; 0x36
 80044de:	2200      	movs	r2, #0
 80044e0:	54c2      	strb	r2, [r0, r3]
 80044e2:	4770      	bx	lr

080044e4 <windowmask_setCharacter>:
 80044e4:	4b01      	ldr	r3, [pc, #4]	; (80044ec <windowmask_setCharacter+0x8>)
 80044e6:	6003      	str	r3, [r0, #0]
 80044e8:	4770      	bx	lr
 80044ea:	46c0      	nop			; (mov r8, r8)
 80044ec:	080044dd 	.word	0x080044dd

080044f0 <zombie_doAction>:
 80044f0:	b570      	push	{r4, r5, r6, lr}
 80044f2:	2436      	movs	r4, #54	; 0x36
 80044f4:	5d04      	ldrb	r4, [r0, r4]
 80044f6:	2c03      	cmp	r4, #3
 80044f8:	d804      	bhi.n	8004504 <zombie_doAction+0x14>
 80044fa:	4d04      	ldr	r5, [pc, #16]	; (800450c <zombie_doAction+0x1c>)
 80044fc:	00a4      	lsls	r4, r4, #2
 80044fe:	5964      	ldr	r4, [r4, r5]
 8004500:	f000 fbec 	bl	8004cdc <zombie_getBoundingBoxStanding+0x38>
 8004504:	bc70      	pop	{r4, r5, r6}
 8004506:	bc01      	pop	{r0}
 8004508:	4700      	bx	r0
 800450a:	46c0      	nop			; (mov r8, r8)
 800450c:	03000b94 	.word	0x03000b94

08004510 <zombie_getBoundingBoxMoving>:
 8004510:	2301      	movs	r3, #1
 8004512:	b510      	push	{r4, lr}
 8004514:	600b      	str	r3, [r1, #0]
 8004516:	8f81      	ldrh	r1, [r0, #60]	; 0x3c
 8004518:	000c      	movs	r4, r1
 800451a:	8fc3      	ldrh	r3, [r0, #62]	; 0x3e
 800451c:	3c08      	subs	r4, #8
 800451e:	8014      	strh	r4, [r2, #0]
 8004520:	001c      	movs	r4, r3
 8004522:	3308      	adds	r3, #8
 8004524:	80d3      	strh	r3, [r2, #6]
 8004526:	2335      	movs	r3, #53	; 0x35
 8004528:	3108      	adds	r1, #8
 800452a:	8091      	strh	r1, [r2, #4]
 800452c:	2140      	movs	r1, #64	; 0x40
 800452e:	3c08      	subs	r4, #8
 8004530:	8054      	strh	r4, [r2, #2]
 8004532:	5cc3      	ldrb	r3, [r0, r3]
 8004534:	075b      	lsls	r3, r3, #29
 8004536:	0f5b      	lsrs	r3, r3, #29
 8004538:	430b      	orrs	r3, r1
 800453a:	2138      	movs	r1, #56	; 0x38
 800453c:	7b10      	ldrb	r0, [r2, #12]
 800453e:	4001      	ands	r1, r0
 8004540:	430b      	orrs	r3, r1
 8004542:	7313      	strb	r3, [r2, #12]
 8004544:	bc10      	pop	{r4}
 8004546:	bc01      	pop	{r0}
 8004548:	4700      	bx	r0
 800454a:	46c0      	nop			; (mov r8, r8)

0800454c <zombie_actionStunned>:
 800454c:	b570      	push	{r4, r5, r6, lr}
 800454e:	2521      	movs	r5, #33	; 0x21
 8004550:	267b      	movs	r6, #123	; 0x7b
 8004552:	5d43      	ldrb	r3, [r0, r5]
 8004554:	4033      	ands	r3, r6
 8004556:	5543      	strb	r3, [r0, r5]
 8004558:	2300      	movs	r3, #0
 800455a:	6443      	str	r3, [r0, #68]	; 0x44
 800455c:	0004      	movs	r4, r0
 800455e:	f7fd f859 	bl	8001614 <commonUpdateAnimation>
 8004562:	2801      	cmp	r0, #1
 8004564:	d105      	bne.n	8004572 <zombie_actionStunned+0x26>
 8004566:	5d63      	ldrb	r3, [r4, r5]
 8004568:	401e      	ands	r6, r3
 800456a:	237c      	movs	r3, #124	; 0x7c
 800456c:	425b      	negs	r3, r3
 800456e:	4333      	orrs	r3, r6
 8004570:	5563      	strb	r3, [r4, r5]
 8004572:	200f      	movs	r0, #15
 8004574:	2336      	movs	r3, #54	; 0x36
 8004576:	2135      	movs	r1, #53	; 0x35
 8004578:	0005      	movs	r5, r0
 800457a:	5ce2      	ldrb	r2, [r4, r3]
 800457c:	3b02      	subs	r3, #2
 800457e:	54e2      	strb	r2, [r4, r3]
 8004580:	3303      	adds	r3, #3
 8004582:	5ce3      	ldrb	r3, [r4, r3]
 8004584:	5c62      	ldrb	r2, [r4, r1]
 8004586:	071b      	lsls	r3, r3, #28
 8004588:	171b      	asrs	r3, r3, #28
 800458a:	401d      	ands	r5, r3
 800458c:	4382      	bics	r2, r0
 800458e:	432a      	orrs	r2, r5
 8004590:	5462      	strb	r2, [r4, r1]
 8004592:	4a03      	ldr	r2, [pc, #12]	; (80045a0 <zombie_actionStunned+0x54>)
 8004594:	009b      	lsls	r3, r3, #2
 8004596:	589b      	ldr	r3, [r3, r2]
 8004598:	61e3      	str	r3, [r4, #28]
 800459a:	bc70      	pop	{r4, r5, r6}
 800459c:	bc01      	pop	{r0}
 800459e:	4700      	bx	r0
 80045a0:	03000d24 	.word	0x03000d24

080045a4 <zombie_actionWalk>:
 80045a4:	b5f0      	push	{r4, r5, r6, r7, lr}
 80045a6:	4657      	mov	r7, sl
 80045a8:	464e      	mov	r6, r9
 80045aa:	4645      	mov	r5, r8
 80045ac:	46de      	mov	lr, fp
 80045ae:	b5e0      	push	{r5, r6, r7, lr}
 80045b0:	2721      	movs	r7, #33	; 0x21
 80045b2:	267b      	movs	r6, #123	; 0x7b
 80045b4:	5dc3      	ldrb	r3, [r0, r7]
 80045b6:	4033      	ands	r3, r6
 80045b8:	6d05      	ldr	r5, [r0, #80]	; 0x50
 80045ba:	b087      	sub	sp, #28
 80045bc:	55c3      	strb	r3, [r0, r7]
 80045be:	0004      	movs	r4, r0
 80045c0:	4692      	mov	sl, r2
 80045c2:	f7fd f827 	bl	8001614 <commonUpdateAnimation>
 80045c6:	2801      	cmp	r0, #1
 80045c8:	d105      	bne.n	80045d6 <zombie_actionWalk+0x32>
 80045ca:	227c      	movs	r2, #124	; 0x7c
 80045cc:	5de3      	ldrb	r3, [r4, r7]
 80045ce:	4252      	negs	r2, r2
 80045d0:	4033      	ands	r3, r6
 80045d2:	4313      	orrs	r3, r2
 80045d4:	55e3      	strb	r3, [r4, r7]
 80045d6:	2336      	movs	r3, #54	; 0x36
 80045d8:	5ce2      	ldrb	r2, [r4, r3]
 80045da:	3b02      	subs	r3, #2
 80045dc:	5ce1      	ldrb	r1, [r4, r3]
 80045de:	4291      	cmp	r1, r2
 80045e0:	d100      	bne.n	80045e4 <zombie_actionWalk+0x40>
 80045e2:	e06c      	b.n	80046be <zombie_actionWalk+0x11a>
 80045e4:	2105      	movs	r1, #5
 80045e6:	8721      	strh	r1, [r4, #56]	; 0x38
 80045e8:	54e2      	strb	r2, [r4, r3]
 80045ea:	2337      	movs	r3, #55	; 0x37
 80045ec:	200f      	movs	r0, #15
 80045ee:	3130      	adds	r1, #48	; 0x30
 80045f0:	5ce2      	ldrb	r2, [r4, r3]
 80045f2:	5c63      	ldrb	r3, [r4, r1]
 80045f4:	4002      	ands	r2, r0
 80045f6:	4383      	bics	r3, r0
 80045f8:	4313      	orrs	r3, r2
 80045fa:	5463      	strb	r3, [r4, r1]
 80045fc:	0020      	movs	r0, r4
 80045fe:	f7fe fa09 	bl	8002a14 <commonGetCurrentAnimationFrame>
 8004602:	2800      	cmp	r0, #0
 8004604:	d000      	beq.n	8004608 <zombie_actionWalk+0x64>
 8004606:	e078      	b.n	80046fa <zombie_actionWalk+0x156>
 8004608:	2335      	movs	r3, #53	; 0x35
 800460a:	5ce1      	ldrb	r1, [r4, r3]
 800460c:	0709      	lsls	r1, r1, #28
 800460e:	170b      	asrs	r3, r1, #28
 8004610:	469b      	mov	fp, r3
 8004612:	2339      	movs	r3, #57	; 0x39
 8004614:	5ce7      	ldrb	r7, [r4, r3]
 8004616:	168b      	asrs	r3, r1, #26
 8004618:	9301      	str	r3, [sp, #4]
 800461a:	445b      	add	r3, fp
 800461c:	4a41      	ldr	r2, [pc, #260]	; (8004724 <zombie_actionWalk+0x180>)
 800461e:	19db      	adds	r3, r3, r7
 8004620:	009b      	lsls	r3, r3, #2
 8004622:	589a      	ldr	r2, [r3, r2]
 8004624:	4940      	ldr	r1, [pc, #256]	; (8004728 <zombie_actionWalk+0x184>)
 8004626:	4690      	mov	r8, r2
 8004628:	585b      	ldr	r3, [r3, r1]
 800462a:	4699      	mov	r9, r3
 800462c:	0416      	lsls	r6, r2, #16
 800462e:	041b      	lsls	r3, r3, #16
 8004630:	8fa2      	ldrh	r2, [r4, #60]	; 0x3c
 8004632:	141b      	asrs	r3, r3, #16
 8004634:	4442      	add	r2, r8
 8004636:	4698      	mov	r8, r3
 8004638:	8fe3      	ldrh	r3, [r4, #62]	; 0x3e
 800463a:	444b      	add	r3, r9
 800463c:	0412      	lsls	r2, r2, #16
 800463e:	041b      	lsls	r3, r3, #16
 8004640:	0c12      	lsrs	r2, r2, #16
 8004642:	0c1b      	lsrs	r3, r3, #16
 8004644:	87a2      	strh	r2, [r4, #60]	; 0x3c
 8004646:	87e3      	strh	r3, [r4, #62]	; 0x3e
 8004648:	1436      	asrs	r6, r6, #16
 800464a:	2146      	movs	r1, #70	; 0x46
 800464c:	4640      	mov	r0, r8
 800464e:	5260      	strh	r0, [r4, r1]
 8004650:	4658      	mov	r0, fp
 8004652:	3902      	subs	r1, #2
 8004654:	5266      	strh	r6, [r4, r1]
 8004656:	3701      	adds	r7, #1
 8004658:	390b      	subs	r1, #11
 800465a:	5467      	strb	r7, [r4, r1]
 800465c:	4f33      	ldr	r7, [pc, #204]	; (800472c <zombie_actionWalk+0x188>)
 800465e:	9901      	ldr	r1, [sp, #4]
 8004660:	5879      	ldr	r1, [r7, r1]
 8004662:	61e1      	str	r1, [r4, #28]
 8004664:	4932      	ldr	r1, [pc, #200]	; (8004730 <zombie_actionWalk+0x18c>)
 8004666:	00c0      	lsls	r0, r0, #3
 8004668:	5a44      	ldrh	r4, [r0, r1]
 800466a:	1809      	adds	r1, r1, r0
 800466c:	8848      	ldrh	r0, [r1, #2]
 800466e:	ae02      	add	r6, sp, #8
 8004670:	1818      	adds	r0, r3, r0
 8004672:	8070      	strh	r0, [r6, #2]
 8004674:	8888      	ldrh	r0, [r1, #4]
 8004676:	1914      	adds	r4, r2, r4
 8004678:	1812      	adds	r2, r2, r0
 800467a:	80b2      	strh	r2, [r6, #4]
 800467c:	88ca      	ldrh	r2, [r1, #6]
 800467e:	189b      	adds	r3, r3, r2
 8004680:	0031      	movs	r1, r6
 8004682:	2200      	movs	r2, #0
 8004684:	80f3      	strh	r3, [r6, #6]
 8004686:	4650      	mov	r0, sl
 8004688:	2301      	movs	r3, #1
 800468a:	8034      	strh	r4, [r6, #0]
 800468c:	f7fe fa18 	bl	8002ac0 <commonFindCharTypeInBoundingBox>
 8004690:	1d2b      	adds	r3, r5, #4
 8004692:	c806      	ldmia	r0!, {r1, r2}
 8004694:	c306      	stmia	r3!, {r1, r2}
 8004696:	1d28      	adds	r0, r5, #4
 8004698:	f7fe fada 	bl	8002c50 <commonIsFoundPosition>
 800469c:	2800      	cmp	r0, #0
 800469e:	d005      	beq.n	80046ac <zombie_actionWalk+0x108>
 80046a0:	220f      	movs	r2, #15
 80046a2:	78eb      	ldrb	r3, [r5, #3]
 80046a4:	4393      	bics	r3, r2
 80046a6:	2201      	movs	r2, #1
 80046a8:	4313      	orrs	r3, r2
 80046aa:	70eb      	strb	r3, [r5, #3]
 80046ac:	b007      	add	sp, #28
 80046ae:	bcf0      	pop	{r4, r5, r6, r7}
 80046b0:	46bb      	mov	fp, r7
 80046b2:	46b2      	mov	sl, r6
 80046b4:	46a9      	mov	r9, r5
 80046b6:	46a0      	mov	r8, r4
 80046b8:	bcf0      	pop	{r4, r5, r6, r7}
 80046ba:	bc01      	pop	{r0}
 80046bc:	4700      	bx	r0
 80046be:	2238      	movs	r2, #56	; 0x38
 80046c0:	2039      	movs	r0, #57	; 0x39
 80046c2:	5ca7      	ldrb	r7, [r4, r2]
 80046c4:	5c26      	ldrb	r6, [r4, r0]
 80046c6:	54e1      	strb	r1, [r4, r3]
 80046c8:	3b25      	subs	r3, #37	; 0x25
 80046ca:	4698      	mov	r8, r3
 80046cc:	3328      	adds	r3, #40	; 0x28
 80046ce:	5ce2      	ldrb	r2, [r4, r3]
 80046d0:	4643      	mov	r3, r8
 80046d2:	2135      	movs	r1, #53	; 0x35
 80046d4:	401a      	ands	r2, r3
 80046d6:	4694      	mov	ip, r2
 80046d8:	4642      	mov	r2, r8
 80046da:	5c63      	ldrb	r3, [r4, r1]
 80046dc:	4393      	bics	r3, r2
 80046de:	4662      	mov	r2, ip
 80046e0:	4313      	orrs	r3, r2
 80046e2:	5463      	strb	r3, [r4, r1]
 80046e4:	42be      	cmp	r6, r7
 80046e6:	d200      	bcs.n	80046ea <zombie_actionWalk+0x146>
 80046e8:	e788      	b.n	80045fc <zombie_actionWalk+0x58>
 80046ea:	2300      	movs	r3, #0
 80046ec:	5423      	strb	r3, [r4, r0]
 80046ee:	0020      	movs	r0, r4
 80046f0:	f7fe f990 	bl	8002a14 <commonGetCurrentAnimationFrame>
 80046f4:	2800      	cmp	r0, #0
 80046f6:	d100      	bne.n	80046fa <zombie_actionWalk+0x156>
 80046f8:	e786      	b.n	8004608 <zombie_actionWalk+0x64>
 80046fa:	0020      	movs	r0, r4
 80046fc:	f7fe f98a 	bl	8002a14 <commonGetCurrentAnimationFrame>
 8004700:	2802      	cmp	r0, #2
 8004702:	d100      	bne.n	8004706 <zombie_actionWalk+0x162>
 8004704:	e780      	b.n	8004608 <zombie_actionWalk+0x64>
 8004706:	2339      	movs	r3, #57	; 0x39
 8004708:	2000      	movs	r0, #0
 800470a:	5ce7      	ldrb	r7, [r4, r3]
 800470c:	3b04      	subs	r3, #4
 800470e:	5ce1      	ldrb	r1, [r4, r3]
 8004710:	0709      	lsls	r1, r1, #28
 8004712:	170b      	asrs	r3, r1, #28
 8004714:	1689      	asrs	r1, r1, #26
 8004716:	469b      	mov	fp, r3
 8004718:	4680      	mov	r8, r0
 800471a:	8fe3      	ldrh	r3, [r4, #62]	; 0x3e
 800471c:	2600      	movs	r6, #0
 800471e:	8fa2      	ldrh	r2, [r4, #60]	; 0x3c
 8004720:	9101      	str	r1, [sp, #4]
 8004722:	e792      	b.n	800464a <zombie_actionWalk+0xa6>
 8004724:	08008d0c 	.word	0x08008d0c
 8004728:	08008c6c 	.word	0x08008c6c
 800472c:	03000d84 	.word	0x03000d84
 8004730:	08008be8 	.word	0x08008be8

08004734 <zombie_actionChaseTarget>:
 8004734:	b5f0      	push	{r4, r5, r6, r7, lr}
 8004736:	464f      	mov	r7, r9
 8004738:	4646      	mov	r6, r8
 800473a:	46d6      	mov	lr, sl
 800473c:	233c      	movs	r3, #60	; 0x3c
 800473e:	b5c0      	push	{r6, r7, lr}
 8004740:	2621      	movs	r6, #33	; 0x21
 8004742:	0017      	movs	r7, r2
 8004744:	227b      	movs	r2, #123	; 0x7b
 8004746:	4698      	mov	r8, r3
 8004748:	5d83      	ldrb	r3, [r0, r6]
 800474a:	4013      	ands	r3, r2
 800474c:	6d05      	ldr	r5, [r0, #80]	; 0x50
 800474e:	b082      	sub	sp, #8
 8004750:	5583      	strb	r3, [r0, r6]
 8004752:	0004      	movs	r4, r0
 8004754:	4691      	mov	r9, r2
 8004756:	4480      	add	r8, r0
 8004758:	f7fc ff5c 	bl	8001614 <commonUpdateAnimation>
 800475c:	2801      	cmp	r0, #1
 800475e:	d107      	bne.n	8004770 <zombie_actionChaseTarget+0x3c>
 8004760:	464a      	mov	r2, r9
 8004762:	5da3      	ldrb	r3, [r4, r6]
 8004764:	401a      	ands	r2, r3
 8004766:	0013      	movs	r3, r2
 8004768:	227c      	movs	r2, #124	; 0x7c
 800476a:	4252      	negs	r2, r2
 800476c:	4313      	orrs	r3, r2
 800476e:	55a3      	strb	r3, [r4, r6]
 8004770:	2336      	movs	r3, #54	; 0x36
 8004772:	5ce2      	ldrb	r2, [r4, r3]
 8004774:	3b02      	subs	r3, #2
 8004776:	5ce1      	ldrb	r1, [r4, r3]
 8004778:	4291      	cmp	r1, r2
 800477a:	d050      	beq.n	800481e <zombie_actionChaseTarget+0xea>
 800477c:	2105      	movs	r1, #5
 800477e:	8721      	strh	r1, [r4, #56]	; 0x38
 8004780:	54e2      	strb	r2, [r4, r3]
 8004782:	2337      	movs	r3, #55	; 0x37
 8004784:	200f      	movs	r0, #15
 8004786:	3130      	adds	r1, #48	; 0x30
 8004788:	5ce2      	ldrb	r2, [r4, r3]
 800478a:	5c63      	ldrb	r3, [r4, r1]
 800478c:	4002      	ands	r2, r0
 800478e:	4383      	bics	r3, r0
 8004790:	4313      	orrs	r3, r2
 8004792:	5463      	strb	r3, [r4, r1]
 8004794:	0020      	movs	r0, r4
 8004796:	f7fe f93d 	bl	8002a14 <commonGetCurrentAnimationFrame>
 800479a:	2800      	cmp	r0, #0
 800479c:	d15c      	bne.n	8004858 <zombie_actionChaseTarget+0x124>
 800479e:	2335      	movs	r3, #53	; 0x35
 80047a0:	2239      	movs	r2, #57	; 0x39
 80047a2:	5ce3      	ldrb	r3, [r4, r3]
 80047a4:	071b      	lsls	r3, r3, #28
 80047a6:	5ca0      	ldrb	r0, [r4, r2]
 80047a8:	171e      	asrs	r6, r3, #28
 80047aa:	169b      	asrs	r3, r3, #26
 80047ac:	199e      	adds	r6, r3, r6
 80047ae:	1836      	adds	r6, r6, r0
 80047b0:	4a30      	ldr	r2, [pc, #192]	; (8004874 <zombie_actionChaseTarget+0x140>)
 80047b2:	00b1      	lsls	r1, r6, #2
 80047b4:	588a      	ldr	r2, [r1, r2]
 80047b6:	4694      	mov	ip, r2
 80047b8:	8fa6      	ldrh	r6, [r4, #60]	; 0x3c
 80047ba:	4466      	add	r6, ip
 80047bc:	87a6      	strh	r6, [r4, #60]	; 0x3c
 80047be:	4e2e      	ldr	r6, [pc, #184]	; (8004878 <zombie_actionChaseTarget+0x144>)
 80047c0:	5989      	ldr	r1, [r1, r6]
 80047c2:	468c      	mov	ip, r1
 80047c4:	8fe6      	ldrh	r6, [r4, #62]	; 0x3e
 80047c6:	4466      	add	r6, ip
 80047c8:	0412      	lsls	r2, r2, #16
 80047ca:	0409      	lsls	r1, r1, #16
 80047cc:	87e6      	strh	r6, [r4, #62]	; 0x3e
 80047ce:	1412      	asrs	r2, r2, #16
 80047d0:	1409      	asrs	r1, r1, #16
 80047d2:	2646      	movs	r6, #70	; 0x46
 80047d4:	53a1      	strh	r1, [r4, r6]
 80047d6:	2144      	movs	r1, #68	; 0x44
 80047d8:	5262      	strh	r2, [r4, r1]
 80047da:	2239      	movs	r2, #57	; 0x39
 80047dc:	3001      	adds	r0, #1
 80047de:	54a0      	strb	r0, [r4, r2]
 80047e0:	4a26      	ldr	r2, [pc, #152]	; (800487c <zombie_actionChaseTarget+0x148>)
 80047e2:	58d3      	ldr	r3, [r2, r3]
 80047e4:	61e3      	str	r3, [r4, #28]
 80047e6:	2301      	movs	r3, #1
 80047e8:	2250      	movs	r2, #80	; 0x50
 80047ea:	4641      	mov	r1, r8
 80047ec:	9300      	str	r3, [sp, #0]
 80047ee:	0038      	movs	r0, r7
 80047f0:	2300      	movs	r3, #0
 80047f2:	f7fe f9d5 	bl	8002ba0 <commonFindCharTypePositionByDistance>
 80047f6:	1d2b      	adds	r3, r5, #4
 80047f8:	c806      	ldmia	r0!, {r1, r2}
 80047fa:	c306      	stmia	r3!, {r1, r2}
 80047fc:	1d28      	adds	r0, r5, #4
 80047fe:	f7fe fa27 	bl	8002c50 <commonIsFoundPosition>
 8004802:	2800      	cmp	r0, #0
 8004804:	d103      	bne.n	800480e <zombie_actionChaseTarget+0xda>
 8004806:	220f      	movs	r2, #15
 8004808:	78eb      	ldrb	r3, [r5, #3]
 800480a:	4393      	bics	r3, r2
 800480c:	70eb      	strb	r3, [r5, #3]
 800480e:	b002      	add	sp, #8
 8004810:	bce0      	pop	{r5, r6, r7}
 8004812:	46ba      	mov	sl, r7
 8004814:	46b1      	mov	r9, r6
 8004816:	46a8      	mov	r8, r5
 8004818:	bcf0      	pop	{r4, r5, r6, r7}
 800481a:	bc01      	pop	{r0}
 800481c:	4700      	bx	r0
 800481e:	2039      	movs	r0, #57	; 0x39
 8004820:	5c22      	ldrb	r2, [r4, r0]
 8004822:	4694      	mov	ip, r2
 8004824:	2238      	movs	r2, #56	; 0x38
 8004826:	5ca6      	ldrb	r6, [r4, r2]
 8004828:	54e1      	strb	r1, [r4, r3]
 800482a:	3b25      	subs	r3, #37	; 0x25
 800482c:	4699      	mov	r9, r3
 800482e:	3328      	adds	r3, #40	; 0x28
 8004830:	5ce2      	ldrb	r2, [r4, r3]
 8004832:	464b      	mov	r3, r9
 8004834:	2135      	movs	r1, #53	; 0x35
 8004836:	401a      	ands	r2, r3
 8004838:	4692      	mov	sl, r2
 800483a:	464a      	mov	r2, r9
 800483c:	5c63      	ldrb	r3, [r4, r1]
 800483e:	4393      	bics	r3, r2
 8004840:	4652      	mov	r2, sl
 8004842:	4313      	orrs	r3, r2
 8004844:	5463      	strb	r3, [r4, r1]
 8004846:	45b4      	cmp	ip, r6
 8004848:	d3a4      	bcc.n	8004794 <zombie_actionChaseTarget+0x60>
 800484a:	2300      	movs	r3, #0
 800484c:	5423      	strb	r3, [r4, r0]
 800484e:	0020      	movs	r0, r4
 8004850:	f7fe f8e0 	bl	8002a14 <commonGetCurrentAnimationFrame>
 8004854:	2800      	cmp	r0, #0
 8004856:	d0a2      	beq.n	800479e <zombie_actionChaseTarget+0x6a>
 8004858:	0020      	movs	r0, r4
 800485a:	f7fe f8db 	bl	8002a14 <commonGetCurrentAnimationFrame>
 800485e:	2802      	cmp	r0, #2
 8004860:	d09d      	beq.n	800479e <zombie_actionChaseTarget+0x6a>
 8004862:	2339      	movs	r3, #57	; 0x39
 8004864:	5ce0      	ldrb	r0, [r4, r3]
 8004866:	3b04      	subs	r3, #4
 8004868:	5ce3      	ldrb	r3, [r4, r3]
 800486a:	071b      	lsls	r3, r3, #28
 800486c:	2100      	movs	r1, #0
 800486e:	2200      	movs	r2, #0
 8004870:	169b      	asrs	r3, r3, #26
 8004872:	e7ae      	b.n	80047d2 <zombie_actionChaseTarget+0x9e>
 8004874:	08008d0c 	.word	0x08008d0c
 8004878:	08008c6c 	.word	0x08008c6c
 800487c:	03000d44 	.word	0x03000d44

08004880 <zombie_actionAttack>:
 8004880:	b5f0      	push	{r4, r5, r6, r7, lr}
 8004882:	464f      	mov	r7, r9
 8004884:	46d6      	mov	lr, sl
 8004886:	4646      	mov	r6, r8
 8004888:	b5c0      	push	{r6, r7, lr}
 800488a:	b08a      	sub	sp, #40	; 0x28
 800488c:	2521      	movs	r5, #33	; 0x21
 800488e:	4692      	mov	sl, r2
 8004890:	001f      	movs	r7, r3
 8004892:	2200      	movs	r2, #0
 8004894:	466b      	mov	r3, sp
 8004896:	217b      	movs	r1, #123	; 0x7b
 8004898:	73da      	strb	r2, [r3, #15]
 800489a:	5d43      	ldrb	r3, [r0, r5]
 800489c:	400b      	ands	r3, r1
 800489e:	6d06      	ldr	r6, [r0, #80]	; 0x50
 80048a0:	5543      	strb	r3, [r0, r5]
 80048a2:	6442      	str	r2, [r0, #68]	; 0x44
 80048a4:	0004      	movs	r4, r0
 80048a6:	4689      	mov	r9, r1
 80048a8:	f7fc feb4 	bl	8001614 <commonUpdateAnimation>
 80048ac:	2801      	cmp	r0, #1
 80048ae:	d107      	bne.n	80048c0 <zombie_actionAttack+0x40>
 80048b0:	464a      	mov	r2, r9
 80048b2:	5d63      	ldrb	r3, [r4, r5]
 80048b4:	401a      	ands	r2, r3
 80048b6:	0013      	movs	r3, r2
 80048b8:	227c      	movs	r2, #124	; 0x7c
 80048ba:	4252      	negs	r2, r2
 80048bc:	4313      	orrs	r3, r2
 80048be:	5563      	strb	r3, [r4, r5]
 80048c0:	2336      	movs	r3, #54	; 0x36
 80048c2:	5ce2      	ldrb	r2, [r4, r3]
 80048c4:	3b02      	subs	r3, #2
 80048c6:	54e2      	strb	r2, [r4, r3]
 80048c8:	220f      	movs	r2, #15
 80048ca:	2535      	movs	r5, #53	; 0x35
 80048cc:	0010      	movs	r0, r2
 80048ce:	3303      	adds	r3, #3
 80048d0:	5ce1      	ldrb	r1, [r4, r3]
 80048d2:	5d63      	ldrb	r3, [r4, r5]
 80048d4:	0709      	lsls	r1, r1, #28
 80048d6:	1709      	asrs	r1, r1, #28
 80048d8:	4008      	ands	r0, r1
 80048da:	4393      	bics	r3, r2
 80048dc:	4303      	orrs	r3, r0
 80048de:	5563      	strb	r3, [r4, r5]
 80048e0:	4b31      	ldr	r3, [pc, #196]	; (80049a8 <zombie_actionAttack+0x128>)
 80048e2:	0089      	lsls	r1, r1, #2
 80048e4:	58cb      	ldr	r3, [r1, r3]
 80048e6:	61e3      	str	r3, [r4, #28]
 80048e8:	230f      	movs	r3, #15
 80048ea:	0020      	movs	r0, r4
 80048ec:	446b      	add	r3, sp
 80048ee:	aa05      	add	r2, sp, #20
 80048f0:	a904      	add	r1, sp, #16
 80048f2:	f7fc fecb 	bl	800168c <commonGetNextFrame>
 80048f6:	2323      	movs	r3, #35	; 0x23
 80048f8:	5ce3      	ldrb	r3, [r4, r3]
 80048fa:	065b      	lsls	r3, r3, #25
 80048fc:	0e5b      	lsrs	r3, r3, #25
 80048fe:	2b03      	cmp	r3, #3
 8004900:	d80b      	bhi.n	800491a <zombie_actionAttack+0x9a>
 8004902:	466b      	mov	r3, sp
 8004904:	7bdb      	ldrb	r3, [r3, #15]
 8004906:	2b00      	cmp	r3, #0
 8004908:	d138      	bne.n	800497c <zombie_actionAttack+0xfc>
 800490a:	b00a      	add	sp, #40	; 0x28
 800490c:	bce0      	pop	{r5, r6, r7}
 800490e:	46ba      	mov	sl, r7
 8004910:	46b1      	mov	r9, r6
 8004912:	46a8      	mov	r8, r5
 8004914:	bcf0      	pop	{r4, r5, r6, r7}
 8004916:	bc01      	pop	{r0}
 8004918:	4700      	bx	r0
 800491a:	5d63      	ldrb	r3, [r4, r5]
 800491c:	4923      	ldr	r1, [pc, #140]	; (80049ac <zombie_actionAttack+0x12c>)
 800491e:	071b      	lsls	r3, r3, #28
 8004920:	165b      	asrs	r3, r3, #25
 8004922:	18cd      	adds	r5, r1, r3
 8004924:	46ac      	mov	ip, r5
 8004926:	2540      	movs	r5, #64	; 0x40
 8004928:	46a8      	mov	r8, r5
 800492a:	4699      	mov	r9, r3
 800492c:	4665      	mov	r5, ip
 800492e:	4643      	mov	r3, r8
 8004930:	5aeb      	ldrh	r3, [r5, r3]
 8004932:	4698      	mov	r8, r3
 8004934:	8fa0      	ldrh	r0, [r4, #60]	; 0x3c
 8004936:	4480      	add	r8, r0
 8004938:	4643      	mov	r3, r8
 800493a:	3140      	adds	r1, #64	; 0x40
 800493c:	4449      	add	r1, r9
 800493e:	884d      	ldrh	r5, [r1, #2]
 8004940:	46a8      	mov	r8, r5
 8004942:	2544      	movs	r5, #68	; 0x44
 8004944:	aa06      	add	r2, sp, #24
 8004946:	8013      	strh	r3, [r2, #0]
 8004948:	8fe3      	ldrh	r3, [r4, #62]	; 0x3e
 800494a:	4443      	add	r3, r8
 800494c:	46a8      	mov	r8, r5
 800494e:	44c4      	add	ip, r8
 8004950:	4665      	mov	r5, ip
 8004952:	882d      	ldrh	r5, [r5, #0]
 8004954:	46ac      	mov	ip, r5
 8004956:	88c9      	ldrh	r1, [r1, #6]
 8004958:	041b      	lsls	r3, r3, #16
 800495a:	0c1b      	lsrs	r3, r3, #16
 800495c:	8053      	strh	r3, [r2, #2]
 800495e:	4460      	add	r0, ip
 8004960:	185b      	adds	r3, r3, r1
 8004962:	8110      	strh	r0, [r2, #8]
 8004964:	8153      	strh	r3, [r2, #10]
 8004966:	2101      	movs	r1, #1
 8004968:	2302      	movs	r3, #2
 800496a:	9200      	str	r2, [sp, #0]
 800496c:	0038      	movs	r0, r7
 800496e:	2201      	movs	r2, #1
 8004970:	f001 f904 	bl	8005b7c <mchar_actione_add>
 8004974:	466b      	mov	r3, sp
 8004976:	7bdb      	ldrb	r3, [r3, #15]
 8004978:	2b00      	cmp	r3, #0
 800497a:	d0c6      	beq.n	800490a <zombie_actionAttack+0x8a>
 800497c:	2301      	movs	r3, #1
 800497e:	0021      	movs	r1, r4
 8004980:	2250      	movs	r2, #80	; 0x50
 8004982:	9300      	str	r3, [sp, #0]
 8004984:	313c      	adds	r1, #60	; 0x3c
 8004986:	2300      	movs	r3, #0
 8004988:	4650      	mov	r0, sl
 800498a:	f7fe f909 	bl	8002ba0 <commonFindCharTypePositionByDistance>
 800498e:	1d33      	adds	r3, r6, #4
 8004990:	c806      	ldmia	r0!, {r1, r2}
 8004992:	c306      	stmia	r3!, {r1, r2}
 8004994:	1d30      	adds	r0, r6, #4
 8004996:	f7fe f95b 	bl	8002c50 <commonIsFoundPosition>
 800499a:	2800      	cmp	r0, #0
 800499c:	d1b5      	bne.n	800490a <zombie_actionAttack+0x8a>
 800499e:	220f      	movs	r2, #15
 80049a0:	78f3      	ldrb	r3, [r6, #3]
 80049a2:	4393      	bics	r3, r2
 80049a4:	70f3      	strb	r3, [r6, #3]
 80049a6:	e7b0      	b.n	800490a <zombie_actionAttack+0x8a>
 80049a8:	03000d64 	.word	0x03000d64
 80049ac:	08008be8 	.word	0x08008be8

080049b0 <zombie_setPosition>:
 80049b0:	b5f0      	push	{r4, r5, r6, r7, lr}
 80049b2:	0005      	movs	r5, r0
 80049b4:	464f      	mov	r7, r9
 80049b6:	4646      	mov	r6, r8
 80049b8:	46d6      	mov	lr, sl
 80049ba:	b5c0      	push	{r6, r7, lr}
 80049bc:	002e      	movs	r6, r5
 80049be:	4699      	mov	r9, r3
 80049c0:	468a      	mov	sl, r1
 80049c2:	233e      	movs	r3, #62	; 0x3e
 80049c4:	5ec1      	ldrsh	r1, [r0, r3]
 80049c6:	8850      	ldrh	r0, [r2, #2]
 80049c8:	1a08      	subs	r0, r1, r0
 80049ca:	381a      	subs	r0, #26
 80049cc:	3620      	adds	r6, #32
 80049ce:	7130      	strb	r0, [r6, #4]
 80049d0:	6a6f      	ldr	r7, [r5, #36]	; 0x24
 80049d2:	46bc      	mov	ip, r7
 80049d4:	4f28      	ldr	r7, [pc, #160]	; (8004a78 <zombie_setPosition+0xc8>)
 80049d6:	46b8      	mov	r8, r7
 80049d8:	233c      	movs	r3, #60	; 0x3c
 80049da:	5ee8      	ldrsh	r0, [r5, r3]
 80049dc:	4667      	mov	r7, ip
 80049de:	4643      	mov	r3, r8
 80049e0:	401f      	ands	r7, r3
 80049e2:	231c      	movs	r3, #28
 80049e4:	8814      	ldrh	r4, [r2, #0]
 80049e6:	1b04      	subs	r4, r0, r4
 80049e8:	3c08      	subs	r4, #8
 80049ea:	05e4      	lsls	r4, r4, #23
 80049ec:	0be4      	lsrs	r4, r4, #15
 80049ee:	433c      	orrs	r4, r7
 80049f0:	425b      	negs	r3, r3
 80049f2:	626c      	str	r4, [r5, #36]	; 0x24
 80049f4:	469c      	mov	ip, r3
 80049f6:	0004      	movs	r4, r0
 80049f8:	464b      	mov	r3, r9
 80049fa:	b082      	sub	sp, #8
 80049fc:	448c      	add	ip, r1
 80049fe:	340a      	adds	r4, #10
 8004a00:	9301      	str	r3, [sp, #4]
 8004a02:	9200      	str	r2, [sp, #0]
 8004a04:	4663      	mov	r3, ip
 8004a06:	000a      	movs	r2, r1
 8004a08:	380a      	subs	r0, #10
 8004a0a:	0021      	movs	r1, r4
 8004a0c:	f7fc fe7a 	bl	8001704 <commonIsInScreen>
 8004a10:	2800      	cmp	r0, #0
 8004a12:	d10c      	bne.n	8004a2e <zombie_setPosition+0x7e>
 8004a14:	2202      	movs	r2, #2
 8004a16:	2000      	movs	r0, #0
 8004a18:	79b3      	ldrb	r3, [r6, #6]
 8004a1a:	4393      	bics	r3, r2
 8004a1c:	71b3      	strb	r3, [r6, #6]
 8004a1e:	b002      	add	sp, #8
 8004a20:	bce0      	pop	{r5, r6, r7}
 8004a22:	46ba      	mov	sl, r7
 8004a24:	46b1      	mov	r9, r6
 8004a26:	46a8      	mov	r8, r5
 8004a28:	bcf0      	pop	{r4, r5, r6, r7}
 8004a2a:	bc02      	pop	{r1}
 8004a2c:	4708      	bx	r1
 8004a2e:	2326      	movs	r3, #38	; 0x26
 8004a30:	2221      	movs	r2, #33	; 0x21
 8004a32:	2101      	movs	r1, #1
 8004a34:	5ceb      	ldrb	r3, [r5, r3]
 8004a36:	5caa      	ldrb	r2, [r5, r2]
 8004a38:	079b      	lsls	r3, r3, #30
 8004a3a:	0fdb      	lsrs	r3, r3, #31
 8004a3c:	0892      	lsrs	r2, r2, #2
 8004a3e:	401a      	ands	r2, r3
 8004a40:	404b      	eors	r3, r1
 8004a42:	18d3      	adds	r3, r2, r3
 8004a44:	2201      	movs	r2, #1
 8004a46:	2104      	movs	r1, #4
 8004a48:	401a      	ands	r2, r3
 8004a4a:	7873      	ldrb	r3, [r6, #1]
 8004a4c:	0092      	lsls	r2, r2, #2
 8004a4e:	438b      	bics	r3, r1
 8004a50:	4313      	orrs	r3, r2
 8004a52:	2202      	movs	r2, #2
 8004a54:	0028      	movs	r0, r5
 8004a56:	7073      	strb	r3, [r6, #1]
 8004a58:	79b3      	ldrb	r3, [r6, #6]
 8004a5a:	4313      	orrs	r3, r2
 8004a5c:	71b3      	strb	r3, [r6, #6]
 8004a5e:	301c      	adds	r0, #28
 8004a60:	4651      	mov	r1, sl
 8004a62:	f7fc fc6f 	bl	8001344 <commonSetToOamBuffer>
 8004a66:	2323      	movs	r3, #35	; 0x23
 8004a68:	69ea      	ldr	r2, [r5, #28]
 8004a6a:	5ceb      	ldrb	r3, [r5, r3]
 8004a6c:	6812      	ldr	r2, [r2, #0]
 8004a6e:	065b      	lsls	r3, r3, #25
 8004a70:	0d9b      	lsrs	r3, r3, #22
 8004a72:	18d3      	adds	r3, r2, r3
 8004a74:	88d8      	ldrh	r0, [r3, #6]
 8004a76:	e7d2      	b.n	8004a1e <zombie_setPosition+0x6e>
 8004a78:	fffe00ff 	.word	0xfffe00ff

08004a7c <zombie_checkMapCollision>:
 8004a7c:	b570      	push	{r4, r5, r6, lr}
 8004a7e:	000d      	movs	r5, r1
 8004a80:	0004      	movs	r4, r0
 8004a82:	f7fc fbcd 	bl	8001220 <commonCharacterMapEdgeCheck>
 8004a86:	2335      	movs	r3, #53	; 0x35
 8004a88:	5ce3      	ldrb	r3, [r4, r3]
 8004a8a:	4906      	ldr	r1, [pc, #24]	; (8004aa4 <zombie_checkMapCollision+0x28>)
 8004a8c:	4a06      	ldr	r2, [pc, #24]	; (8004aa8 <zombie_checkMapCollision+0x2c>)
 8004a8e:	071b      	lsls	r3, r3, #28
 8004a90:	169b      	asrs	r3, r3, #26
 8004a92:	589a      	ldr	r2, [r3, r2]
 8004a94:	0020      	movs	r0, r4
 8004a96:	585b      	ldr	r3, [r3, r1]
 8004a98:	0029      	movs	r1, r5
 8004a9a:	f000 f91e 	bl	8004cda <zombie_getBoundingBoxStanding+0x36>
 8004a9e:	bc70      	pop	{r4, r5, r6}
 8004aa0:	bc01      	pop	{r0}
 8004aa2:	4700      	bx	r0
 8004aa4:	080087a0 	.word	0x080087a0
 8004aa8:	080087c0 	.word	0x080087c0

08004aac <zombie_checkCollision>:
 8004aac:	b5f0      	push	{r4, r5, r6, r7, lr}
 8004aae:	001d      	movs	r5, r3
 8004ab0:	000f      	movs	r7, r1
 8004ab2:	b08b      	sub	sp, #44	; 0x2c
 8004ab4:	68c3      	ldr	r3, [r0, #12]
 8004ab6:	0016      	movs	r6, r2
 8004ab8:	a901      	add	r1, sp, #4
 8004aba:	aa02      	add	r2, sp, #8
 8004abc:	0004      	movs	r4, r0
 8004abe:	f000 f90c 	bl	8004cda <zombie_getBoundingBoxStanding+0x36>
 8004ac2:	0028      	movs	r0, r5
 8004ac4:	68eb      	ldr	r3, [r5, #12]
 8004ac6:	aa06      	add	r2, sp, #24
 8004ac8:	a901      	add	r1, sp, #4
 8004aca:	f000 f906 	bl	8004cda <zombie_getBoundingBoxStanding+0x36>
 8004ace:	0038      	movs	r0, r7
 8004ad0:	aa06      	add	r2, sp, #24
 8004ad2:	a902      	add	r1, sp, #8
 8004ad4:	f7fc fe6c 	bl	80017b0 <common_checkNext>
 8004ad8:	7030      	strb	r0, [r6, #0]
 8004ada:	2800      	cmp	r0, #0
 8004adc:	d011      	beq.n	8004b02 <zombie_checkCollision+0x56>
 8004ade:	466b      	mov	r3, sp
 8004ae0:	2135      	movs	r1, #53	; 0x35
 8004ae2:	7d1b      	ldrb	r3, [r3, #20]
 8004ae4:	5c61      	ldrb	r1, [r4, r1]
 8004ae6:	065b      	lsls	r3, r3, #25
 8004ae8:	0fdb      	lsrs	r3, r3, #31
 8004aea:	0709      	lsls	r1, r1, #28
 8004aec:	1709      	asrs	r1, r1, #28
 8004aee:	00db      	lsls	r3, r3, #3
 8004af0:	4a06      	ldr	r2, [pc, #24]	; (8004b0c <zombie_checkCollision+0x60>)
 8004af2:	185b      	adds	r3, r3, r1
 8004af4:	009b      	lsls	r3, r3, #2
 8004af6:	589b      	ldr	r3, [r3, r2]
 8004af8:	0020      	movs	r0, r4
 8004afa:	aa06      	add	r2, sp, #24
 8004afc:	a902      	add	r1, sp, #8
 8004afe:	f000 f8ec 	bl	8004cda <zombie_getBoundingBoxStanding+0x36>
 8004b02:	b00b      	add	sp, #44	; 0x2c
 8004b04:	bcf0      	pop	{r4, r5, r6, r7}
 8004b06:	bc01      	pop	{r0}
 8004b08:	4700      	bx	r0
 8004b0a:	46c0      	nop			; (mov r8, r8)
 8004b0c:	080087e0 	.word	0x080087e0

08004b10 <zombie_checkActionEventCollision>:
 8004b10:	b5f0      	push	{r4, r5, r6, r7, lr}
 8004b12:	46de      	mov	lr, fp
 8004b14:	4657      	mov	r7, sl
 8004b16:	464e      	mov	r6, r9
 8004b18:	4645      	mov	r5, r8
 8004b1a:	232c      	movs	r3, #44	; 0x2c
 8004b1c:	b5e0      	push	{r5, r6, r7, lr}
 8004b1e:	5cc3      	ldrb	r3, [r0, r3]
 8004b20:	4683      	mov	fp, r0
 8004b22:	468a      	mov	sl, r1
 8004b24:	b089      	sub	sp, #36	; 0x24
 8004b26:	2b01      	cmp	r3, #1
 8004b28:	d030      	beq.n	8004b8c <zombie_checkActionEventCollision+0x7c>
 8004b2a:	6d03      	ldr	r3, [r0, #80]	; 0x50
 8004b2c:	aa04      	add	r2, sp, #16
 8004b2e:	9301      	str	r3, [sp, #4]
 8004b30:	a903      	add	r1, sp, #12
 8004b32:	68c3      	ldr	r3, [r0, #12]
 8004b34:	f000 f8d1 	bl	8004cda <zombie_getBoundingBoxStanding+0x36>
 8004b38:	4653      	mov	r3, sl
 8004b3a:	781a      	ldrb	r2, [r3, #0]
 8004b3c:	2a00      	cmp	r2, #0
 8004b3e:	d025      	beq.n	8004b8c <zombie_checkActionEventCollision+0x7c>
 8004b40:	2300      	movs	r3, #0
 8004b42:	4698      	mov	r8, r3
 8004b44:	4699      	mov	r9, r3
 8004b46:	4653      	mov	r3, sl
 8004b48:	685f      	ldr	r7, [r3, #4]
 8004b4a:	4447      	add	r7, r8
 8004b4c:	7a7b      	ldrb	r3, [r7, #9]
 8004b4e:	095b      	lsrs	r3, r3, #5
 8004b50:	d014      	beq.n	8004b7c <zombie_checkActionEventCollision+0x6c>
 8004b52:	003d      	movs	r5, r7
 8004b54:	2600      	movs	r6, #0
 8004b56:	2400      	movs	r4, #0
 8004b58:	350c      	adds	r5, #12
 8004b5a:	0028      	movs	r0, r5
 8004b5c:	a904      	add	r1, sp, #16
 8004b5e:	f7fd fb8d 	bl	800227c <commonPositionInBounds>
 8004b62:	7a7b      	ldrb	r3, [r7, #9]
 8004b64:	4330      	orrs	r0, r6
 8004b66:	0600      	lsls	r0, r0, #24
 8004b68:	3401      	adds	r4, #1
 8004b6a:	0e06      	lsrs	r6, r0, #24
 8004b6c:	3508      	adds	r5, #8
 8004b6e:	095b      	lsrs	r3, r3, #5
 8004b70:	42a3      	cmp	r3, r4
 8004b72:	dcf2      	bgt.n	8004b5a <zombie_checkActionEventCollision+0x4a>
 8004b74:	2e00      	cmp	r6, #0
 8004b76:	d112      	bne.n	8004b9e <zombie_checkActionEventCollision+0x8e>
 8004b78:	4653      	mov	r3, sl
 8004b7a:	781a      	ldrb	r2, [r3, #0]
 8004b7c:	2301      	movs	r3, #1
 8004b7e:	469c      	mov	ip, r3
 8004b80:	3333      	adds	r3, #51	; 0x33
 8004b82:	44e1      	add	r9, ip
 8004b84:	469c      	mov	ip, r3
 8004b86:	44e0      	add	r8, ip
 8004b88:	454a      	cmp	r2, r9
 8004b8a:	dcdc      	bgt.n	8004b46 <zombie_checkActionEventCollision+0x36>
 8004b8c:	b009      	add	sp, #36	; 0x24
 8004b8e:	bcf0      	pop	{r4, r5, r6, r7}
 8004b90:	46bb      	mov	fp, r7
 8004b92:	46b2      	mov	sl, r6
 8004b94:	46a9      	mov	r9, r5
 8004b96:	46a0      	mov	r8, r4
 8004b98:	bcf0      	pop	{r4, r5, r6, r7}
 8004b9a:	bc01      	pop	{r0}
 8004b9c:	4700      	bx	r0
 8004b9e:	465b      	mov	r3, fp
 8004ba0:	465a      	mov	r2, fp
 8004ba2:	8d5b      	ldrh	r3, [r3, #42]	; 0x2a
 8004ba4:	3b01      	subs	r3, #1
 8004ba6:	8553      	strh	r3, [r2, #42]	; 0x2a
 8004ba8:	220f      	movs	r2, #15
 8004baa:	9901      	ldr	r1, [sp, #4]
 8004bac:	78cb      	ldrb	r3, [r1, #3]
 8004bae:	4393      	bics	r3, r2
 8004bb0:	2202      	movs	r2, #2
 8004bb2:	4313      	orrs	r3, r2
 8004bb4:	70cb      	strb	r3, [r1, #3]
 8004bb6:	465b      	mov	r3, fp
 8004bb8:	222a      	movs	r2, #42	; 0x2a
 8004bba:	5e9b      	ldrsh	r3, [r3, r2]
 8004bbc:	2b00      	cmp	r3, #0
 8004bbe:	dce5      	bgt.n	8004b8c <zombie_checkActionEventCollision+0x7c>
 8004bc0:	4658      	mov	r0, fp
 8004bc2:	f7fc fadf 	bl	8001184 <commonRemoveCharacter>
 8004bc6:	e7e1      	b.n	8004b8c <zombie_checkActionEventCollision+0x7c>

08004bc8 <zombie_init>:
 8004bc8:	23e0      	movs	r3, #224	; 0xe0
 8004bca:	b5f0      	push	{r4, r5, r6, r7, lr}
 8004bcc:	000e      	movs	r6, r1
 8004bce:	2101      	movs	r1, #1
 8004bd0:	0004      	movs	r4, r0
 8004bd2:	2500      	movs	r5, #0
 8004bd4:	00db      	lsls	r3, r3, #3
 8004bd6:	b083      	sub	sp, #12
 8004bd8:	8603      	strh	r3, [r0, #48]	; 0x30
 8004bda:	2200      	movs	r2, #0
 8004bdc:	2300      	movs	r3, #0
 8004bde:	4249      	negs	r1, r1
 8004be0:	f7fc fb08 	bl	80011f4 <commonCharacterInit>
 8004be4:	2200      	movs	r2, #0
 8004be6:	2100      	movs	r1, #0
 8004be8:	0020      	movs	r0, r4
 8004bea:	2300      	movs	r3, #0
 8004bec:	9500      	str	r5, [sp, #0]
 8004bee:	f7fc faeb 	bl	80011c8 <commonCharacterSetPosition>
 8004bf2:	4b21      	ldr	r3, [pc, #132]	; (8004c78 <zombie_init+0xb0>)
 8004bf4:	6023      	str	r3, [r4, #0]
 8004bf6:	4b21      	ldr	r3, [pc, #132]	; (8004c7c <zombie_init+0xb4>)
 8004bf8:	6063      	str	r3, [r4, #4]
 8004bfa:	4b21      	ldr	r3, [pc, #132]	; (8004c80 <zombie_init+0xb8>)
 8004bfc:	60a3      	str	r3, [r4, #8]
 8004bfe:	4b21      	ldr	r3, [pc, #132]	; (8004c84 <zombie_init+0xbc>)
 8004c00:	60e3      	str	r3, [r4, #12]
 8004c02:	4b21      	ldr	r3, [pc, #132]	; (8004c88 <zombie_init+0xc0>)
 8004c04:	6123      	str	r3, [r4, #16]
 8004c06:	4b21      	ldr	r3, [pc, #132]	; (8004c8c <zombie_init+0xc4>)
 8004c08:	6163      	str	r3, [r4, #20]
 8004c0a:	4b21      	ldr	r3, [pc, #132]	; (8004c90 <zombie_init+0xc8>)
 8004c0c:	61a3      	str	r3, [r4, #24]
 8004c0e:	f001 fe41 	bl	8006894 <sprite_vram_findId>
 8004c12:	2380      	movs	r3, #128	; 0x80
 8004c14:	8c22      	ldrh	r2, [r4, #32]
 8004c16:	0580      	lsls	r0, r0, #22
 8004c18:	0d80      	lsrs	r0, r0, #22
 8004c1a:	00db      	lsls	r3, r3, #3
 8004c1c:	0ad2      	lsrs	r2, r2, #11
 8004c1e:	02d2      	lsls	r2, r2, #11
 8004c20:	4303      	orrs	r3, r0
 8004c22:	4313      	orrs	r3, r2
 8004c24:	8423      	strh	r3, [r4, #32]
 8004c26:	2101      	movs	r1, #1
 8004c28:	2007      	movs	r0, #7
 8004c2a:	f001 fe9f 	bl	800696c <sprite_palette_findId>
 8004c2e:	210f      	movs	r1, #15
 8004c30:	0027      	movs	r7, r4
 8004c32:	4001      	ands	r1, r0
 8004c34:	2078      	movs	r0, #120	; 0x78
 8004c36:	3720      	adds	r7, #32
 8004c38:	787b      	ldrb	r3, [r7, #1]
 8004c3a:	00ca      	lsls	r2, r1, #3
 8004c3c:	4383      	bics	r3, r0
 8004c3e:	4313      	orrs	r3, r2
 8004c40:	707b      	strb	r3, [r7, #1]
 8004c42:	4814      	ldr	r0, [pc, #80]	; (8004c94 <zombie_init+0xcc>)
 8004c44:	f001 feec 	bl	8006a20 <sprite_palette_copy32_ID>
 8004c48:	2380      	movs	r3, #128	; 0x80
 8004c4a:	787a      	ldrb	r2, [r7, #1]
 8004c4c:	425b      	negs	r3, r3
 8004c4e:	4313      	orrs	r3, r2
 8004c50:	707b      	strb	r3, [r7, #1]
 8004c52:	0030      	movs	r0, r6
 8004c54:	f000 ff3e 	bl	8005ad4 <mchar_getControlType>
 8004c58:	4b0f      	ldr	r3, [pc, #60]	; (8004c98 <zombie_init+0xd0>)
 8004c5a:	6802      	ldr	r2, [r0, #0]
 8004c5c:	401a      	ands	r2, r3
 8004c5e:	4b0f      	ldr	r3, [pc, #60]	; (8004c9c <zombie_init+0xd4>)
 8004c60:	4313      	orrs	r3, r2
 8004c62:	6003      	str	r3, [r0, #0]
 8004c64:	4b0e      	ldr	r3, [pc, #56]	; (8004ca0 <zombie_init+0xd8>)
 8004c66:	62a3      	str	r3, [r4, #40]	; 0x28
 8004c68:	232c      	movs	r3, #44	; 0x2c
 8004c6a:	6520      	str	r0, [r4, #80]	; 0x50
 8004c6c:	54e5      	strb	r5, [r4, r3]
 8004c6e:	b003      	add	sp, #12
 8004c70:	bcf0      	pop	{r4, r5, r6, r7}
 8004c72:	bc01      	pop	{r0}
 8004c74:	4700      	bx	r0
 8004c76:	46c0      	nop			; (mov r8, r8)
 8004c78:	08004fe1 	.word	0x08004fe1
 8004c7c:	080044f1 	.word	0x080044f1
 8004c80:	080049b1 	.word	0x080049b1
 8004c84:	08004511 	.word	0x08004511
 8004c88:	08004aad 	.word	0x08004aad
 8004c8c:	08004a7d 	.word	0x08004a7d
 8004c90:	08004b11 	.word	0x08004b11
 8004c94:	080320d0 	.word	0x080320d0
 8004c98:	0f00fff8 	.word	0x0f00fff8
 8004c9c:	00800001 	.word	0x00800001
 8004ca0:	0003000a 	.word	0x0003000a

08004ca4 <zombie_getBoundingBoxStanding>:
 8004ca4:	2301      	movs	r3, #1
 8004ca6:	b510      	push	{r4, lr}
 8004ca8:	600b      	str	r3, [r1, #0]
 8004caa:	8f81      	ldrh	r1, [r0, #60]	; 0x3c
 8004cac:	000c      	movs	r4, r1
 8004cae:	8fc3      	ldrh	r3, [r0, #62]	; 0x3e
 8004cb0:	3c08      	subs	r4, #8
 8004cb2:	8014      	strh	r4, [r2, #0]
 8004cb4:	001c      	movs	r4, r3
 8004cb6:	3308      	adds	r3, #8
 8004cb8:	80d3      	strh	r3, [r2, #6]
 8004cba:	2335      	movs	r3, #53	; 0x35
 8004cbc:	3108      	adds	r1, #8
 8004cbe:	8091      	strh	r1, [r2, #4]
 8004cc0:	2138      	movs	r1, #56	; 0x38
 8004cc2:	3c08      	subs	r4, #8
 8004cc4:	8054      	strh	r4, [r2, #2]
 8004cc6:	5cc3      	ldrb	r3, [r0, r3]
 8004cc8:	7b10      	ldrb	r0, [r2, #12]
 8004cca:	075b      	lsls	r3, r3, #29
 8004ccc:	4001      	ands	r1, r0
 8004cce:	0f5b      	lsrs	r3, r3, #29
 8004cd0:	430b      	orrs	r3, r1
 8004cd2:	7313      	strb	r3, [r2, #12]
 8004cd4:	bc10      	pop	{r4}
 8004cd6:	bc01      	pop	{r0}
 8004cd8:	4700      	bx	r0
 8004cda:	4718      	bx	r3
 8004cdc:	4720      	bx	r4
 8004cde:	46c0      	nop			; (mov r8, r8)

08004ce0 <zombie_setCharacter>:
 8004ce0:	4b01      	ldr	r3, [pc, #4]	; (8004ce8 <zombie_setCharacter+0x8>)
 8004ce2:	6003      	str	r3, [r0, #0]
 8004ce4:	4770      	bx	lr
 8004ce6:	46c0      	nop			; (mov r8, r8)
 8004ce8:	08004fe1 	.word	0x08004fe1

08004cec <changeDirection>:
 8004cec:	1c4b      	adds	r3, r1, #1
 8004cee:	d011      	beq.n	8004d14 <changeDirection+0x28>
 8004cf0:	78c3      	ldrb	r3, [r0, #3]
 8004cf2:	06da      	lsls	r2, r3, #27
 8004cf4:	d502      	bpl.n	8004cfc <changeDirection+0x10>
 8004cf6:	2304      	movs	r3, #4
 8004cf8:	700b      	strb	r3, [r1, #0]
 8004cfa:	78c3      	ldrb	r3, [r0, #3]
 8004cfc:	069a      	lsls	r2, r3, #26
 8004cfe:	d502      	bpl.n	8004d06 <changeDirection+0x1a>
 8004d00:	2300      	movs	r3, #0
 8004d02:	700b      	strb	r3, [r1, #0]
 8004d04:	78c3      	ldrb	r3, [r0, #3]
 8004d06:	065a      	lsls	r2, r3, #25
 8004d08:	d502      	bpl.n	8004d10 <changeDirection+0x24>
 8004d0a:	2302      	movs	r3, #2
 8004d0c:	700b      	strb	r3, [r1, #0]
 8004d0e:	78c3      	ldrb	r3, [r0, #3]
 8004d10:	061b      	lsls	r3, r3, #24
 8004d12:	d400      	bmi.n	8004d16 <changeDirection+0x2a>
 8004d14:	4770      	bx	lr
 8004d16:	2306      	movs	r3, #6
 8004d18:	700b      	strb	r3, [r1, #0]
 8004d1a:	e7fb      	b.n	8004d14 <changeDirection+0x28>

08004d1c <resetBlockedDirection>:
 8004d1c:	230f      	movs	r3, #15
 8004d1e:	78c2      	ldrb	r2, [r0, #3]
 8004d20:	4013      	ands	r3, r2
 8004d22:	70c3      	strb	r3, [r0, #3]
 8004d24:	4770      	bx	lr
 8004d26:	46c0      	nop			; (mov r8, r8)

08004d28 <findAttackDirection>:
 8004d28:	b570      	push	{r4, r5, r6, lr}
 8004d2a:	2400      	movs	r4, #0
 8004d2c:	5f03      	ldrsh	r3, [r0, r4]
 8004d2e:	2500      	movs	r5, #0
 8004d30:	5f4c      	ldrsh	r4, [r1, r5]
 8004d32:	1b1b      	subs	r3, r3, r4
 8004d34:	2402      	movs	r4, #2
 8004d36:	5f04      	ldrsh	r4, [r0, r4]
 8004d38:	2002      	movs	r0, #2
 8004d3a:	5e09      	ldrsh	r1, [r1, r0]
 8004d3c:	2506      	movs	r5, #6
 8004d3e:	1a61      	subs	r1, r4, r1
 8004d40:	2b00      	cmp	r3, #0
 8004d42:	dc00      	bgt.n	8004d46 <findAttackDirection+0x1e>
 8004d44:	3d04      	subs	r5, #4
 8004d46:	17d8      	asrs	r0, r3, #31
 8004d48:	1e5e      	subs	r6, r3, #1
 8004d4a:	1ac0      	subs	r0, r0, r3
 8004d4c:	431e      	orrs	r6, r3
 8004d4e:	0fc0      	lsrs	r0, r0, #31
 8004d50:	0ff6      	lsrs	r6, r6, #31
 8004d52:	1b80      	subs	r0, r0, r6
 8004d54:	17cc      	asrs	r4, r1, #31
 8004d56:	4343      	muls	r3, r0
 8004d58:	1e48      	subs	r0, r1, #1
 8004d5a:	1a64      	subs	r4, r4, r1
 8004d5c:	4308      	orrs	r0, r1
 8004d5e:	0fe4      	lsrs	r4, r4, #31
 8004d60:	0fc0      	lsrs	r0, r0, #31
 8004d62:	1a20      	subs	r0, r4, r0
 8004d64:	4341      	muls	r1, r0
 8004d66:	2000      	movs	r0, #0
 8004d68:	428b      	cmp	r3, r1
 8004d6a:	dc00      	bgt.n	8004d6e <findAttackDirection+0x46>
 8004d6c:	00a0      	lsls	r0, r4, #2
 8004d6e:	2400      	movs	r4, #0
 8004d70:	428b      	cmp	r3, r1
 8004d72:	dd00      	ble.n	8004d76 <findAttackDirection+0x4e>
 8004d74:	1c2c      	adds	r4, r5, #0
 8004d76:	1900      	adds	r0, r0, r4
 8004d78:	7010      	strb	r0, [r2, #0]
 8004d7a:	bc70      	pop	{r4, r5, r6}
 8004d7c:	bc01      	pop	{r0}
 8004d7e:	4700      	bx	r0

08004d80 <zombie_huntController>:
 8004d80:	230f      	movs	r3, #15
 8004d82:	0019      	movs	r1, r3
 8004d84:	b570      	push	{r4, r5, r6, lr}
 8004d86:	6d04      	ldr	r4, [r0, #80]	; 0x50
 8004d88:	78e2      	ldrb	r2, [r4, #3]
 8004d8a:	0005      	movs	r5, r0
 8004d8c:	b082      	sub	sp, #8
 8004d8e:	4011      	ands	r1, r2
 8004d90:	4213      	tst	r3, r2
 8004d92:	d100      	bne.n	8004d96 <zombie_huntController+0x16>
 8004d94:	e08a      	b.n	8004eac <zombie_huntController+0x12c>
 8004d96:	2902      	cmp	r1, #2
 8004d98:	d100      	bne.n	8004d9c <zombie_huntController+0x1c>
 8004d9a:	e0ba      	b.n	8004f12 <zombie_huntController+0x192>
 8004d9c:	f7fd fe7a 	bl	8002a94 <commonDoIntializeActions>
 8004da0:	2800      	cmp	r0, #0
 8004da2:	d136      	bne.n	8004e12 <zombie_huntController+0x92>
 8004da4:	78a2      	ldrb	r2, [r4, #2]
 8004da6:	0912      	lsrs	r2, r2, #4
 8004da8:	0092      	lsls	r2, r2, #2
 8004daa:	18a2      	adds	r2, r4, r2
 8004dac:	7bd3      	ldrb	r3, [r2, #15]
 8004dae:	2b02      	cmp	r3, #2
 8004db0:	d03c      	beq.n	8004e2c <zombie_huntController+0xac>
 8004db2:	2304      	movs	r3, #4
 8004db4:	5ee1      	ldrsh	r1, [r4, r3]
 8004db6:	203c      	movs	r0, #60	; 0x3c
 8004db8:	5e2b      	ldrsh	r3, [r5, r0]
 8004dba:	1ac9      	subs	r1, r1, r3
 8004dbc:	2006      	movs	r0, #6
 8004dbe:	5e23      	ldrsh	r3, [r4, r0]
 8004dc0:	263e      	movs	r6, #62	; 0x3e
 8004dc2:	5fa8      	ldrsh	r0, [r5, r6]
 8004dc4:	1a1b      	subs	r3, r3, r0
 8004dc6:	209f      	movs	r0, #159	; 0x9f
 8004dc8:	3150      	adds	r1, #80	; 0x50
 8004dca:	3350      	adds	r3, #80	; 0x50
 8004dcc:	4288      	cmp	r0, r1
 8004dce:	d32d      	bcc.n	8004e2c <zombie_huntController+0xac>
 8004dd0:	4298      	cmp	r0, r3
 8004dd2:	d32b      	bcc.n	8004e2c <zombie_huntController+0xac>
 8004dd4:	115b      	asrs	r3, r3, #5
 8004dd6:	009e      	lsls	r6, r3, #2
 8004dd8:	4853      	ldr	r0, [pc, #332]	; (8004f28 <zombie_huntController+0x1a8>)
 8004dda:	18f3      	adds	r3, r6, r3
 8004ddc:	1149      	asrs	r1, r1, #5
 8004dde:	18c0      	adds	r0, r0, r3
 8004de0:	5643      	ldrsb	r3, [r0, r1]
 8004de2:	4669      	mov	r1, sp
 8004de4:	1dce      	adds	r6, r1, #7
 8004de6:	7033      	strb	r3, [r6, #0]
 8004de8:	3301      	adds	r3, #1
 8004dea:	d06a      	beq.n	8004ec2 <zombie_huntController+0x142>
 8004dec:	78e3      	ldrb	r3, [r4, #3]
 8004dee:	06d9      	lsls	r1, r3, #27
 8004df0:	d501      	bpl.n	8004df6 <zombie_huntController+0x76>
 8004df2:	2104      	movs	r1, #4
 8004df4:	7031      	strb	r1, [r6, #0]
 8004df6:	0699      	lsls	r1, r3, #26
 8004df8:	d501      	bpl.n	8004dfe <zombie_huntController+0x7e>
 8004dfa:	2100      	movs	r1, #0
 8004dfc:	7031      	strb	r1, [r6, #0]
 8004dfe:	0659      	lsls	r1, r3, #25
 8004e00:	d501      	bpl.n	8004e06 <zombie_huntController+0x86>
 8004e02:	2102      	movs	r1, #2
 8004e04:	7031      	strb	r1, [r6, #0]
 8004e06:	2106      	movs	r1, #6
 8004e08:	061b      	lsls	r3, r3, #24
 8004e0a:	d400      	bmi.n	8004e0e <zombie_huntController+0x8e>
 8004e0c:	7831      	ldrb	r1, [r6, #0]
 8004e0e:	7391      	strb	r1, [r2, #14]
 8004e10:	e06c      	b.n	8004eec <zombie_huntController+0x16c>
 8004e12:	2304      	movs	r3, #4
 8004e14:	2200      	movs	r2, #0
 8004e16:	70a3      	strb	r3, [r4, #2]
 8004e18:	4b44      	ldr	r3, [pc, #272]	; (8004f2c <zombie_huntController+0x1ac>)
 8004e1a:	0092      	lsls	r2, r2, #2
 8004e1c:	60e3      	str	r3, [r4, #12]
 8004e1e:	6123      	str	r3, [r4, #16]
 8004e20:	6163      	str	r3, [r4, #20]
 8004e22:	61a3      	str	r3, [r4, #24]
 8004e24:	18a2      	adds	r2, r4, r2
 8004e26:	7bd3      	ldrb	r3, [r2, #15]
 8004e28:	2b02      	cmp	r3, #2
 8004e2a:	d1c2      	bne.n	8004db2 <zombie_huntController+0x32>
 8004e2c:	0028      	movs	r0, r5
 8004e2e:	f7fd fdfb 	bl	8002a28 <commonDoNextAction>
 8004e32:	2800      	cmp	r0, #0
 8004e34:	d10f      	bne.n	8004e56 <zombie_huntController+0xd6>
 8004e36:	78a3      	ldrb	r3, [r4, #2]
 8004e38:	091b      	lsrs	r3, r3, #4
 8004e3a:	3302      	adds	r3, #2
 8004e3c:	009a      	lsls	r2, r3, #2
 8004e3e:	18a2      	adds	r2, r4, r2
 8004e40:	7952      	ldrb	r2, [r2, #5]
 8004e42:	3201      	adds	r2, #1
 8004e44:	0612      	lsls	r2, r2, #24
 8004e46:	0e12      	lsrs	r2, r2, #24
 8004e48:	009b      	lsls	r3, r3, #2
 8004e4a:	18e4      	adds	r4, r4, r3
 8004e4c:	7162      	strb	r2, [r4, #5]
 8004e4e:	b002      	add	sp, #8
 8004e50:	bc70      	pop	{r4, r5, r6}
 8004e52:	bc01      	pop	{r0}
 8004e54:	4700      	bx	r0
 8004e56:	78a2      	ldrb	r2, [r4, #2]
 8004e58:	0913      	lsrs	r3, r2, #4
 8004e5a:	0712      	lsls	r2, r2, #28
 8004e5c:	0f12      	lsrs	r2, r2, #28
 8004e5e:	3a01      	subs	r2, #1
 8004e60:	4293      	cmp	r3, r2
 8004e62:	daea      	bge.n	8004e3a <zombie_huntController+0xba>
 8004e64:	220f      	movs	r2, #15
 8004e66:	3301      	adds	r3, #1
 8004e68:	4931      	ldr	r1, [pc, #196]	; (8004f30 <zombie_huntController+0x1b0>)
 8004e6a:	4013      	ands	r3, r2
 8004e6c:	8862      	ldrh	r2, [r4, #2]
 8004e6e:	011b      	lsls	r3, r3, #4
 8004e70:	400a      	ands	r2, r1
 8004e72:	4313      	orrs	r3, r2
 8004e74:	8063      	strh	r3, [r4, #2]
 8004e76:	4b2f      	ldr	r3, [pc, #188]	; (8004f34 <zombie_huntController+0x1b4>)
 8004e78:	60eb      	str	r3, [r5, #12]
 8004e7a:	78a3      	ldrb	r3, [r4, #2]
 8004e7c:	091b      	lsrs	r3, r3, #4
 8004e7e:	3302      	adds	r3, #2
 8004e80:	009b      	lsls	r3, r3, #2
 8004e82:	18e3      	adds	r3, r4, r3
 8004e84:	79da      	ldrb	r2, [r3, #7]
 8004e86:	2336      	movs	r3, #54	; 0x36
 8004e88:	54ea      	strb	r2, [r5, r3]
 8004e8a:	78a3      	ldrb	r3, [r4, #2]
 8004e8c:	091b      	lsrs	r3, r3, #4
 8004e8e:	3302      	adds	r3, #2
 8004e90:	009b      	lsls	r3, r3, #2
 8004e92:	18e3      	adds	r3, r4, r3
 8004e94:	799a      	ldrb	r2, [r3, #6]
 8004e96:	2337      	movs	r3, #55	; 0x37
 8004e98:	2100      	movs	r1, #0
 8004e9a:	54ea      	strb	r2, [r5, r3]
 8004e9c:	78a3      	ldrb	r3, [r4, #2]
 8004e9e:	091b      	lsrs	r3, r3, #4
 8004ea0:	3302      	adds	r3, #2
 8004ea2:	009a      	lsls	r2, r3, #2
 8004ea4:	18a2      	adds	r2, r4, r2
 8004ea6:	7151      	strb	r1, [r2, #5]
 8004ea8:	2201      	movs	r2, #1
 8004eaa:	e7cd      	b.n	8004e48 <zombie_huntController+0xc8>
 8004eac:	78a2      	ldrb	r2, [r4, #2]
 8004eae:	4013      	ands	r3, r2
 8004eb0:	2280      	movs	r2, #128	; 0x80
 8004eb2:	4252      	negs	r2, r2
 8004eb4:	4313      	orrs	r3, r2
 8004eb6:	70a3      	strb	r3, [r4, #2]
 8004eb8:	4b1f      	ldr	r3, [pc, #124]	; (8004f38 <zombie_huntController+0x1b8>)
 8004eba:	6003      	str	r3, [r0, #0]
 8004ebc:	f000 f890 	bl	8004fe0 <zombie_walkAroundController>
 8004ec0:	e7c5      	b.n	8004e4e <zombie_huntController+0xce>
 8004ec2:	0028      	movs	r0, r5
 8004ec4:	0032      	movs	r2, r6
 8004ec6:	1d21      	adds	r1, r4, #4
 8004ec8:	303c      	adds	r0, #60	; 0x3c
 8004eca:	f7ff ff2d 	bl	8004d28 <findAttackDirection>
 8004ece:	2102      	movs	r1, #2
 8004ed0:	2336      	movs	r3, #54	; 0x36
 8004ed2:	7830      	ldrb	r0, [r6, #0]
 8004ed4:	2600      	movs	r6, #0
 8004ed6:	54e9      	strb	r1, [r5, r3]
 8004ed8:	78a3      	ldrb	r3, [r4, #2]
 8004eda:	091b      	lsrs	r3, r3, #4
 8004edc:	1c9a      	adds	r2, r3, #2
 8004ede:	0092      	lsls	r2, r2, #2
 8004ee0:	009b      	lsls	r3, r3, #2
 8004ee2:	18e3      	adds	r3, r4, r3
 8004ee4:	18a2      	adds	r2, r4, r2
 8004ee6:	8096      	strh	r6, [r2, #4]
 8004ee8:	7398      	strb	r0, [r3, #14]
 8004eea:	73d9      	strb	r1, [r3, #15]
 8004eec:	4b11      	ldr	r3, [pc, #68]	; (8004f34 <zombie_huntController+0x1b4>)
 8004eee:	60eb      	str	r3, [r5, #12]
 8004ef0:	78a3      	ldrb	r3, [r4, #2]
 8004ef2:	091b      	lsrs	r3, r3, #4
 8004ef4:	3302      	adds	r3, #2
 8004ef6:	009b      	lsls	r3, r3, #2
 8004ef8:	18e3      	adds	r3, r4, r3
 8004efa:	79da      	ldrb	r2, [r3, #7]
 8004efc:	2336      	movs	r3, #54	; 0x36
 8004efe:	54ea      	strb	r2, [r5, r3]
 8004f00:	78a3      	ldrb	r3, [r4, #2]
 8004f02:	091b      	lsrs	r3, r3, #4
 8004f04:	3302      	adds	r3, #2
 8004f06:	009b      	lsls	r3, r3, #2
 8004f08:	18e3      	adds	r3, r4, r3
 8004f0a:	799a      	ldrb	r2, [r3, #6]
 8004f0c:	2337      	movs	r3, #55	; 0x37
 8004f0e:	54ea      	strb	r2, [r5, r3]
 8004f10:	e78c      	b.n	8004e2c <zombie_huntController+0xac>
 8004f12:	78a2      	ldrb	r2, [r4, #2]
 8004f14:	4013      	ands	r3, r2
 8004f16:	2280      	movs	r2, #128	; 0x80
 8004f18:	4252      	negs	r2, r2
 8004f1a:	4313      	orrs	r3, r2
 8004f1c:	70a3      	strb	r3, [r4, #2]
 8004f1e:	4b07      	ldr	r3, [pc, #28]	; (8004f3c <zombie_huntController+0x1bc>)
 8004f20:	6003      	str	r3, [r0, #0]
 8004f22:	f000 f80d 	bl	8004f40 <zombie_isStunnedController>
 8004f26:	e792      	b.n	8004e4e <zombie_huntController+0xce>
 8004f28:	08008db4 	.word	0x08008db4
 8004f2c:	01040019 	.word	0x01040019
 8004f30:	00000f0f 	.word	0x00000f0f
 8004f34:	08004511 	.word	0x08004511
 8004f38:	08004fe1 	.word	0x08004fe1
 8004f3c:	08004f41 	.word	0x08004f41

08004f40 <zombie_isStunnedController>:
 8004f40:	b570      	push	{r4, r5, r6, lr}
 8004f42:	0004      	movs	r4, r0
 8004f44:	6d05      	ldr	r5, [r0, #80]	; 0x50
 8004f46:	f7fd fda5 	bl	8002a94 <commonDoIntializeActions>
 8004f4a:	2800      	cmp	r0, #0
 8004f4c:	d01d      	beq.n	8004f8a <zombie_isStunnedController+0x4a>
 8004f4e:	2301      	movs	r3, #1
 8004f50:	222c      	movs	r2, #44	; 0x2c
 8004f52:	201e      	movs	r0, #30
 8004f54:	70ab      	strb	r3, [r5, #2]
 8004f56:	54a3      	strb	r3, [r4, r2]
 8004f58:	78ab      	ldrb	r3, [r5, #2]
 8004f5a:	3209      	adds	r2, #9
 8004f5c:	5ca2      	ldrb	r2, [r4, r2]
 8004f5e:	091b      	lsrs	r3, r3, #4
 8004f60:	1c99      	adds	r1, r3, #2
 8004f62:	0712      	lsls	r2, r2, #28
 8004f64:	0089      	lsls	r1, r1, #2
 8004f66:	009b      	lsls	r3, r3, #2
 8004f68:	18eb      	adds	r3, r5, r3
 8004f6a:	1712      	asrs	r2, r2, #28
 8004f6c:	1869      	adds	r1, r5, r1
 8004f6e:	8088      	strh	r0, [r1, #4]
 8004f70:	739a      	strb	r2, [r3, #14]
 8004f72:	2203      	movs	r2, #3
 8004f74:	73da      	strb	r2, [r3, #15]
 8004f76:	2336      	movs	r3, #54	; 0x36
 8004f78:	54e2      	strb	r2, [r4, r3]
 8004f7a:	78ab      	ldrb	r3, [r5, #2]
 8004f7c:	091b      	lsrs	r3, r3, #4
 8004f7e:	3302      	adds	r3, #2
 8004f80:	009b      	lsls	r3, r3, #2
 8004f82:	18eb      	adds	r3, r5, r3
 8004f84:	799a      	ldrb	r2, [r3, #6]
 8004f86:	2337      	movs	r3, #55	; 0x37
 8004f88:	54e2      	strb	r2, [r4, r3]
 8004f8a:	78ab      	ldrb	r3, [r5, #2]
 8004f8c:	091b      	lsrs	r3, r3, #4
 8004f8e:	009b      	lsls	r3, r3, #2
 8004f90:	18eb      	adds	r3, r5, r3
 8004f92:	7b5a      	ldrb	r2, [r3, #13]
 8004f94:	3201      	adds	r2, #1
 8004f96:	0020      	movs	r0, r4
 8004f98:	735a      	strb	r2, [r3, #13]
 8004f9a:	f7fd fd45 	bl	8002a28 <commonDoNextAction>
 8004f9e:	2800      	cmp	r0, #0
 8004fa0:	d102      	bne.n	8004fa8 <zombie_isStunnedController+0x68>
 8004fa2:	bc70      	pop	{r4, r5, r6}
 8004fa4:	bc01      	pop	{r0}
 8004fa6:	4700      	bx	r0
 8004fa8:	480b      	ldr	r0, [pc, #44]	; (8004fd8 <zombie_isStunnedController+0x98>)
 8004faa:	f000 ff11 	bl	8005dd0 <mprinter_printf>
 8004fae:	210f      	movs	r1, #15
 8004fb0:	2380      	movs	r3, #128	; 0x80
 8004fb2:	78aa      	ldrb	r2, [r5, #2]
 8004fb4:	425b      	negs	r3, r3
 8004fb6:	400a      	ands	r2, r1
 8004fb8:	4313      	orrs	r3, r2
 8004fba:	70ab      	strb	r3, [r5, #2]
 8004fbc:	4b07      	ldr	r3, [pc, #28]	; (8004fdc <zombie_isStunnedController+0x9c>)
 8004fbe:	2200      	movs	r2, #0
 8004fc0:	6023      	str	r3, [r4, #0]
 8004fc2:	232c      	movs	r3, #44	; 0x2c
 8004fc4:	54e2      	strb	r2, [r4, r3]
 8004fc6:	2201      	movs	r2, #1
 8004fc8:	78eb      	ldrb	r3, [r5, #3]
 8004fca:	438b      	bics	r3, r1
 8004fcc:	4313      	orrs	r3, r2
 8004fce:	0020      	movs	r0, r4
 8004fd0:	70eb      	strb	r3, [r5, #3]
 8004fd2:	f7ff fed5 	bl	8004d80 <zombie_huntController>
 8004fd6:	e7e4      	b.n	8004fa2 <zombie_isStunnedController+0x62>
 8004fd8:	08035d40 	.word	0x08035d40
 8004fdc:	08004d81 	.word	0x08004d81

08004fe0 <zombie_walkAroundController>:
 8004fe0:	220f      	movs	r2, #15
 8004fe2:	b5f0      	push	{r4, r5, r6, r7, lr}
 8004fe4:	6d04      	ldr	r4, [r0, #80]	; 0x50
 8004fe6:	78e3      	ldrb	r3, [r4, #3]
 8004fe8:	0005      	movs	r5, r0
 8004fea:	b083      	sub	sp, #12
 8004fec:	4013      	ands	r3, r2
 8004fee:	2b01      	cmp	r3, #1
 8004ff0:	d100      	bne.n	8004ff4 <zombie_walkAroundController+0x14>
 8004ff2:	e0b2      	b.n	800515a <zombie_walkAroundController+0x17a>
 8004ff4:	2b02      	cmp	r3, #2
 8004ff6:	d100      	bne.n	8004ffa <zombie_walkAroundController+0x1a>
 8004ff8:	e0a4      	b.n	8005144 <zombie_walkAroundController+0x164>
 8004ffa:	f7fd fd4b 	bl	8002a94 <commonDoIntializeActions>
 8004ffe:	2800      	cmp	r0, #0
 8005000:	d000      	beq.n	8005004 <zombie_walkAroundController+0x24>
 8005002:	e069      	b.n	80050d8 <zombie_walkAroundController+0xf8>
 8005004:	220e      	movs	r2, #14
 8005006:	4669      	mov	r1, sp
 8005008:	78a3      	ldrb	r3, [r4, #2]
 800500a:	091b      	lsrs	r3, r3, #4
 800500c:	009b      	lsls	r3, r3, #2
 800500e:	18e3      	adds	r3, r4, r3
 8005010:	569a      	ldrsb	r2, [r3, r2]
 8005012:	71ca      	strb	r2, [r1, #7]
 8005014:	78e2      	ldrb	r2, [r4, #3]
 8005016:	3107      	adds	r1, #7
 8005018:	06d0      	lsls	r0, r2, #27
 800501a:	d501      	bpl.n	8005020 <zombie_walkAroundController+0x40>
 800501c:	2004      	movs	r0, #4
 800501e:	7008      	strb	r0, [r1, #0]
 8005020:	0690      	lsls	r0, r2, #26
 8005022:	d501      	bpl.n	8005028 <zombie_walkAroundController+0x48>
 8005024:	2000      	movs	r0, #0
 8005026:	7008      	strb	r0, [r1, #0]
 8005028:	0650      	lsls	r0, r2, #25
 800502a:	d501      	bpl.n	8005030 <zombie_walkAroundController+0x50>
 800502c:	2002      	movs	r0, #2
 800502e:	7008      	strb	r0, [r1, #0]
 8005030:	0612      	lsls	r2, r2, #24
 8005032:	d41b      	bmi.n	800506c <zombie_walkAroundController+0x8c>
 8005034:	2200      	movs	r2, #0
 8005036:	2637      	movs	r6, #55	; 0x37
 8005038:	568a      	ldrsb	r2, [r1, r2]
 800503a:	0611      	lsls	r1, r2, #24
 800503c:	0e09      	lsrs	r1, r1, #24
 800503e:	7399      	strb	r1, [r3, #14]
 8005040:	0028      	movs	r0, r5
 8005042:	55aa      	strb	r2, [r5, r6]
 8005044:	f7fd fcf0 	bl	8002a28 <commonDoNextAction>
 8005048:	2800      	cmp	r0, #0
 800504a:	d11a      	bne.n	8005082 <zombie_walkAroundController+0xa2>
 800504c:	78a3      	ldrb	r3, [r4, #2]
 800504e:	091b      	lsrs	r3, r3, #4
 8005050:	3302      	adds	r3, #2
 8005052:	009a      	lsls	r2, r3, #2
 8005054:	18a2      	adds	r2, r4, r2
 8005056:	7952      	ldrb	r2, [r2, #5]
 8005058:	3201      	adds	r2, #1
 800505a:	0612      	lsls	r2, r2, #24
 800505c:	0e12      	lsrs	r2, r2, #24
 800505e:	009b      	lsls	r3, r3, #2
 8005060:	18e4      	adds	r4, r4, r3
 8005062:	7162      	strb	r2, [r4, #5]
 8005064:	b003      	add	sp, #12
 8005066:	bcf0      	pop	{r4, r5, r6, r7}
 8005068:	bc01      	pop	{r0}
 800506a:	4700      	bx	r0
 800506c:	2206      	movs	r2, #6
 800506e:	2637      	movs	r6, #55	; 0x37
 8005070:	700a      	strb	r2, [r1, #0]
 8005072:	2106      	movs	r1, #6
 8005074:	0028      	movs	r0, r5
 8005076:	7399      	strb	r1, [r3, #14]
 8005078:	55aa      	strb	r2, [r5, r6]
 800507a:	f7fd fcd5 	bl	8002a28 <commonDoNextAction>
 800507e:	2800      	cmp	r0, #0
 8005080:	d0e4      	beq.n	800504c <zombie_walkAroundController+0x6c>
 8005082:	78a1      	ldrb	r1, [r4, #2]
 8005084:	070a      	lsls	r2, r1, #28
 8005086:	0f12      	lsrs	r2, r2, #28
 8005088:	3a01      	subs	r2, #1
 800508a:	090b      	lsrs	r3, r1, #4
 800508c:	4293      	cmp	r3, r2
 800508e:	dadf      	bge.n	8005050 <zombie_walkAroundController+0x70>
 8005090:	220f      	movs	r2, #15
 8005092:	3301      	adds	r3, #1
 8005094:	4013      	ands	r3, r2
 8005096:	011b      	lsls	r3, r3, #4
 8005098:	4011      	ands	r1, r2
 800509a:	4319      	orrs	r1, r3
 800509c:	4b34      	ldr	r3, [pc, #208]	; (8005170 <zombie_walkAroundController+0x190>)
 800509e:	70a1      	strb	r1, [r4, #2]
 80050a0:	60eb      	str	r3, [r5, #12]
 80050a2:	78a3      	ldrb	r3, [r4, #2]
 80050a4:	091b      	lsrs	r3, r3, #4
 80050a6:	3302      	adds	r3, #2
 80050a8:	009b      	lsls	r3, r3, #2
 80050aa:	18e3      	adds	r3, r4, r3
 80050ac:	79d9      	ldrb	r1, [r3, #7]
 80050ae:	2336      	movs	r3, #54	; 0x36
 80050b0:	2000      	movs	r0, #0
 80050b2:	54e9      	strb	r1, [r5, r3]
 80050b4:	78a3      	ldrb	r3, [r4, #2]
 80050b6:	091b      	lsrs	r3, r3, #4
 80050b8:	3302      	adds	r3, #2
 80050ba:	009b      	lsls	r3, r3, #2
 80050bc:	18e3      	adds	r3, r4, r3
 80050be:	799b      	ldrb	r3, [r3, #6]
 80050c0:	55ab      	strb	r3, [r5, r6]
 80050c2:	78a3      	ldrb	r3, [r4, #2]
 80050c4:	091b      	lsrs	r3, r3, #4
 80050c6:	3302      	adds	r3, #2
 80050c8:	0099      	lsls	r1, r3, #2
 80050ca:	1861      	adds	r1, r4, r1
 80050cc:	7148      	strb	r0, [r1, #5]
 80050ce:	78e1      	ldrb	r1, [r4, #3]
 80050d0:	400a      	ands	r2, r1
 80050d2:	70e2      	strb	r2, [r4, #3]
 80050d4:	2201      	movs	r2, #1
 80050d6:	e7c2      	b.n	800505e <zombie_walkAroundController+0x7e>
 80050d8:	f003 f98a 	bl	80083f0 <__rand_from_thumb>
 80050dc:	2207      	movs	r2, #7
 80050de:	211c      	movs	r1, #28
 80050e0:	4b24      	ldr	r3, [pc, #144]	; (8005174 <zombie_walkAroundController+0x194>)
 80050e2:	4002      	ands	r2, r0
 80050e4:	189b      	adds	r3, r3, r2
 80050e6:	5659      	ldrsb	r1, [r3, r1]
 80050e8:	2301      	movs	r3, #1
 80050ea:	4399      	bics	r1, r3
 80050ec:	3303      	adds	r3, #3
 80050ee:	70a3      	strb	r3, [r4, #2]
 80050f0:	4b1f      	ldr	r3, [pc, #124]	; (8005170 <zombie_walkAroundController+0x190>)
 80050f2:	60eb      	str	r3, [r5, #12]
 80050f4:	78a3      	ldrb	r3, [r4, #2]
 80050f6:	071a      	lsls	r2, r3, #28
 80050f8:	0f10      	lsrs	r0, r2, #28
 80050fa:	2a00      	cmp	r2, #0
 80050fc:	d00e      	beq.n	800511c <zombie_walkAroundController+0x13c>
 80050fe:	0023      	movs	r3, r4
 8005100:	2200      	movs	r2, #0
 8005102:	2714      	movs	r7, #20
 8005104:	2600      	movs	r6, #0
 8005106:	0609      	lsls	r1, r1, #24
 8005108:	0e09      	lsrs	r1, r1, #24
 800510a:	330c      	adds	r3, #12
 800510c:	3201      	adds	r2, #1
 800510e:	801f      	strh	r7, [r3, #0]
 8005110:	7099      	strb	r1, [r3, #2]
 8005112:	70de      	strb	r6, [r3, #3]
 8005114:	3304      	adds	r3, #4
 8005116:	4282      	cmp	r2, r0
 8005118:	dbf8      	blt.n	800510c <zombie_walkAroundController+0x12c>
 800511a:	78a3      	ldrb	r3, [r4, #2]
 800511c:	091b      	lsrs	r3, r3, #4
 800511e:	3302      	adds	r3, #2
 8005120:	009b      	lsls	r3, r3, #2
 8005122:	18e3      	adds	r3, r4, r3
 8005124:	79da      	ldrb	r2, [r3, #7]
 8005126:	2336      	movs	r3, #54	; 0x36
 8005128:	54ea      	strb	r2, [r5, r3]
 800512a:	78a3      	ldrb	r3, [r4, #2]
 800512c:	091b      	lsrs	r3, r3, #4
 800512e:	3302      	adds	r3, #2
 8005130:	009b      	lsls	r3, r3, #2
 8005132:	18e3      	adds	r3, r4, r3
 8005134:	799a      	ldrb	r2, [r3, #6]
 8005136:	2337      	movs	r3, #55	; 0x37
 8005138:	54ea      	strb	r2, [r5, r3]
 800513a:	78e2      	ldrb	r2, [r4, #3]
 800513c:	3b28      	subs	r3, #40	; 0x28
 800513e:	4013      	ands	r3, r2
 8005140:	70e3      	strb	r3, [r4, #3]
 8005142:	e75f      	b.n	8005004 <zombie_walkAroundController+0x24>
 8005144:	78a3      	ldrb	r3, [r4, #2]
 8005146:	401a      	ands	r2, r3
 8005148:	2380      	movs	r3, #128	; 0x80
 800514a:	425b      	negs	r3, r3
 800514c:	4313      	orrs	r3, r2
 800514e:	70a3      	strb	r3, [r4, #2]
 8005150:	4b09      	ldr	r3, [pc, #36]	; (8005178 <zombie_walkAroundController+0x198>)
 8005152:	6003      	str	r3, [r0, #0]
 8005154:	f7ff fef4 	bl	8004f40 <zombie_isStunnedController>
 8005158:	e784      	b.n	8005064 <zombie_walkAroundController+0x84>
 800515a:	78a3      	ldrb	r3, [r4, #2]
 800515c:	401a      	ands	r2, r3
 800515e:	2380      	movs	r3, #128	; 0x80
 8005160:	425b      	negs	r3, r3
 8005162:	4313      	orrs	r3, r2
 8005164:	70a3      	strb	r3, [r4, #2]
 8005166:	4b05      	ldr	r3, [pc, #20]	; (800517c <zombie_walkAroundController+0x19c>)
 8005168:	6003      	str	r3, [r0, #0]
 800516a:	f7ff fe09 	bl	8004d80 <zombie_huntController>
 800516e:	e779      	b.n	8005064 <zombie_walkAroundController+0x84>
 8005170:	08004511 	.word	0x08004511
 8005174:	08008db4 	.word	0x08008db4
 8005178:	08004f41 	.word	0x08004f41
 800517c:	08004d81 	.word	0x08004d81

08005180 <gbatimer_profileStart>:
 8005180:	2200      	movs	r2, #0
 8005182:	4b0b      	ldr	r3, [pc, #44]	; (80051b0 <gbatimer_profileStart+0x30>)
 8005184:	801a      	strh	r2, [r3, #0]
 8005186:	4b0b      	ldr	r3, [pc, #44]	; (80051b4 <gbatimer_profileStart+0x34>)
 8005188:	7819      	ldrb	r1, [r3, #0]
 800518a:	701a      	strb	r2, [r3, #0]
 800518c:	7859      	ldrb	r1, [r3, #1]
 800518e:	490a      	ldr	r1, [pc, #40]	; (80051b8 <gbatimer_profileStart+0x38>)
 8005190:	705a      	strb	r2, [r3, #1]
 8005192:	800a      	strh	r2, [r1, #0]
 8005194:	4b09      	ldr	r3, [pc, #36]	; (80051bc <gbatimer_profileStart+0x3c>)
 8005196:	7818      	ldrb	r0, [r3, #0]
 8005198:	701a      	strb	r2, [r3, #0]
 800519a:	7858      	ldrb	r0, [r3, #1]
 800519c:	705a      	strb	r2, [r3, #1]
 800519e:	7818      	ldrb	r0, [r3, #0]
 80051a0:	207c      	movs	r0, #124	; 0x7c
 80051a2:	4240      	negs	r0, r0
 80051a4:	7018      	strb	r0, [r3, #0]
 80051a6:	7858      	ldrb	r0, [r3, #1]
 80051a8:	705a      	strb	r2, [r3, #1]
 80051aa:	2380      	movs	r3, #128	; 0x80
 80051ac:	800b      	strh	r3, [r1, #0]
 80051ae:	4770      	bx	lr
 80051b0:	04000108 	.word	0x04000108
 80051b4:	0400010b 	.word	0x0400010b
 80051b8:	0400010a 	.word	0x0400010a
 80051bc:	0400010d 	.word	0x0400010d

080051c0 <gbatimer_profileStop>:
 80051c0:	2200      	movs	r2, #0
 80051c2:	4b06      	ldr	r3, [pc, #24]	; (80051dc <gbatimer_profileStop+0x1c>)
 80051c4:	801a      	strh	r2, [r3, #0]
 80051c6:	4b06      	ldr	r3, [pc, #24]	; (80051e0 <gbatimer_profileStop+0x20>)
 80051c8:	781a      	ldrb	r2, [r3, #0]
 80051ca:	7858      	ldrb	r0, [r3, #1]
 80051cc:	4b05      	ldr	r3, [pc, #20]	; (80051e4 <gbatimer_profileStop+0x24>)
 80051ce:	0200      	lsls	r0, r0, #8
 80051d0:	881b      	ldrh	r3, [r3, #0]
 80051d2:	4310      	orrs	r0, r2
 80051d4:	0400      	lsls	r0, r0, #16
 80051d6:	4318      	orrs	r0, r3
 80051d8:	4770      	bx	lr
 80051da:	46c0      	nop			; (mov r8, r8)
 80051dc:	0400010a 	.word	0x0400010a
 80051e0:	0400010b 	.word	0x0400010b
 80051e4:	04000108 	.word	0x04000108

080051e8 <gbatimer_set>:
 80051e8:	43c0      	mvns	r0, r0
 80051ea:	2280      	movs	r2, #128	; 0x80
 80051ec:	4b03      	ldr	r3, [pc, #12]	; (80051fc <gbatimer_set+0x14>)
 80051ee:	0400      	lsls	r0, r0, #16
 80051f0:	0c00      	lsrs	r0, r0, #16
 80051f2:	8018      	strh	r0, [r3, #0]
 80051f4:	4b02      	ldr	r3, [pc, #8]	; (8005200 <gbatimer_set+0x18>)
 80051f6:	801a      	strh	r2, [r3, #0]
 80051f8:	4770      	bx	lr
 80051fa:	46c0      	nop			; (mov r8, r8)
 80051fc:	04000100 	.word	0x04000100
 8005200:	04000102 	.word	0x04000102

08005204 <mbg_initializeMapOnScreen>:
 8005204:	b5f0      	push	{r4, r5, r6, r7, lr}
 8005206:	4657      	mov	r7, sl
 8005208:	464e      	mov	r6, r9
 800520a:	4645      	mov	r5, r8
 800520c:	46de      	mov	lr, fp
 800520e:	b5e0      	push	{r5, r6, r7, lr}
 8005210:	4690      	mov	r8, r2
 8005212:	001c      	movs	r4, r3
 8005214:	2210      	movs	r2, #16
 8005216:	5e83      	ldrsh	r3, [r0, r2]
 8005218:	10da      	asrs	r2, r3, #3
 800521a:	4693      	mov	fp, r2
 800521c:	2212      	movs	r2, #18
 800521e:	5e82      	ldrsh	r2, [r0, r2]
 8005220:	8808      	ldrh	r0, [r1, #0]
 8005222:	08c0      	lsrs	r0, r0, #3
 8005224:	231f      	movs	r3, #31
 8005226:	465f      	mov	r7, fp
 8005228:	4681      	mov	r9, r0
 800522a:	10d2      	asrs	r2, r2, #3
 800522c:	4648      	mov	r0, r9
 800522e:	4350      	muls	r0, r2
 8005230:	401f      	ands	r7, r3
 8005232:	4013      	ands	r3, r2
 8005234:	2220      	movs	r2, #32
 8005236:	4694      	mov	ip, r2
 8005238:	465a      	mov	r2, fp
 800523a:	4682      	mov	sl, r0
 800523c:	0018      	movs	r0, r3
 800523e:	b085      	sub	sp, #20
 8005240:	9202      	str	r2, [sp, #8]
 8005242:	464a      	mov	r2, r9
 8005244:	3720      	adds	r7, #32
 8005246:	3020      	adds	r0, #32
 8005248:	003d      	movs	r5, r7
 800524a:	261f      	movs	r6, #31
 800524c:	4647      	mov	r7, r8
 800524e:	4683      	mov	fp, r0
 8005250:	46d0      	mov	r8, sl
 8005252:	46a2      	mov	sl, r4
 8005254:	9203      	str	r2, [sp, #12]
 8005256:	465b      	mov	r3, fp
 8005258:	4662      	mov	r2, ip
 800525a:	1a98      	subs	r0, r3, r2
 800525c:	4663      	mov	r3, ip
 800525e:	2420      	movs	r4, #32
 8005260:	46a9      	mov	r9, r5
 8005262:	9a02      	ldr	r2, [sp, #8]
 8005264:	4030      	ands	r0, r6
 8005266:	0140      	lsls	r0, r0, #5
 8005268:	4442      	add	r2, r8
 800526a:	9000      	str	r0, [sp, #0]
 800526c:	9301      	str	r3, [sp, #4]
 800526e:	0052      	lsls	r2, r2, #1
 8005270:	9800      	ldr	r0, [sp, #0]
 8005272:	464b      	mov	r3, r9
 8005274:	4684      	mov	ip, r0
 8005276:	4650      	mov	r0, sl
 8005278:	68cd      	ldr	r5, [r1, #12]
 800527a:	1b1b      	subs	r3, r3, r4
 800527c:	682d      	ldr	r5, [r5, #0]
 800527e:	4033      	ands	r3, r6
 8005280:	5aad      	ldrh	r5, [r5, r2]
 8005282:	4463      	add	r3, ip
 8005284:	005b      	lsls	r3, r3, #1
 8005286:	52fd      	strh	r5, [r7, r3]
 8005288:	68cd      	ldr	r5, [r1, #12]
 800528a:	686d      	ldr	r5, [r5, #4]
 800528c:	5aad      	ldrh	r5, [r5, r2]
 800528e:	3c01      	subs	r4, #1
 8005290:	52c5      	strh	r5, [r0, r3]
 8005292:	3202      	adds	r2, #2
 8005294:	2c00      	cmp	r4, #0
 8005296:	d1eb      	bne.n	8005270 <mbg_initializeMapOnScreen+0x6c>
 8005298:	9b01      	ldr	r3, [sp, #4]
 800529a:	469c      	mov	ip, r3
 800529c:	2301      	movs	r3, #1
 800529e:	425b      	negs	r3, r3
 80052a0:	464d      	mov	r5, r9
 80052a2:	4699      	mov	r9, r3
 80052a4:	9b03      	ldr	r3, [sp, #12]
 80052a6:	44cc      	add	ip, r9
 80052a8:	4699      	mov	r9, r3
 80052aa:	4663      	mov	r3, ip
 80052ac:	44c8      	add	r8, r9
 80052ae:	2b00      	cmp	r3, #0
 80052b0:	d1d1      	bne.n	8005256 <mbg_initializeMapOnScreen+0x52>
 80052b2:	b005      	add	sp, #20
 80052b4:	bcf0      	pop	{r4, r5, r6, r7}
 80052b6:	46bb      	mov	fp, r7
 80052b8:	46b2      	mov	sl, r6
 80052ba:	46a9      	mov	r9, r5
 80052bc:	46a0      	mov	r8, r4
 80052be:	bcf0      	pop	{r4, r5, r6, r7}
 80052c0:	bc01      	pop	{r0}
 80052c2:	4700      	bx	r0

080052c4 <mbg_initializeCharacters>:
 80052c4:	b5f0      	push	{r4, r5, r6, r7, lr}
 80052c6:	464e      	mov	r6, r9
 80052c8:	4645      	mov	r5, r8
 80052ca:	46de      	mov	lr, fp
 80052cc:	4657      	mov	r7, sl
 80052ce:	b5e0      	push	{r5, r6, r7, lr}
 80052d0:	4699      	mov	r9, r3
 80052d2:	88c3      	ldrh	r3, [r0, #6]
 80052d4:	04db      	lsls	r3, r3, #19
 80052d6:	4690      	mov	r8, r2
 80052d8:	b085      	sub	sp, #20
 80052da:	0e5b      	lsrs	r3, r3, #25
 80052dc:	d042      	beq.n	8005364 <mbg_initializeCharacters+0xa0>
 80052de:	2600      	movs	r6, #0
 80052e0:	0007      	movs	r7, r0
 80052e2:	468a      	mov	sl, r1
 80052e4:	4a24      	ldr	r2, [pc, #144]	; (8005378 <mbg_initializeCharacters+0xb4>)
 80052e6:	784b      	ldrb	r3, [r1, #1]
 80052e8:	9202      	str	r2, [sp, #8]
 80052ea:	4a24      	ldr	r2, [pc, #144]	; (800537c <mbg_initializeCharacters+0xb8>)
 80052ec:	9203      	str	r2, [sp, #12]
 80052ee:	4652      	mov	r2, sl
 80052f0:	6852      	ldr	r2, [r2, #4]
 80052f2:	009b      	lsls	r3, r3, #2
 80052f4:	0074      	lsls	r4, r6, #1
 80052f6:	589d      	ldr	r5, [r3, r2]
 80052f8:	19a4      	adds	r4, r4, r6
 80052fa:	6a3b      	ldr	r3, [r7, #32]
 80052fc:	00a4      	lsls	r4, r4, #2
 80052fe:	191b      	adds	r3, r3, r4
 8005300:	791b      	ldrb	r3, [r3, #4]
 8005302:	061b      	lsls	r3, r3, #24
 8005304:	9a02      	ldr	r2, [sp, #8]
 8005306:	161b      	asrs	r3, r3, #24
 8005308:	009b      	lsls	r3, r3, #2
 800530a:	58d3      	ldr	r3, [r2, r3]
 800530c:	4641      	mov	r1, r8
 800530e:	0028      	movs	r0, r5
 8005310:	f000 f97f 	bl	8005612 <mbg_collisionAtPosition+0x2>
 8005314:	6a3b      	ldr	r3, [r7, #32]
 8005316:	191b      	adds	r3, r3, r4
 8005318:	885a      	ldrh	r2, [r3, #2]
 800531a:	8819      	ldrh	r1, [r3, #0]
 800531c:	2300      	movs	r3, #0
 800531e:	0028      	movs	r0, r5
 8005320:	9300      	str	r3, [sp, #0]
 8005322:	f7fb ff51 	bl	80011c8 <commonCharacterSetPosition>
 8005326:	686b      	ldr	r3, [r5, #4]
 8005328:	0039      	movs	r1, r7
 800532a:	469b      	mov	fp, r3
 800532c:	4652      	mov	r2, sl
 800532e:	464b      	mov	r3, r9
 8005330:	0028      	movs	r0, r5
 8005332:	f000 f96f 	bl	8005614 <mbg_collisionAtPosition+0x4>
 8005336:	6a3b      	ldr	r3, [r7, #32]
 8005338:	191b      	adds	r3, r3, r4
 800533a:	6899      	ldr	r1, [r3, #8]
 800533c:	2900      	cmp	r1, #0
 800533e:	d004      	beq.n	800534a <mbg_initializeCharacters+0x86>
 8005340:	0028      	movs	r0, r5
 8005342:	f7fd f9a3 	bl	800268c <commonSetCharacterEvent>
 8005346:	9b03      	ldr	r3, [sp, #12]
 8005348:	602b      	str	r3, [r5, #0]
 800534a:	4653      	mov	r3, sl
 800534c:	4652      	mov	r2, sl
 800534e:	785b      	ldrb	r3, [r3, #1]
 8005350:	3301      	adds	r3, #1
 8005352:	061b      	lsls	r3, r3, #24
 8005354:	0e1b      	lsrs	r3, r3, #24
 8005356:	7053      	strb	r3, [r2, #1]
 8005358:	88fa      	ldrh	r2, [r7, #6]
 800535a:	3601      	adds	r6, #1
 800535c:	04d2      	lsls	r2, r2, #19
 800535e:	0e52      	lsrs	r2, r2, #25
 8005360:	42b2      	cmp	r2, r6
 8005362:	dcc4      	bgt.n	80052ee <mbg_initializeCharacters+0x2a>
 8005364:	b005      	add	sp, #20
 8005366:	bcf0      	pop	{r4, r5, r6, r7}
 8005368:	46bb      	mov	fp, r7
 800536a:	46b2      	mov	sl, r6
 800536c:	46a9      	mov	r9, r5
 800536e:	46a0      	mov	r8, r4
 8005370:	bcf0      	pop	{r4, r5, r6, r7}
 8005372:	bc01      	pop	{r0}
 8005374:	4700      	bx	r0
 8005376:	46c0      	nop			; (mov r8, r8)
 8005378:	080088ec 	.word	0x080088ec
 800537c:	080026e9 	.word	0x080026e9

08005380 <mbg_init>:
 8005380:	b5f8      	push	{r3, r4, r5, r6, r7, lr}
 8005382:	4645      	mov	r5, r8
 8005384:	464e      	mov	r6, r9
 8005386:	46de      	mov	lr, fp
 8005388:	4657      	mov	r7, sl
 800538a:	b5e0      	push	{r5, r6, r7, lr}
 800538c:	4698      	mov	r8, r3
 800538e:	794b      	ldrb	r3, [r1, #5]
 8005390:	069b      	lsls	r3, r3, #26
 8005392:	4684      	mov	ip, r0
 8005394:	000d      	movs	r5, r1
 8005396:	4691      	mov	r9, r2
 8005398:	0f1b      	lsrs	r3, r3, #28
 800539a:	d013      	beq.n	80053c4 <mbg_init+0x44>
 800539c:	24a0      	movs	r4, #160	; 0xa0
 800539e:	2100      	movs	r1, #0
 80053a0:	2000      	movs	r0, #0
 80053a2:	4a29      	ldr	r2, [pc, #164]	; (8005448 <mbg_init+0xc8>)
 80053a4:	4e29      	ldr	r6, [pc, #164]	; (800544c <mbg_init+0xcc>)
 80053a6:	04e4      	lsls	r4, r4, #19
 80053a8:	696b      	ldr	r3, [r5, #20]
 80053aa:	008f      	lsls	r7, r1, #2
 80053ac:	58fb      	ldr	r3, [r7, r3]
 80053ae:	6090      	str	r0, [r2, #8]
 80053b0:	6013      	str	r3, [r2, #0]
 80053b2:	6054      	str	r4, [r2, #4]
 80053b4:	6096      	str	r6, [r2, #8]
 80053b6:	796b      	ldrb	r3, [r5, #5]
 80053b8:	3101      	adds	r1, #1
 80053ba:	069b      	lsls	r3, r3, #26
 80053bc:	3420      	adds	r4, #32
 80053be:	0f1b      	lsrs	r3, r3, #28
 80053c0:	428b      	cmp	r3, r1
 80053c2:	dcf1      	bgt.n	80053a8 <mbg_init+0x28>
 80053c4:	88ab      	ldrh	r3, [r5, #4]
 80053c6:	059b      	lsls	r3, r3, #22
 80053c8:	0e1b      	lsrs	r3, r3, #24
 80053ca:	d022      	beq.n	8005412 <mbg_init+0x92>
 80053cc:	2184      	movs	r1, #132	; 0x84
 80053ce:	0609      	lsls	r1, r1, #24
 80053d0:	2201      	movs	r2, #1
 80053d2:	2300      	movs	r3, #0
 80053d4:	2700      	movs	r7, #0
 80053d6:	468a      	mov	sl, r1
 80053d8:	6928      	ldr	r0, [r5, #16]
 80053da:	4e1b      	ldr	r6, [pc, #108]	; (8005448 <mbg_init+0xc8>)
 80053dc:	21c0      	movs	r1, #192	; 0xc0
 80053de:	04c9      	lsls	r1, r1, #19
 80053e0:	468b      	mov	fp, r1
 80053e2:	0154      	lsls	r4, r2, #5
 80053e4:	0099      	lsls	r1, r3, #2
 80053e6:	44a3      	add	fp, r4
 80053e8:	5844      	ldr	r4, [r0, r1]
 80053ea:	6860      	ldr	r0, [r4, #4]
 80053ec:	8824      	ldrh	r4, [r4, #0]
 80053ee:	60b7      	str	r7, [r6, #8]
 80053f0:	6030      	str	r0, [r6, #0]
 80053f2:	4658      	mov	r0, fp
 80053f4:	6070      	str	r0, [r6, #4]
 80053f6:	4650      	mov	r0, sl
 80053f8:	00e4      	lsls	r4, r4, #3
 80053fa:	4304      	orrs	r4, r0
 80053fc:	60b4      	str	r4, [r6, #8]
 80053fe:	6928      	ldr	r0, [r5, #16]
 8005400:	5844      	ldr	r4, [r0, r1]
 8005402:	8824      	ldrh	r4, [r4, #0]
 8005404:	1912      	adds	r2, r2, r4
 8005406:	88ac      	ldrh	r4, [r5, #4]
 8005408:	3301      	adds	r3, #1
 800540a:	05a4      	lsls	r4, r4, #22
 800540c:	0e24      	lsrs	r4, r4, #24
 800540e:	429c      	cmp	r4, r3
 8005410:	dce4      	bgt.n	80053dc <mbg_init+0x5c>
 8005412:	0029      	movs	r1, r5
 8005414:	4660      	mov	r0, ip
 8005416:	4b0e      	ldr	r3, [pc, #56]	; (8005450 <mbg_init+0xd0>)
 8005418:	4a0e      	ldr	r2, [pc, #56]	; (8005454 <mbg_init+0xd4>)
 800541a:	f7ff fef3 	bl	8005204 <mbg_initializeMapOnScreen>
 800541e:	4642      	mov	r2, r8
 8005420:	4649      	mov	r1, r9
 8005422:	0028      	movs	r0, r5
 8005424:	9b0a      	ldr	r3, [sp, #40]	; 0x28
 8005426:	f7ff ff4d 	bl	80052c4 <mbg_initializeCharacters>
 800542a:	4b0b      	ldr	r3, [pc, #44]	; (8005458 <mbg_init+0xd8>)
 800542c:	4a0b      	ldr	r2, [pc, #44]	; (800545c <mbg_init+0xdc>)
 800542e:	801a      	strh	r2, [r3, #0]
 8005430:	4b0b      	ldr	r3, [pc, #44]	; (8005460 <mbg_init+0xe0>)
 8005432:	4a0c      	ldr	r2, [pc, #48]	; (8005464 <mbg_init+0xe4>)
 8005434:	801a      	strh	r2, [r3, #0]
 8005436:	bcf0      	pop	{r4, r5, r6, r7}
 8005438:	46bb      	mov	fp, r7
 800543a:	46b2      	mov	sl, r6
 800543c:	46a9      	mov	r9, r5
 800543e:	46a0      	mov	r8, r4
 8005440:	bcf8      	pop	{r3, r4, r5, r6, r7}
 8005442:	bc01      	pop	{r0}
 8005444:	4700      	bx	r0
 8005446:	46c0      	nop			; (mov r8, r8)
 8005448:	040000d4 	.word	0x040000d4
 800544c:	80000010 	.word	0x80000010
 8005450:	0600e800 	.word	0x0600e800
 8005454:	0600e000 	.word	0x0600e000
 8005458:	04000008 	.word	0x04000008
 800545c:	00001c02 	.word	0x00001c02
 8005460:	0400000a 	.word	0x0400000a
 8005464:	00001d03 	.word	0x00001d03

08005468 <mbg_setVerticalTiles>:
 8005468:	b5f0      	push	{r4, r5, r6, r7, lr}
 800546a:	4645      	mov	r5, r8
 800546c:	46de      	mov	lr, fp
 800546e:	4657      	mov	r7, sl
 8005470:	464e      	mov	r6, r9
 8005472:	b5e0      	push	{r5, r6, r7, lr}
 8005474:	b085      	sub	sp, #20
 8005476:	ac0e      	add	r4, sp, #56	; 0x38
 8005478:	8827      	ldrh	r7, [r4, #0]
 800547a:	241f      	movs	r4, #31
 800547c:	0025      	movs	r5, r4
 800547e:	08d2      	lsrs	r2, r2, #3
 8005480:	08db      	lsrs	r3, r3, #3
 8005482:	4015      	ands	r5, r2
 8005484:	401c      	ands	r4, r3
 8005486:	46a8      	mov	r8, r5
 8005488:	46a3      	mov	fp, r4
 800548a:	8805      	ldrh	r5, [r0, #0]
 800548c:	7904      	ldrb	r4, [r0, #4]
 800548e:	08ed      	lsrs	r5, r5, #3
 8005490:	07a6      	lsls	r6, r4, #30
 8005492:	d046      	beq.n	8005522 <mbg_setVerticalTiles+0xba>
 8005494:	02ce      	lsls	r6, r1, #11
 8005496:	0069      	lsls	r1, r5, #1
 8005498:	435d      	muls	r5, r3
 800549a:	18ad      	adds	r5, r5, r2
 800549c:	006b      	lsls	r3, r5, #1
 800549e:	9302      	str	r3, [sp, #8]
 80054a0:	231f      	movs	r3, #31
 80054a2:	4699      	mov	r9, r3
 80054a4:	465b      	mov	r3, fp
 80054a6:	2500      	movs	r5, #0
 80054a8:	9303      	str	r3, [sp, #12]
 80054aa:	0003      	movs	r3, r0
 80054ac:	468a      	mov	sl, r1
 80054ae:	0028      	movs	r0, r5
 80054b0:	001d      	movs	r5, r3
 80054b2:	2f00      	cmp	r7, #0
 80054b4:	d02c      	beq.n	8005510 <mbg_setVerticalTiles+0xa8>
 80054b6:	0083      	lsls	r3, r0, #2
 80054b8:	469c      	mov	ip, r3
 80054ba:	4643      	mov	r3, r8
 80054bc:	9300      	str	r3, [sp, #0]
 80054be:	003b      	movs	r3, r7
 80054c0:	2200      	movs	r2, #0
 80054c2:	0037      	movs	r7, r6
 80054c4:	46a8      	mov	r8, r5
 80054c6:	4656      	mov	r6, sl
 80054c8:	469a      	mov	sl, r3
 80054ca:	9c03      	ldr	r4, [sp, #12]
 80054cc:	9902      	ldr	r1, [sp, #8]
 80054ce:	9001      	str	r0, [sp, #4]
 80054d0:	4643      	mov	r3, r8
 80054d2:	4660      	mov	r0, ip
 80054d4:	68db      	ldr	r3, [r3, #12]
 80054d6:	581b      	ldr	r3, [r3, r0]
 80054d8:	9d00      	ldr	r5, [sp, #0]
 80054da:	5a58      	ldrh	r0, [r3, r1]
 80054dc:	464b      	mov	r3, r9
 80054de:	46ab      	mov	fp, r5
 80054e0:	25c0      	movs	r5, #192	; 0xc0
 80054e2:	4023      	ands	r3, r4
 80054e4:	015b      	lsls	r3, r3, #5
 80054e6:	04ed      	lsls	r5, r5, #19
 80054e8:	445b      	add	r3, fp
 80054ea:	46ab      	mov	fp, r5
 80054ec:	005b      	lsls	r3, r3, #1
 80054ee:	19db      	adds	r3, r3, r7
 80054f0:	445b      	add	r3, fp
 80054f2:	3201      	adds	r2, #1
 80054f4:	8018      	strh	r0, [r3, #0]
 80054f6:	1989      	adds	r1, r1, r6
 80054f8:	3401      	adds	r4, #1
 80054fa:	4552      	cmp	r2, sl
 80054fc:	dbe8      	blt.n	80054d0 <mbg_setVerticalTiles+0x68>
 80054fe:	9b00      	ldr	r3, [sp, #0]
 8005500:	4645      	mov	r5, r8
 8005502:	4698      	mov	r8, r3
 8005504:	4653      	mov	r3, sl
 8005506:	46b2      	mov	sl, r6
 8005508:	003e      	movs	r6, r7
 800550a:	001f      	movs	r7, r3
 800550c:	9801      	ldr	r0, [sp, #4]
 800550e:	792c      	ldrb	r4, [r5, #4]
 8005510:	2380      	movs	r3, #128	; 0x80
 8005512:	011b      	lsls	r3, r3, #4
 8005514:	469c      	mov	ip, r3
 8005516:	3001      	adds	r0, #1
 8005518:	07a3      	lsls	r3, r4, #30
 800551a:	4466      	add	r6, ip
 800551c:	0f9b      	lsrs	r3, r3, #30
 800551e:	4283      	cmp	r3, r0
 8005520:	dcc7      	bgt.n	80054b2 <mbg_setVerticalTiles+0x4a>
 8005522:	b005      	add	sp, #20
 8005524:	bcf0      	pop	{r4, r5, r6, r7}
 8005526:	46bb      	mov	fp, r7
 8005528:	46b2      	mov	sl, r6
 800552a:	46a9      	mov	r9, r5
 800552c:	46a0      	mov	r8, r4
 800552e:	bcf0      	pop	{r4, r5, r6, r7}
 8005530:	bc01      	pop	{r0}
 8005532:	4700      	bx	r0

08005534 <mbg_setHorizontalTiles>:
 8005534:	b5f0      	push	{r4, r5, r6, r7, lr}
 8005536:	4657      	mov	r7, sl
 8005538:	464e      	mov	r6, r9
 800553a:	4645      	mov	r5, r8
 800553c:	46de      	mov	lr, fp
 800553e:	b5e0      	push	{r5, r6, r7, lr}
 8005540:	271f      	movs	r7, #31
 8005542:	b085      	sub	sp, #20
 8005544:	ac0e      	add	r4, sp, #56	; 0x38
 8005546:	8824      	ldrh	r4, [r4, #0]
 8005548:	46a4      	mov	ip, r4
 800554a:	003c      	movs	r4, r7
 800554c:	08d2      	lsrs	r2, r2, #3
 800554e:	4014      	ands	r4, r2
 8005550:	46a2      	mov	sl, r4
 8005552:	8805      	ldrh	r5, [r0, #0]
 8005554:	7904      	ldrb	r4, [r0, #4]
 8005556:	08db      	lsrs	r3, r3, #3
 8005558:	401f      	ands	r7, r3
 800555a:	08ed      	lsrs	r5, r5, #3
 800555c:	07a6      	lsls	r6, r4, #30
 800555e:	d03d      	beq.n	80055dc <mbg_setHorizontalTiles+0xa8>
 8005560:	435d      	muls	r5, r3
 8005562:	18ad      	adds	r5, r5, r2
 8005564:	006b      	lsls	r3, r5, #1
 8005566:	469b      	mov	fp, r3
 8005568:	231f      	movs	r3, #31
 800556a:	2500      	movs	r5, #0
 800556c:	4699      	mov	r9, r3
 800556e:	4653      	mov	r3, sl
 8005570:	017f      	lsls	r7, r7, #5
 8005572:	46b8      	mov	r8, r7
 8005574:	0007      	movs	r7, r0
 8005576:	0028      	movs	r0, r5
 8005578:	4665      	mov	r5, ip
 800557a:	9303      	str	r3, [sp, #12]
 800557c:	02ce      	lsls	r6, r1, #11
 800557e:	2d00      	cmp	r5, #0
 8005580:	d023      	beq.n	80055ca <mbg_setHorizontalTiles+0x96>
 8005582:	0083      	lsls	r3, r0, #2
 8005584:	9301      	str	r3, [sp, #4]
 8005586:	002b      	movs	r3, r5
 8005588:	4659      	mov	r1, fp
 800558a:	4645      	mov	r5, r8
 800558c:	2200      	movs	r2, #0
 800558e:	4698      	mov	r8, r3
 8005590:	46bc      	mov	ip, r7
 8005592:	9c03      	ldr	r4, [sp, #12]
 8005594:	9002      	str	r0, [sp, #8]
 8005596:	4663      	mov	r3, ip
 8005598:	27c0      	movs	r7, #192	; 0xc0
 800559a:	9801      	ldr	r0, [sp, #4]
 800559c:	68db      	ldr	r3, [r3, #12]
 800559e:	581b      	ldr	r3, [r3, r0]
 80055a0:	5a58      	ldrh	r0, [r3, r1]
 80055a2:	464b      	mov	r3, r9
 80055a4:	04ff      	lsls	r7, r7, #19
 80055a6:	46ba      	mov	sl, r7
 80055a8:	4023      	ands	r3, r4
 80055aa:	195b      	adds	r3, r3, r5
 80055ac:	005b      	lsls	r3, r3, #1
 80055ae:	199b      	adds	r3, r3, r6
 80055b0:	4453      	add	r3, sl
 80055b2:	3201      	adds	r2, #1
 80055b4:	8018      	strh	r0, [r3, #0]
 80055b6:	3102      	adds	r1, #2
 80055b8:	3401      	adds	r4, #1
 80055ba:	4542      	cmp	r2, r8
 80055bc:	dbeb      	blt.n	8005596 <mbg_setHorizontalTiles+0x62>
 80055be:	4643      	mov	r3, r8
 80055c0:	4667      	mov	r7, ip
 80055c2:	46a8      	mov	r8, r5
 80055c4:	001d      	movs	r5, r3
 80055c6:	9802      	ldr	r0, [sp, #8]
 80055c8:	793c      	ldrb	r4, [r7, #4]
 80055ca:	2380      	movs	r3, #128	; 0x80
 80055cc:	011b      	lsls	r3, r3, #4
 80055ce:	469c      	mov	ip, r3
 80055d0:	3001      	adds	r0, #1
 80055d2:	07a3      	lsls	r3, r4, #30
 80055d4:	4466      	add	r6, ip
 80055d6:	0f9b      	lsrs	r3, r3, #30
 80055d8:	4283      	cmp	r3, r0
 80055da:	dcd0      	bgt.n	800557e <mbg_setHorizontalTiles+0x4a>
 80055dc:	b005      	add	sp, #20
 80055de:	bcf0      	pop	{r4, r5, r6, r7}
 80055e0:	46bb      	mov	fp, r7
 80055e2:	46b2      	mov	sl, r6
 80055e4:	46a9      	mov	r9, r5
 80055e6:	46a0      	mov	r8, r4
 80055e8:	bcf0      	pop	{r4, r5, r6, r7}
 80055ea:	bc01      	pop	{r0}
 80055ec:	4700      	bx	r0
 80055ee:	46c0      	nop			; (mov r8, r8)

080055f0 <mbg_checkBoundary>:
 80055f0:	2300      	movs	r3, #0
 80055f2:	b500      	push	{lr}
 80055f4:	b08f      	sub	sp, #60	; 0x3c
 80055f6:	0008      	movs	r0, r1
 80055f8:	9301      	str	r3, [sp, #4]
 80055fa:	aa02      	add	r2, sp, #8
 80055fc:	68cb      	ldr	r3, [r1, #12]
 80055fe:	a901      	add	r1, sp, #4
 8005600:	f000 f807 	bl	8005612 <mbg_collisionAtPosition+0x2>
 8005604:	2001      	movs	r0, #1
 8005606:	b00f      	add	sp, #60	; 0x3c
 8005608:	bc02      	pop	{r1}
 800560a:	4708      	bx	r1

0800560c <mbg_checkCollision>:
 800560c:	4770      	bx	lr
 800560e:	46c0      	nop			; (mov r8, r8)

08005610 <mbg_collisionAtPosition>:
 8005610:	4770      	bx	lr
 8005612:	4718      	bx	r3
 8005614:	4758      	bx	fp
 8005616:	46c0      	nop			; (mov r8, r8)

08005618 <mchar_setDraw>:
 8005618:	4b01      	ldr	r3, [pc, #4]	; (8005620 <mchar_setDraw+0x8>)
 800561a:	6018      	str	r0, [r3, #0]
 800561c:	4770      	bx	lr
 800561e:	46c0      	nop			; (mov r8, r8)
 8005620:	030001fc 	.word	0x030001fc

08005624 <mchar_draw>:
 8005624:	b5f8      	push	{r3, r4, r5, r6, r7, lr}
 8005626:	4d10      	ldr	r5, [pc, #64]	; (8005668 <mchar_draw+0x44>)
 8005628:	682b      	ldr	r3, [r5, #0]
 800562a:	2b00      	cmp	r3, #0
 800562c:	d019      	beq.n	8005662 <mchar_draw+0x3e>
 800562e:	785a      	ldrb	r2, [r3, #1]
 8005630:	2a00      	cmp	r2, #0
 8005632:	d016      	beq.n	8005662 <mchar_draw+0x3e>
 8005634:	2400      	movs	r4, #0
 8005636:	2726      	movs	r7, #38	; 0x26
 8005638:	2602      	movs	r6, #2
 800563a:	e004      	b.n	8005646 <mchar_draw+0x22>
 800563c:	682b      	ldr	r3, [r5, #0]
 800563e:	785a      	ldrb	r2, [r3, #1]
 8005640:	3401      	adds	r4, #1
 8005642:	42a2      	cmp	r2, r4
 8005644:	dd0d      	ble.n	8005662 <mchar_draw+0x3e>
 8005646:	685b      	ldr	r3, [r3, #4]
 8005648:	00a2      	lsls	r2, r4, #2
 800564a:	58d0      	ldr	r0, [r2, r3]
 800564c:	5dc3      	ldrb	r3, [r0, r7]
 800564e:	421e      	tst	r6, r3
 8005650:	d0f4      	beq.n	800563c <mchar_draw+0x18>
 8005652:	301c      	adds	r0, #28
 8005654:	f7fb ff82 	bl	800155c <commonDrawDisplay>
 8005658:	682b      	ldr	r3, [r5, #0]
 800565a:	785a      	ldrb	r2, [r3, #1]
 800565c:	3401      	adds	r4, #1
 800565e:	42a2      	cmp	r2, r4
 8005660:	dcf1      	bgt.n	8005646 <mchar_draw+0x22>
 8005662:	bcf8      	pop	{r3, r4, r5, r6, r7}
 8005664:	bc01      	pop	{r0}
 8005666:	4700      	bx	r0
 8005668:	030001fc 	.word	0x030001fc

0800566c <mchar_init>:
 800566c:	b5f0      	push	{r4, r5, r6, r7, lr}
 800566e:	46c6      	mov	lr, r8
 8005670:	0005      	movs	r5, r0
 8005672:	4688      	mov	r8, r1
 8005674:	b500      	push	{lr}
 8005676:	2800      	cmp	r0, #0
 8005678:	d020      	beq.n	80056bc <mchar_init+0x50>
 800567a:	7001      	strb	r1, [r0, #0]
 800567c:	4a12      	ldr	r2, [pc, #72]	; (80056c8 <mchar_init+0x5c>)
 800567e:	6803      	ldr	r3, [r0, #0]
 8005680:	008c      	lsls	r4, r1, #2
 8005682:	4013      	ands	r3, r2
 8005684:	6003      	str	r3, [r0, #0]
 8005686:	0020      	movs	r0, r4
 8005688:	f002 feb6 	bl	80083f8 <__malloc_from_thumb>
 800568c:	6068      	str	r0, [r5, #4]
 800568e:	0007      	movs	r7, r0
 8005690:	0020      	movs	r0, r4
 8005692:	f002 feb1 	bl	80083f8 <__malloc_from_thumb>
 8005696:	4643      	mov	r3, r8
 8005698:	60a8      	str	r0, [r5, #8]
 800569a:	2b00      	cmp	r3, #0
 800569c:	dd0e      	ble.n	80056bc <mchar_init+0x50>
 800569e:	2400      	movs	r4, #0
 80056a0:	e000      	b.n	80056a4 <mchar_init+0x38>
 80056a2:	686f      	ldr	r7, [r5, #4]
 80056a4:	2054      	movs	r0, #84	; 0x54
 80056a6:	f002 fea7 	bl	80083f8 <__malloc_from_thumb>
 80056aa:	00a6      	lsls	r6, r4, #2
 80056ac:	51b8      	str	r0, [r7, r6]
 80056ae:	686b      	ldr	r3, [r5, #4]
 80056b0:	3401      	adds	r4, #1
 80056b2:	5998      	ldr	r0, [r3, r6]
 80056b4:	f7fb fd66 	bl	8001184 <commonRemoveCharacter>
 80056b8:	45a0      	cmp	r8, r4
 80056ba:	d1f2      	bne.n	80056a2 <mchar_init+0x36>
 80056bc:	bc80      	pop	{r7}
 80056be:	46b8      	mov	r8, r7
 80056c0:	bcf0      	pop	{r4, r5, r6, r7}
 80056c2:	bc01      	pop	{r0}
 80056c4:	4700      	bx	r0
 80056c6:	46c0      	nop			; (mov r8, r8)
 80056c8:	ff0000ff 	.word	0xff0000ff

080056cc <mchar_getPlayerCharacter>:
 80056cc:	b570      	push	{r4, r5, r6, lr}
 80056ce:	0004      	movs	r4, r0
 80056d0:	000d      	movs	r5, r1
 80056d2:	7843      	ldrb	r3, [r0, #1]
 80056d4:	0011      	movs	r1, r2
 80056d6:	6842      	ldr	r2, [r0, #4]
 80056d8:	009b      	lsls	r3, r3, #2
 80056da:	5898      	ldr	r0, [r3, r2]
 80056dc:	f7fb f99e 	bl	8000a1c <alisa_init>
 80056e0:	7863      	ldrb	r3, [r4, #1]
 80056e2:	6862      	ldr	r2, [r4, #4]
 80056e4:	009b      	lsls	r3, r3, #2
 80056e6:	589b      	ldr	r3, [r3, r2]
 80056e8:	602b      	str	r3, [r5, #0]
 80056ea:	7863      	ldrb	r3, [r4, #1]
 80056ec:	3301      	adds	r3, #1
 80056ee:	7063      	strb	r3, [r4, #1]
 80056f0:	bc70      	pop	{r4, r5, r6}
 80056f2:	bc01      	pop	{r0}
 80056f4:	4700      	bx	r0
 80056f6:	46c0      	nop			; (mov r8, r8)

080056f8 <mchar_reinit>:
 80056f8:	b5f8      	push	{r3, r4, r5, r6, r7, lr}
 80056fa:	4647      	mov	r7, r8
 80056fc:	46ce      	mov	lr, r9
 80056fe:	b580      	push	{r7, lr}
 8005700:	7843      	ldrb	r3, [r0, #1]
 8005702:	0005      	movs	r5, r0
 8005704:	4688      	mov	r8, r1
 8005706:	2b00      	cmp	r3, #0
 8005708:	d01c      	beq.n	8005744 <mchar_reinit+0x4c>
 800570a:	2400      	movs	r4, #0
 800570c:	2631      	movs	r6, #49	; 0x31
 800570e:	e003      	b.n	8005718 <mchar_reinit+0x20>
 8005710:	786b      	ldrb	r3, [r5, #1]
 8005712:	3401      	adds	r4, #1
 8005714:	42a3      	cmp	r3, r4
 8005716:	dd15      	ble.n	8005744 <mchar_reinit+0x4c>
 8005718:	6868      	ldr	r0, [r5, #4]
 800571a:	00a1      	lsls	r1, r4, #2
 800571c:	1842      	adds	r2, r0, r1
 800571e:	6813      	ldr	r3, [r2, #0]
 8005720:	579f      	ldrsb	r7, [r3, r6]
 8005722:	2f01      	cmp	r7, #1
 8005724:	dc04      	bgt.n	8005730 <mchar_reinit+0x38>
 8005726:	4699      	mov	r9, r3
 8005728:	6800      	ldr	r0, [r0, #0]
 800572a:	6010      	str	r0, [r2, #0]
 800572c:	686a      	ldr	r2, [r5, #4]
 800572e:	6013      	str	r3, [r2, #0]
 8005730:	2c00      	cmp	r4, #0
 8005732:	d0ed      	beq.n	8005710 <mchar_reinit+0x18>
 8005734:	686b      	ldr	r3, [r5, #4]
 8005736:	5858      	ldr	r0, [r3, r1]
 8005738:	f7fb fd24 	bl	8001184 <commonRemoveCharacter>
 800573c:	786b      	ldrb	r3, [r5, #1]
 800573e:	3401      	adds	r4, #1
 8005740:	42a3      	cmp	r3, r4
 8005742:	dce9      	bgt.n	8005718 <mchar_reinit+0x20>
 8005744:	2301      	movs	r3, #1
 8005746:	464a      	mov	r2, r9
 8005748:	706b      	strb	r3, [r5, #1]
 800574a:	4643      	mov	r3, r8
 800574c:	601a      	str	r2, [r3, #0]
 800574e:	bcc0      	pop	{r6, r7}
 8005750:	46b9      	mov	r9, r7
 8005752:	46b0      	mov	r8, r6
 8005754:	bcf8      	pop	{r3, r4, r5, r6, r7}
 8005756:	bc01      	pop	{r0}
 8005758:	4700      	bx	r0
 800575a:	46c0      	nop			; (mov r8, r8)

0800575c <mchar_action>:
 800575c:	b570      	push	{r4, r5, r6, lr}
 800575e:	0004      	movs	r4, r0
 8005760:	000e      	movs	r6, r1
 8005762:	2800      	cmp	r0, #0
 8005764:	d012      	beq.n	800578c <mchar_action+0x30>
 8005766:	7883      	ldrb	r3, [r0, #2]
 8005768:	2b00      	cmp	r3, #0
 800576a:	d112      	bne.n	8005792 <mchar_action+0x36>
 800576c:	7843      	ldrb	r3, [r0, #1]
 800576e:	2b00      	cmp	r3, #0
 8005770:	d00c      	beq.n	800578c <mchar_action+0x30>
 8005772:	2500      	movs	r5, #0
 8005774:	6863      	ldr	r3, [r4, #4]
 8005776:	00aa      	lsls	r2, r5, #2
 8005778:	58d0      	ldr	r0, [r2, r3]
 800577a:	0031      	movs	r1, r6
 800577c:	6803      	ldr	r3, [r0, #0]
 800577e:	0022      	movs	r2, r4
 8005780:	f000 f9be 	bl	8005b00 <mchar_getControlType+0x2c>
 8005784:	7863      	ldrb	r3, [r4, #1]
 8005786:	3501      	adds	r5, #1
 8005788:	42ab      	cmp	r3, r5
 800578a:	dcf3      	bgt.n	8005774 <mchar_action+0x18>
 800578c:	bc70      	pop	{r4, r5, r6}
 800578e:	bc01      	pop	{r0}
 8005790:	4700      	bx	r0
 8005792:	2500      	movs	r5, #0
 8005794:	68a3      	ldr	r3, [r4, #8]
 8005796:	00aa      	lsls	r2, r5, #2
 8005798:	58d0      	ldr	r0, [r2, r3]
 800579a:	0031      	movs	r1, r6
 800579c:	6803      	ldr	r3, [r0, #0]
 800579e:	0022      	movs	r2, r4
 80057a0:	f000 f9ae 	bl	8005b00 <mchar_getControlType+0x2c>
 80057a4:	78a3      	ldrb	r3, [r4, #2]
 80057a6:	3501      	adds	r5, #1
 80057a8:	42ab      	cmp	r3, r5
 80057aa:	dcf3      	bgt.n	8005794 <mchar_action+0x38>
 80057ac:	e7ee      	b.n	800578c <mchar_action+0x30>
 80057ae:	46c0      	nop			; (mov r8, r8)

080057b0 <mchar_resolveAction>:
 80057b0:	b5f0      	push	{r4, r5, r6, r7, lr}
 80057b2:	4657      	mov	r7, sl
 80057b4:	464e      	mov	r6, r9
 80057b6:	46de      	mov	lr, fp
 80057b8:	4645      	mov	r5, r8
 80057ba:	b5e0      	push	{r5, r6, r7, lr}
 80057bc:	0004      	movs	r4, r0
 80057be:	000e      	movs	r6, r1
 80057c0:	0017      	movs	r7, r2
 80057c2:	b085      	sub	sp, #20
 80057c4:	2800      	cmp	r0, #0
 80057c6:	d100      	bne.n	80057ca <mchar_resolveAction+0x1a>
 80057c8:	e0b5      	b.n	8005936 <mchar_resolveAction+0x186>
 80057ca:	7843      	ldrb	r3, [r0, #1]
 80057cc:	6841      	ldr	r1, [r0, #4]
 80057ce:	2b01      	cmp	r3, #1
 80057d0:	d925      	bls.n	800581e <mchar_resolveAction+0x6e>
 80057d2:	2000      	movs	r0, #0
 80057d4:	2200      	movs	r2, #0
 80057d6:	46a0      	mov	r8, r4
 80057d8:	46b1      	mov	r9, r6
 80057da:	46ba      	mov	sl, r7
 80057dc:	469c      	mov	ip, r3
 80057de:	9000      	str	r0, [sp, #0]
 80057e0:	9b00      	ldr	r3, [sp, #0]
 80057e2:	18cc      	adds	r4, r1, r3
 80057e4:	6823      	ldr	r3, [r4, #0]
 80057e6:	203e      	movs	r0, #62	; 0x3e
 80057e8:	5e1f      	ldrsh	r7, [r3, r0]
 80057ea:	46bb      	mov	fp, r7
 80057ec:	3201      	adds	r2, #1
 80057ee:	0095      	lsls	r5, r2, #2
 80057f0:	594e      	ldr	r6, [r1, r5]
 80057f2:	203e      	movs	r0, #62	; 0x3e
 80057f4:	5e37      	ldrsh	r7, [r6, r0]
 80057f6:	45bb      	cmp	fp, r7
 80057f8:	da07      	bge.n	800580a <mchar_resolveAction+0x5a>
 80057fa:	4641      	mov	r1, r8
 80057fc:	6026      	str	r6, [r4, #0]
 80057fe:	6849      	ldr	r1, [r1, #4]
 8005800:	514b      	str	r3, [r1, r5]
 8005802:	4643      	mov	r3, r8
 8005804:	6859      	ldr	r1, [r3, #4]
 8005806:	785b      	ldrb	r3, [r3, #1]
 8005808:	469c      	mov	ip, r3
 800580a:	9b00      	ldr	r3, [sp, #0]
 800580c:	3304      	adds	r3, #4
 800580e:	9300      	str	r3, [sp, #0]
 8005810:	4663      	mov	r3, ip
 8005812:	1e5d      	subs	r5, r3, #1
 8005814:	4295      	cmp	r5, r2
 8005816:	dce3      	bgt.n	80057e0 <mchar_resolveAction+0x30>
 8005818:	4644      	mov	r4, r8
 800581a:	464e      	mov	r6, r9
 800581c:	4657      	mov	r7, sl
 800581e:	4a58      	ldr	r2, [pc, #352]	; (8005980 <mchar_resolveAction+0x1d0>)
 8005820:	189a      	adds	r2, r3, r2
 8005822:	0092      	lsls	r2, r2, #2
 8005824:	5850      	ldr	r0, [r2, r1]
 8005826:	2231      	movs	r2, #49	; 0x31
 8005828:	5682      	ldrsb	r2, [r0, r2]
 800582a:	3201      	adds	r2, #1
 800582c:	d100      	bne.n	8005830 <mchar_resolveAction+0x80>
 800582e:	e09f      	b.n	8005970 <mchar_resolveAction+0x1c0>
 8005830:	78a3      	ldrb	r3, [r4, #2]
 8005832:	2b00      	cmp	r3, #0
 8005834:	d000      	beq.n	8005838 <mchar_resolveAction+0x88>
 8005836:	e087      	b.n	8005948 <mchar_resolveAction+0x198>
 8005838:	7863      	ldrb	r3, [r4, #1]
 800583a:	2b00      	cmp	r3, #0
 800583c:	d07b      	beq.n	8005936 <mchar_resolveAction+0x186>
 800583e:	46b8      	mov	r8, r7
 8005840:	2500      	movs	r5, #0
 8005842:	0037      	movs	r7, r6
 8005844:	e000      	b.n	8005848 <mchar_resolveAction+0x98>
 8005846:	6861      	ldr	r1, [r4, #4]
 8005848:	00ab      	lsls	r3, r5, #2
 800584a:	5858      	ldr	r0, [r3, r1]
 800584c:	0022      	movs	r2, r4
 800584e:	4643      	mov	r3, r8
 8005850:	0039      	movs	r1, r7
 8005852:	6846      	ldr	r6, [r0, #4]
 8005854:	f000 f956 	bl	8005b04 <mchar_getControlType+0x30>
 8005858:	7863      	ldrb	r3, [r4, #1]
 800585a:	3501      	adds	r5, #1
 800585c:	42ab      	cmp	r3, r5
 800585e:	dcf2      	bgt.n	8005846 <mchar_resolveAction+0x96>
 8005860:	003e      	movs	r6, r7
 8005862:	4647      	mov	r7, r8
 8005864:	2b00      	cmp	r3, #0
 8005866:	d066      	beq.n	8005936 <mchar_resolveAction+0x186>
 8005868:	2201      	movs	r2, #1
 800586a:	4252      	negs	r2, r2
 800586c:	4691      	mov	r9, r2
 800586e:	aa02      	add	r2, sp, #8
 8005870:	1dd5      	adds	r5, r2, #7
 8005872:	2200      	movs	r2, #0
 8005874:	46b2      	mov	sl, r6
 8005876:	4693      	mov	fp, r2
 8005878:	9200      	str	r2, [sp, #0]
 800587a:	9701      	str	r7, [sp, #4]
 800587c:	465a      	mov	r2, fp
 800587e:	9900      	ldr	r1, [sp, #0]
 8005880:	702a      	strb	r2, [r5, #0]
 8005882:	6862      	ldr	r2, [r4, #4]
 8005884:	0089      	lsls	r1, r1, #2
 8005886:	588e      	ldr	r6, [r1, r2]
 8005888:	4649      	mov	r1, r9
 800588a:	464f      	mov	r7, r9
 800588c:	3101      	adds	r1, #1
 800588e:	d012      	beq.n	80058b6 <mchar_resolveAction+0x106>
 8005890:	46a0      	mov	r8, r4
 8005892:	e003      	b.n	800589c <mchar_resolveAction+0xec>
 8005894:	3f01      	subs	r7, #1
 8005896:	d30c      	bcc.n	80058b2 <mchar_resolveAction+0x102>
 8005898:	4643      	mov	r3, r8
 800589a:	685a      	ldr	r2, [r3, #4]
 800589c:	00bb      	lsls	r3, r7, #2
 800589e:	589b      	ldr	r3, [r3, r2]
 80058a0:	2101      	movs	r1, #1
 80058a2:	002a      	movs	r2, r5
 80058a4:	0030      	movs	r0, r6
 80058a6:	6934      	ldr	r4, [r6, #16]
 80058a8:	f000 f92b 	bl	8005b02 <mchar_getControlType+0x2e>
 80058ac:	782b      	ldrb	r3, [r5, #0]
 80058ae:	2b00      	cmp	r3, #0
 80058b0:	d1f0      	bne.n	8005894 <mchar_resolveAction+0xe4>
 80058b2:	4644      	mov	r4, r8
 80058b4:	7863      	ldrb	r3, [r4, #1]
 80058b6:	9a00      	ldr	r2, [sp, #0]
 80058b8:	3201      	adds	r2, #1
 80058ba:	9200      	str	r2, [sp, #0]
 80058bc:	429a      	cmp	r2, r3
 80058be:	da1c      	bge.n	80058fa <mchar_resolveAction+0x14a>
 80058c0:	0017      	movs	r7, r2
 80058c2:	46a0      	mov	r8, r4
 80058c4:	e004      	b.n	80058d0 <mchar_resolveAction+0x120>
 80058c6:	4643      	mov	r3, r8
 80058c8:	785b      	ldrb	r3, [r3, #1]
 80058ca:	3701      	adds	r7, #1
 80058cc:	42bb      	cmp	r3, r7
 80058ce:	dd55      	ble.n	800597c <mchar_resolveAction+0x1cc>
 80058d0:	4643      	mov	r3, r8
 80058d2:	685b      	ldr	r3, [r3, #4]
 80058d4:	00ba      	lsls	r2, r7, #2
 80058d6:	58d3      	ldr	r3, [r2, r3]
 80058d8:	2100      	movs	r1, #0
 80058da:	002a      	movs	r2, r5
 80058dc:	0030      	movs	r0, r6
 80058de:	6934      	ldr	r4, [r6, #16]
 80058e0:	f000 f90f 	bl	8005b02 <mchar_getControlType+0x2e>
 80058e4:	782b      	ldrb	r3, [r5, #0]
 80058e6:	2b00      	cmp	r3, #0
 80058e8:	d1ed      	bne.n	80058c6 <mchar_resolveAction+0x116>
 80058ea:	4644      	mov	r4, r8
 80058ec:	7863      	ldrb	r3, [r4, #1]
 80058ee:	2201      	movs	r2, #1
 80058f0:	4694      	mov	ip, r2
 80058f2:	9a00      	ldr	r2, [sp, #0]
 80058f4:	44e1      	add	r9, ip
 80058f6:	429a      	cmp	r2, r3
 80058f8:	dbc0      	blt.n	800587c <mchar_resolveAction+0xcc>
 80058fa:	4656      	mov	r6, sl
 80058fc:	9f01      	ldr	r7, [sp, #4]
 80058fe:	2b00      	cmp	r3, #0
 8005900:	d019      	beq.n	8005936 <mchar_resolveAction+0x186>
 8005902:	2500      	movs	r5, #0
 8005904:	6863      	ldr	r3, [r4, #4]
 8005906:	00aa      	lsls	r2, r5, #2
 8005908:	58d0      	ldr	r0, [r2, r3]
 800590a:	0031      	movs	r1, r6
 800590c:	6943      	ldr	r3, [r0, #20]
 800590e:	f000 f8f7 	bl	8005b00 <mchar_getControlType+0x2c>
 8005912:	7863      	ldrb	r3, [r4, #1]
 8005914:	3501      	adds	r5, #1
 8005916:	42ab      	cmp	r3, r5
 8005918:	dcf4      	bgt.n	8005904 <mchar_resolveAction+0x154>
 800591a:	2b00      	cmp	r3, #0
 800591c:	d00b      	beq.n	8005936 <mchar_resolveAction+0x186>
 800591e:	2500      	movs	r5, #0
 8005920:	6863      	ldr	r3, [r4, #4]
 8005922:	00aa      	lsls	r2, r5, #2
 8005924:	58d0      	ldr	r0, [r2, r3]
 8005926:	0039      	movs	r1, r7
 8005928:	6983      	ldr	r3, [r0, #24]
 800592a:	f000 f8e9 	bl	8005b00 <mchar_getControlType+0x2c>
 800592e:	7863      	ldrb	r3, [r4, #1]
 8005930:	3501      	adds	r5, #1
 8005932:	42ab      	cmp	r3, r5
 8005934:	dcf4      	bgt.n	8005920 <mchar_resolveAction+0x170>
 8005936:	b005      	add	sp, #20
 8005938:	bcf0      	pop	{r4, r5, r6, r7}
 800593a:	46bb      	mov	fp, r7
 800593c:	46b2      	mov	sl, r6
 800593e:	46a9      	mov	r9, r5
 8005940:	46a0      	mov	r8, r4
 8005942:	bcf0      	pop	{r4, r5, r6, r7}
 8005944:	bc01      	pop	{r0}
 8005946:	4700      	bx	r0
 8005948:	46b8      	mov	r8, r7
 800594a:	2500      	movs	r5, #0
 800594c:	0037      	movs	r7, r6
 800594e:	68a3      	ldr	r3, [r4, #8]
 8005950:	00aa      	lsls	r2, r5, #2
 8005952:	58d0      	ldr	r0, [r2, r3]
 8005954:	0039      	movs	r1, r7
 8005956:	4643      	mov	r3, r8
 8005958:	0022      	movs	r2, r4
 800595a:	6846      	ldr	r6, [r0, #4]
 800595c:	f000 f8d2 	bl	8005b04 <mchar_getControlType+0x30>
 8005960:	78a3      	ldrb	r3, [r4, #2]
 8005962:	3501      	adds	r5, #1
 8005964:	42ab      	cmp	r3, r5
 8005966:	dcf2      	bgt.n	800594e <mchar_resolveAction+0x19e>
 8005968:	003e      	movs	r6, r7
 800596a:	7863      	ldrb	r3, [r4, #1]
 800596c:	4647      	mov	r7, r8
 800596e:	e779      	b.n	8005864 <mchar_resolveAction+0xb4>
 8005970:	3b01      	subs	r3, #1
 8005972:	7063      	strb	r3, [r4, #1]
 8005974:	78a3      	ldrb	r3, [r4, #2]
 8005976:	2b00      	cmp	r3, #0
 8005978:	d1e6      	bne.n	8005948 <mchar_resolveAction+0x198>
 800597a:	e75d      	b.n	8005838 <mchar_resolveAction+0x88>
 800597c:	4644      	mov	r4, r8
 800597e:	e7b6      	b.n	80058ee <mchar_resolveAction+0x13e>
 8005980:	3fffffff 	.word	0x3fffffff

08005984 <mchar_checkCollisionAbove>:
 8005984:	4770      	bx	lr
 8005986:	46c0      	nop			; (mov r8, r8)

08005988 <mchar_checkCollisionBelow>:
 8005988:	4770      	bx	lr
 800598a:	46c0      	nop			; (mov r8, r8)

0800598c <mchar_setPosition>:
 800598c:	b5f8      	push	{r3, r4, r5, r6, r7, lr}
 800598e:	464e      	mov	r6, r9
 8005990:	46de      	mov	lr, fp
 8005992:	4657      	mov	r7, sl
 8005994:	4645      	mov	r5, r8
 8005996:	4689      	mov	r9, r1
 8005998:	b5e0      	push	{r5, r6, r7, lr}
 800599a:	4692      	mov	sl, r2
 800599c:	1e06      	subs	r6, r0, #0
 800599e:	469b      	mov	fp, r3
 80059a0:	d028      	beq.n	80059f4 <mchar_setPosition+0x68>
 80059a2:	7845      	ldrb	r5, [r0, #1]
 80059a4:	2400      	movs	r4, #0
 80059a6:	684f      	ldr	r7, [r1, #4]
 80059a8:	2d00      	cmp	r5, #0
 80059aa:	d012      	beq.n	80059d2 <mchar_setPosition+0x46>
 80059ac:	2500      	movs	r5, #0
 80059ae:	6873      	ldr	r3, [r6, #4]
 80059b0:	00aa      	lsls	r2, r5, #2
 80059b2:	58d0      	ldr	r0, [r2, r3]
 80059b4:	6883      	ldr	r3, [r0, #8]
 80059b6:	00e1      	lsls	r1, r4, #3
 80059b8:	4698      	mov	r8, r3
 80059ba:	4652      	mov	r2, sl
 80059bc:	465b      	mov	r3, fp
 80059be:	1879      	adds	r1, r7, r1
 80059c0:	f000 f8a1 	bl	8005b06 <mchar_getControlType+0x32>
 80059c4:	7873      	ldrb	r3, [r6, #1]
 80059c6:	3501      	adds	r5, #1
 80059c8:	1824      	adds	r4, r4, r0
 80059ca:	42ab      	cmp	r3, r5
 80059cc:	dcef      	bgt.n	80059ae <mchar_setPosition+0x22>
 80059ce:	0625      	lsls	r5, r4, #24
 80059d0:	0e2d      	lsrs	r5, r5, #24
 80059d2:	464b      	mov	r3, r9
 80059d4:	785b      	ldrb	r3, [r3, #1]
 80059d6:	42a3      	cmp	r3, r4
 80059d8:	dd0a      	ble.n	80059f0 <mchar_setPosition+0x64>
 80059da:	4a0a      	ldr	r2, [pc, #40]	; (8005a04 <mchar_setPosition+0x78>)
 80059dc:	0011      	movs	r1, r2
 80059de:	00e3      	lsls	r3, r4, #3
 80059e0:	18fb      	adds	r3, r7, r3
 80059e2:	c941      	ldmia	r1!, {r0, r6}
 80059e4:	c341      	stmia	r3!, {r0, r6}
 80059e6:	464b      	mov	r3, r9
 80059e8:	785b      	ldrb	r3, [r3, #1]
 80059ea:	3401      	adds	r4, #1
 80059ec:	42a3      	cmp	r3, r4
 80059ee:	dcf5      	bgt.n	80059dc <mchar_setPosition+0x50>
 80059f0:	464b      	mov	r3, r9
 80059f2:	705d      	strb	r5, [r3, #1]
 80059f4:	bcf0      	pop	{r4, r5, r6, r7}
 80059f6:	46bb      	mov	fp, r7
 80059f8:	46b2      	mov	sl, r6
 80059fa:	46a9      	mov	r9, r5
 80059fc:	46a0      	mov	r8, r4
 80059fe:	bcf8      	pop	{r3, r4, r5, r6, r7}
 8005a00:	bc01      	pop	{r0}
 8005a02:	4700      	bx	r0
 8005a04:	08008df4 	.word	0x08008df4

08005a08 <mchar_findCharacterType>:
 8005a08:	b570      	push	{r4, r5, r6, lr}
 8005a0a:	2800      	cmp	r0, #0
 8005a0c:	d011      	beq.n	8005a32 <mchar_findCharacterType+0x2a>
 8005a0e:	7844      	ldrb	r4, [r0, #1]
 8005a10:	2c00      	cmp	r4, #0
 8005a12:	d00e      	beq.n	8005a32 <mchar_findCharacterType+0x2a>
 8005a14:	2300      	movs	r3, #0
 8005a16:	2531      	movs	r5, #49	; 0x31
 8005a18:	6846      	ldr	r6, [r0, #4]
 8005a1a:	e002      	b.n	8005a22 <mchar_findCharacterType+0x1a>
 8005a1c:	3301      	adds	r3, #1
 8005a1e:	42a3      	cmp	r3, r4
 8005a20:	da07      	bge.n	8005a32 <mchar_findCharacterType+0x2a>
 8005a22:	009a      	lsls	r2, r3, #2
 8005a24:	58b0      	ldr	r0, [r6, r2]
 8005a26:	5742      	ldrsb	r2, [r0, r5]
 8005a28:	428a      	cmp	r2, r1
 8005a2a:	d1f7      	bne.n	8005a1c <mchar_findCharacterType+0x14>
 8005a2c:	bc70      	pop	{r4, r5, r6}
 8005a2e:	bc02      	pop	{r1}
 8005a30:	4708      	bx	r1
 8005a32:	2000      	movs	r0, #0
 8005a34:	e7fa      	b.n	8005a2c <mchar_findCharacterType+0x24>
 8005a36:	46c0      	nop			; (mov r8, r8)

08005a38 <mchar_resetControlType>:
 8005a38:	7803      	ldrb	r3, [r0, #0]
 8005a3a:	b570      	push	{r4, r5, r6, lr}
 8005a3c:	069b      	lsls	r3, r3, #26
 8005a3e:	d013      	beq.n	8005a68 <mchar_resetControlType+0x30>
 8005a40:	2300      	movs	r3, #0
 8005a42:	2100      	movs	r1, #0
 8005a44:	2507      	movs	r5, #7
 8005a46:	6844      	ldr	r4, [r0, #4]
 8005a48:	5ce2      	ldrb	r2, [r4, r3]
 8005a4a:	43aa      	bics	r2, r5
 8005a4c:	54e2      	strb	r2, [r4, r3]
 8005a4e:	6844      	ldr	r4, [r0, #4]
 8005a50:	5ce2      	ldrb	r2, [r4, r3]
 8005a52:	00ce      	lsls	r6, r1, #3
 8005a54:	402a      	ands	r2, r5
 8005a56:	4332      	orrs	r2, r6
 8005a58:	54e2      	strb	r2, [r4, r3]
 8005a5a:	7802      	ldrb	r2, [r0, #0]
 8005a5c:	3101      	adds	r1, #1
 8005a5e:	0692      	lsls	r2, r2, #26
 8005a60:	332c      	adds	r3, #44	; 0x2c
 8005a62:	0e92      	lsrs	r2, r2, #26
 8005a64:	428a      	cmp	r2, r1
 8005a66:	dcee      	bgt.n	8005a46 <mchar_resetControlType+0xe>
 8005a68:	8803      	ldrh	r3, [r0, #0]
 8005a6a:	4a03      	ldr	r2, [pc, #12]	; (8005a78 <mchar_resetControlType+0x40>)
 8005a6c:	4013      	ands	r3, r2
 8005a6e:	8003      	strh	r3, [r0, #0]
 8005a70:	bc70      	pop	{r4, r5, r6}
 8005a72:	bc01      	pop	{r0}
 8005a74:	4700      	bx	r0
 8005a76:	46c0      	nop			; (mov r8, r8)
 8005a78:	fffff03f 	.word	0xfffff03f

08005a7c <mchar_initControlType>:
 8005a7c:	223f      	movs	r2, #63	; 0x3f
 8005a7e:	b570      	push	{r4, r5, r6, lr}
 8005a80:	7803      	ldrb	r3, [r0, #0]
 8005a82:	4393      	bics	r3, r2
 8005a84:	2220      	movs	r2, #32
 8005a86:	4313      	orrs	r3, r2
 8005a88:	7003      	strb	r3, [r0, #0]
 8005a8a:	0004      	movs	r4, r0
 8005a8c:	20b0      	movs	r0, #176	; 0xb0
 8005a8e:	00c0      	lsls	r0, r0, #3
 8005a90:	f002 fcb2 	bl	80083f8 <__malloc_from_thumb>
 8005a94:	2300      	movs	r3, #0
 8005a96:	2101      	movs	r1, #1
 8005a98:	2507      	movs	r5, #7
 8005a9a:	6060      	str	r0, [r4, #4]
 8005a9c:	7003      	strb	r3, [r0, #0]
 8005a9e:	332c      	adds	r3, #44	; 0x2c
 8005aa0:	6860      	ldr	r0, [r4, #4]
 8005aa2:	5cc2      	ldrb	r2, [r0, r3]
 8005aa4:	43aa      	bics	r2, r5
 8005aa6:	54c2      	strb	r2, [r0, r3]
 8005aa8:	6860      	ldr	r0, [r4, #4]
 8005aaa:	5cc2      	ldrb	r2, [r0, r3]
 8005aac:	00ce      	lsls	r6, r1, #3
 8005aae:	402a      	ands	r2, r5
 8005ab0:	4332      	orrs	r2, r6
 8005ab2:	54c2      	strb	r2, [r0, r3]
 8005ab4:	7822      	ldrb	r2, [r4, #0]
 8005ab6:	3101      	adds	r1, #1
 8005ab8:	0692      	lsls	r2, r2, #26
 8005aba:	332c      	adds	r3, #44	; 0x2c
 8005abc:	0e92      	lsrs	r2, r2, #26
 8005abe:	4291      	cmp	r1, r2
 8005ac0:	dbee      	blt.n	8005aa0 <mchar_initControlType+0x24>
 8005ac2:	8823      	ldrh	r3, [r4, #0]
 8005ac4:	4a02      	ldr	r2, [pc, #8]	; (8005ad0 <mchar_initControlType+0x54>)
 8005ac6:	4013      	ands	r3, r2
 8005ac8:	8023      	strh	r3, [r4, #0]
 8005aca:	bc70      	pop	{r4, r5, r6}
 8005acc:	bc01      	pop	{r0}
 8005ace:	4700      	bx	r0
 8005ad0:	fffff03f 	.word	0xfffff03f

08005ad4 <mchar_getControlType>:
 8005ad4:	b510      	push	{r4, lr}
 8005ad6:	242c      	movs	r4, #44	; 0x2c
 8005ad8:	8803      	ldrh	r3, [r0, #0]
 8005ada:	051a      	lsls	r2, r3, #20
 8005adc:	0e92      	lsrs	r2, r2, #26
 8005ade:	4354      	muls	r4, r2
 8005ae0:	0001      	movs	r1, r0
 8005ae2:	6840      	ldr	r0, [r0, #4]
 8005ae4:	1900      	adds	r0, r0, r4
 8005ae6:	243f      	movs	r4, #63	; 0x3f
 8005ae8:	3201      	adds	r2, #1
 8005aea:	4022      	ands	r2, r4
 8005aec:	4c03      	ldr	r4, [pc, #12]	; (8005afc <mchar_getControlType+0x28>)
 8005aee:	0192      	lsls	r2, r2, #6
 8005af0:	4023      	ands	r3, r4
 8005af2:	4313      	orrs	r3, r2
 8005af4:	800b      	strh	r3, [r1, #0]
 8005af6:	bc10      	pop	{r4}
 8005af8:	bc02      	pop	{r1}
 8005afa:	4708      	bx	r1
 8005afc:	fffff03f 	.word	0xfffff03f
 8005b00:	4718      	bx	r3
 8005b02:	4720      	bx	r4
 8005b04:	4730      	bx	r6
 8005b06:	4740      	bx	r8

08005b08 <mchar_actione_init>:
 8005b08:	b5f8      	push	{r3, r4, r5, r6, r7, lr}
 8005b0a:	2300      	movs	r3, #0
 8005b0c:	0007      	movs	r7, r0
 8005b0e:	7041      	strb	r1, [r0, #1]
 8005b10:	7003      	strb	r3, [r0, #0]
 8005b12:	2034      	movs	r0, #52	; 0x34
 8005b14:	4348      	muls	r0, r1
 8005b16:	000e      	movs	r6, r1
 8005b18:	f002 fc6e 	bl	80083f8 <__malloc_from_thumb>
 8005b1c:	6078      	str	r0, [r7, #4]
 8005b1e:	2e00      	cmp	r6, #0
 8005b20:	dd11      	ble.n	8005b46 <mchar_actione_init+0x3e>
 8005b22:	2234      	movs	r2, #52	; 0x34
 8005b24:	2100      	movs	r1, #0
 8005b26:	f002 fc43 	bl	80083b0 <__memset_from_thumb>
 8005b2a:	2534      	movs	r5, #52	; 0x34
 8005b2c:	2401      	movs	r4, #1
 8005b2e:	2e01      	cmp	r6, #1
 8005b30:	d009      	beq.n	8005b46 <mchar_actione_init+0x3e>
 8005b32:	6878      	ldr	r0, [r7, #4]
 8005b34:	2234      	movs	r2, #52	; 0x34
 8005b36:	1940      	adds	r0, r0, r5
 8005b38:	2100      	movs	r1, #0
 8005b3a:	3401      	adds	r4, #1
 8005b3c:	f002 fc38 	bl	80083b0 <__memset_from_thumb>
 8005b40:	3534      	adds	r5, #52	; 0x34
 8005b42:	42a6      	cmp	r6, r4
 8005b44:	d1f5      	bne.n	8005b32 <mchar_actione_init+0x2a>
 8005b46:	bcf8      	pop	{r3, r4, r5, r6, r7}
 8005b48:	bc01      	pop	{r0}
 8005b4a:	4700      	bx	r0

08005b4c <mchar_actione_reinit>:
 8005b4c:	b570      	push	{r4, r5, r6, lr}
 8005b4e:	7803      	ldrb	r3, [r0, #0]
 8005b50:	0006      	movs	r6, r0
 8005b52:	2b00      	cmp	r3, #0
 8005b54:	d00c      	beq.n	8005b70 <mchar_actione_reinit+0x24>
 8005b56:	2500      	movs	r5, #0
 8005b58:	2400      	movs	r4, #0
 8005b5a:	6870      	ldr	r0, [r6, #4]
 8005b5c:	2234      	movs	r2, #52	; 0x34
 8005b5e:	1940      	adds	r0, r0, r5
 8005b60:	2100      	movs	r1, #0
 8005b62:	f002 fc25 	bl	80083b0 <__memset_from_thumb>
 8005b66:	7833      	ldrb	r3, [r6, #0]
 8005b68:	3401      	adds	r4, #1
 8005b6a:	3534      	adds	r5, #52	; 0x34
 8005b6c:	42a3      	cmp	r3, r4
 8005b6e:	dcf4      	bgt.n	8005b5a <mchar_actione_reinit+0xe>
 8005b70:	2300      	movs	r3, #0
 8005b72:	7033      	strb	r3, [r6, #0]
 8005b74:	bc70      	pop	{r4, r5, r6}
 8005b76:	bc01      	pop	{r0}
 8005b78:	4700      	bx	r0
 8005b7a:	46c0      	nop			; (mov r8, r8)

08005b7c <mchar_actione_add>:
 8005b7c:	b5f0      	push	{r4, r5, r6, r7, lr}
 8005b7e:	2434      	movs	r4, #52	; 0x34
 8005b80:	7805      	ldrb	r5, [r0, #0]
 8005b82:	436c      	muls	r4, r5
 8005b84:	6845      	ldr	r5, [r0, #4]
 8005b86:	192d      	adds	r5, r5, r4
 8005b88:	722a      	strb	r2, [r5, #8]
 8005b8a:	221f      	movs	r2, #31
 8005b8c:	7a6c      	ldrb	r4, [r5, #9]
 8005b8e:	7029      	strb	r1, [r5, #0]
 8005b90:	4022      	ands	r2, r4
 8005b92:	0159      	lsls	r1, r3, #5
 8005b94:	430a      	orrs	r2, r1
 8005b96:	9e05      	ldr	r6, [sp, #20]
 8005b98:	4684      	mov	ip, r0
 8005b9a:	726a      	strb	r2, [r5, #9]
 8005b9c:	2b00      	cmp	r3, #0
 8005b9e:	dd09      	ble.n	8005bb4 <mchar_actione_add+0x38>
 8005ba0:	2200      	movs	r2, #0
 8005ba2:	00db      	lsls	r3, r3, #3
 8005ba4:	350c      	adds	r5, #12
 8005ba6:	18a9      	adds	r1, r5, r2
 8005ba8:	18b4      	adds	r4, r6, r2
 8005baa:	3208      	adds	r2, #8
 8005bac:	cc81      	ldmia	r4!, {r0, r7}
 8005bae:	c181      	stmia	r1!, {r0, r7}
 8005bb0:	4293      	cmp	r3, r2
 8005bb2:	d1f8      	bne.n	8005ba6 <mchar_actione_add+0x2a>
 8005bb4:	4663      	mov	r3, ip
 8005bb6:	4662      	mov	r2, ip
 8005bb8:	781b      	ldrb	r3, [r3, #0]
 8005bba:	3301      	adds	r3, #1
 8005bbc:	7013      	strb	r3, [r2, #0]
 8005bbe:	bcf0      	pop	{r4, r5, r6, r7}
 8005bc0:	bc01      	pop	{r0}
 8005bc2:	4700      	bx	r0

08005bc4 <mgame_setUpdater>:
 8005bc4:	2108      	movs	r1, #8
 8005bc6:	4a07      	ldr	r2, [pc, #28]	; (8005be4 <mgame_setUpdater+0x20>)
 8005bc8:	7813      	ldrb	r3, [r2, #0]
 8005bca:	430b      	orrs	r3, r1
 8005bcc:	2101      	movs	r1, #1
 8005bce:	7013      	strb	r3, [r2, #0]
 8005bd0:	4b05      	ldr	r3, [pc, #20]	; (8005be8 <mgame_setUpdater+0x24>)
 8005bd2:	4a06      	ldr	r2, [pc, #24]	; (8005bec <mgame_setUpdater+0x28>)
 8005bd4:	6018      	str	r0, [r3, #0]
 8005bd6:	7813      	ldrb	r3, [r2, #0]
 8005bd8:	430b      	orrs	r3, r1
 8005bda:	7013      	strb	r3, [r2, #0]
 8005bdc:	2201      	movs	r2, #1
 8005bde:	4b04      	ldr	r3, [pc, #16]	; (8005bf0 <mgame_setUpdater+0x2c>)
 8005be0:	801a      	strh	r2, [r3, #0]
 8005be2:	4770      	bx	lr
 8005be4:	04000004 	.word	0x04000004
 8005be8:	03007ffc 	.word	0x03007ffc
 8005bec:	04000200 	.word	0x04000200
 8005bf0:	04000208 	.word	0x04000208

08005bf4 <moam_initBuffer>:
 8005bf4:	7803      	ldrb	r3, [r0, #0]
 8005bf6:	b570      	push	{r4, r5, r6, lr}
 8005bf8:	2b00      	cmp	r3, #0
 8005bfa:	d00b      	beq.n	8005c14 <moam_initBuffer+0x20>
 8005bfc:	2200      	movs	r2, #0
 8005bfe:	4907      	ldr	r1, [pc, #28]	; (8005c1c <moam_initBuffer+0x28>)
 8005c00:	6843      	ldr	r3, [r0, #4]
 8005c02:	00d4      	lsls	r4, r2, #3
 8005c04:	191b      	adds	r3, r3, r4
 8005c06:	000c      	movs	r4, r1
 8005c08:	cc60      	ldmia	r4!, {r5, r6}
 8005c0a:	c360      	stmia	r3!, {r5, r6}
 8005c0c:	7803      	ldrb	r3, [r0, #0]
 8005c0e:	3201      	adds	r2, #1
 8005c10:	4293      	cmp	r3, r2
 8005c12:	dcf5      	bgt.n	8005c00 <moam_initBuffer+0xc>
 8005c14:	bc70      	pop	{r4, r5, r6}
 8005c16:	bc01      	pop	{r0}
 8005c18:	4700      	bx	r0
 8005c1a:	46c0      	nop			; (mov r8, r8)
 8005c1c:	08008df4 	.word	0x08008df4

08005c20 <moam_setUpdate>:
 8005c20:	4b01      	ldr	r3, [pc, #4]	; (8005c28 <moam_setUpdate+0x8>)
 8005c22:	6018      	str	r0, [r3, #0]
 8005c24:	4770      	bx	lr
 8005c26:	46c0      	nop			; (mov r8, r8)
 8005c28:	03000200 	.word	0x03000200

08005c2c <moam_update>:
 8005c2c:	4b09      	ldr	r3, [pc, #36]	; (8005c54 <moam_update+0x28>)
 8005c2e:	681b      	ldr	r3, [r3, #0]
 8005c30:	2b00      	cmp	r3, #0
 8005c32:	d00d      	beq.n	8005c50 <moam_update+0x24>
 8005c34:	2000      	movs	r0, #0
 8005c36:	685a      	ldr	r2, [r3, #4]
 8005c38:	7819      	ldrb	r1, [r3, #0]
 8005c3a:	4b07      	ldr	r3, [pc, #28]	; (8005c58 <moam_update+0x2c>)
 8005c3c:	6098      	str	r0, [r3, #8]
 8005c3e:	601a      	str	r2, [r3, #0]
 8005c40:	22e0      	movs	r2, #224	; 0xe0
 8005c42:	04d2      	lsls	r2, r2, #19
 8005c44:	605a      	str	r2, [r3, #4]
 8005c46:	2284      	movs	r2, #132	; 0x84
 8005c48:	0049      	lsls	r1, r1, #1
 8005c4a:	0612      	lsls	r2, r2, #24
 8005c4c:	430a      	orrs	r2, r1
 8005c4e:	609a      	str	r2, [r3, #8]
 8005c50:	4770      	bx	lr
 8005c52:	46c0      	nop			; (mov r8, r8)
 8005c54:	03000200 	.word	0x03000200
 8005c58:	040000d4 	.word	0x040000d4

08005c5c <mprinter_init>:
 8005c5c:	2200      	movs	r2, #0
 8005c5e:	4b0b      	ldr	r3, [pc, #44]	; (8005c8c <mprinter_init+0x30>)
 8005c60:	490b      	ldr	r1, [pc, #44]	; (8005c90 <mprinter_init+0x34>)
 8005c62:	609a      	str	r2, [r3, #8]
 8005c64:	6019      	str	r1, [r3, #0]
 8005c66:	490b      	ldr	r1, [pc, #44]	; (8005c94 <mprinter_init+0x38>)
 8005c68:	6059      	str	r1, [r3, #4]
 8005c6a:	490b      	ldr	r1, [pc, #44]	; (8005c98 <mprinter_init+0x3c>)
 8005c6c:	6099      	str	r1, [r3, #8]
 8005c6e:	490b      	ldr	r1, [pc, #44]	; (8005c9c <mprinter_init+0x40>)
 8005c70:	609a      	str	r2, [r3, #8]
 8005c72:	6019      	str	r1, [r3, #0]
 8005c74:	490a      	ldr	r1, [pc, #40]	; (8005ca0 <mprinter_init+0x44>)
 8005c76:	6059      	str	r1, [r3, #4]
 8005c78:	490a      	ldr	r1, [pc, #40]	; (8005ca4 <mprinter_init+0x48>)
 8005c7a:	6099      	str	r1, [r3, #8]
 8005c7c:	4b0a      	ldr	r3, [pc, #40]	; (8005ca8 <mprinter_init+0x4c>)
 8005c7e:	490b      	ldr	r1, [pc, #44]	; (8005cac <mprinter_init+0x50>)
 8005c80:	8019      	strh	r1, [r3, #0]
 8005c82:	4b0b      	ldr	r3, [pc, #44]	; (8005cb0 <mprinter_init+0x54>)
 8005c84:	801a      	strh	r2, [r3, #0]
 8005c86:	4b0b      	ldr	r3, [pc, #44]	; (8005cb4 <mprinter_init+0x58>)
 8005c88:	801a      	strh	r2, [r3, #0]
 8005c8a:	4770      	bx	lr
 8005c8c:	040000d4 	.word	0x040000d4
 8005c90:	08008dfc 	.word	0x08008dfc
 8005c94:	050001e0 	.word	0x050001e0
 8005c98:	80000010 	.word	0x80000010
 8005c9c:	08008e1c 	.word	0x08008e1c
 8005ca0:	0600c000 	.word	0x0600c000
 8005ca4:	840005e0 	.word	0x840005e0
 8005ca8:	0400000c 	.word	0x0400000c
 8005cac:	00001b0c 	.word	0x00001b0c
 8005cb0:	04000018 	.word	0x04000018
 8005cb4:	0400001a 	.word	0x0400001a

08005cb8 <mprinter_clear>:
 8005cb8:	b510      	push	{r4, lr}
 8005cba:	b082      	sub	sp, #8
 8005cbc:	466b      	mov	r3, sp
 8005cbe:	2280      	movs	r2, #128	; 0x80
 8005cc0:	2400      	movs	r4, #0
 8005cc2:	1d98      	adds	r0, r3, #6
 8005cc4:	4905      	ldr	r1, [pc, #20]	; (8005cdc <mprinter_clear+0x24>)
 8005cc6:	00d2      	lsls	r2, r2, #3
 8005cc8:	8004      	strh	r4, [r0, #0]
 8005cca:	f000 ff05 	bl	8006ad8 <memFill16>
 8005cce:	4b04      	ldr	r3, [pc, #16]	; (8005ce0 <mprinter_clear+0x28>)
 8005cd0:	601c      	str	r4, [r3, #0]
 8005cd2:	605c      	str	r4, [r3, #4]
 8005cd4:	b002      	add	sp, #8
 8005cd6:	bc10      	pop	{r4}
 8005cd8:	bc01      	pop	{r0}
 8005cda:	4700      	bx	r0
 8005cdc:	03000210 	.word	0x03000210
 8005ce0:	03000204 	.word	0x03000204

08005ce4 <mprinter_string>:
 8005ce4:	b5f0      	push	{r4, r5, r6, r7, lr}
 8005ce6:	46c6      	mov	lr, r8
 8005ce8:	7803      	ldrb	r3, [r0, #0]
 8005cea:	b500      	push	{lr}
 8005cec:	2b00      	cmp	r3, #0
 8005cee:	d02a      	beq.n	8005d46 <mprinter_string+0x62>
 8005cf0:	2200      	movs	r2, #0
 8005cf2:	4690      	mov	r8, r2
 8005cf4:	4c16      	ldr	r4, [pc, #88]	; (8005d50 <mprinter_string+0x6c>)
 8005cf6:	4e17      	ldr	r6, [pc, #92]	; (8005d54 <mprinter_string+0x70>)
 8005cf8:	4d17      	ldr	r5, [pc, #92]	; (8005d58 <mprinter_string+0x74>)
 8005cfa:	6862      	ldr	r2, [r4, #4]
 8005cfc:	2b21      	cmp	r3, #33	; 0x21
 8005cfe:	d912      	bls.n	8005d26 <mprinter_string+0x42>
 8005d00:	6821      	ldr	r1, [r4, #0]
 8005d02:	014f      	lsls	r7, r1, #5
 8005d04:	46bc      	mov	ip, r7
 8005d06:	4494      	add	ip, r2
 8005d08:	4667      	mov	r7, ip
 8005d0a:	3b21      	subs	r3, #33	; 0x21
 8005d0c:	005b      	lsls	r3, r3, #1
 8005d0e:	432b      	orrs	r3, r5
 8005d10:	007f      	lsls	r7, r7, #1
 8005d12:	53bb      	strh	r3, [r7, r6]
 8005d14:	7803      	ldrb	r3, [r0, #0]
 8005d16:	3101      	adds	r1, #1
 8005d18:	0149      	lsls	r1, r1, #5
 8005d1a:	005b      	lsls	r3, r3, #1
 8005d1c:	1889      	adds	r1, r1, r2
 8005d1e:	3b41      	subs	r3, #65	; 0x41
 8005d20:	0049      	lsls	r1, r1, #1
 8005d22:	432b      	orrs	r3, r5
 8005d24:	538b      	strh	r3, [r1, r6]
 8005d26:	3201      	adds	r2, #1
 8005d28:	6062      	str	r2, [r4, #4]
 8005d2a:	7803      	ldrb	r3, [r0, #0]
 8005d2c:	2b0a      	cmp	r3, #10
 8005d2e:	d001      	beq.n	8005d34 <mprinter_string+0x50>
 8005d30:	2a1d      	cmp	r2, #29
 8005d32:	dd04      	ble.n	8005d3e <mprinter_string+0x5a>
 8005d34:	4643      	mov	r3, r8
 8005d36:	6063      	str	r3, [r4, #4]
 8005d38:	6823      	ldr	r3, [r4, #0]
 8005d3a:	3302      	adds	r3, #2
 8005d3c:	6023      	str	r3, [r4, #0]
 8005d3e:	7843      	ldrb	r3, [r0, #1]
 8005d40:	3001      	adds	r0, #1
 8005d42:	2b00      	cmp	r3, #0
 8005d44:	d1d9      	bne.n	8005cfa <mprinter_string+0x16>
 8005d46:	bc80      	pop	{r7}
 8005d48:	46b8      	mov	r8, r7
 8005d4a:	bcf0      	pop	{r4, r5, r6, r7}
 8005d4c:	bc01      	pop	{r0}
 8005d4e:	4700      	bx	r0
 8005d50:	03000204 	.word	0x03000204
 8005d54:	03000210 	.word	0x03000210
 8005d58:	fffff000 	.word	0xfffff000

08005d5c <mprinter_convertIntToString>:
 8005d5c:	b5f0      	push	{r4, r5, r6, r7, lr}
 8005d5e:	4647      	mov	r7, r8
 8005d60:	46ce      	mov	lr, r9
 8005d62:	b580      	push	{r7, lr}
 8005d64:	b089      	sub	sp, #36	; 0x24
 8005d66:	466f      	mov	r7, sp
 8005d68:	4680      	mov	r8, r0
 8005d6a:	000c      	movs	r4, r1
 8005d6c:	003d      	movs	r5, r7
 8005d6e:	2600      	movs	r6, #0
 8005d70:	0020      	movs	r0, r4
 8005d72:	210a      	movs	r1, #10
 8005d74:	f002 fb34 	bl	80083e0 <____aeabi_idivmod_from_thumb>
 8005d78:	3130      	adds	r1, #48	; 0x30
 8005d7a:	7029      	strb	r1, [r5, #0]
 8005d7c:	0020      	movs	r0, r4
 8005d7e:	210a      	movs	r1, #10
 8005d80:	f002 fb32 	bl	80083e8 <____aeabi_idiv_from_thumb>
 8005d84:	46b1      	mov	r9, r6
 8005d86:	0004      	movs	r4, r0
 8005d88:	3601      	adds	r6, #1
 8005d8a:	3501      	adds	r5, #1
 8005d8c:	2800      	cmp	r0, #0
 8005d8e:	d1ef      	bne.n	8005d70 <mprinter_convertIntToString+0x14>
 8005d90:	464b      	mov	r3, r9
 8005d92:	4642      	mov	r2, r8
 8005d94:	18fd      	adds	r5, r7, r3
 8005d96:	7829      	ldrb	r1, [r5, #0]
 8005d98:	7011      	strb	r1, [r2, #0]
 8005d9a:	0029      	movs	r1, r5
 8005d9c:	3201      	adds	r2, #1
 8005d9e:	3d01      	subs	r5, #1
 8005da0:	428f      	cmp	r7, r1
 8005da2:	d1f8      	bne.n	8005d96 <mprinter_convertIntToString+0x3a>
 8005da4:	2300      	movs	r3, #0
 8005da6:	4642      	mov	r2, r8
 8005da8:	5593      	strb	r3, [r2, r6]
 8005daa:	b009      	add	sp, #36	; 0x24
 8005dac:	bcc0      	pop	{r6, r7}
 8005dae:	46b9      	mov	r9, r7
 8005db0:	46b0      	mov	r8, r6
 8005db2:	bcf0      	pop	{r4, r5, r6, r7}
 8005db4:	bc01      	pop	{r0}
 8005db6:	4700      	bx	r0

08005db8 <mprinter_number>:
 8005db8:	b500      	push	{lr}
 8005dba:	b087      	sub	sp, #28
 8005dbc:	0001      	movs	r1, r0
 8005dbe:	a801      	add	r0, sp, #4
 8005dc0:	f7ff ffcc 	bl	8005d5c <mprinter_convertIntToString>
 8005dc4:	a801      	add	r0, sp, #4
 8005dc6:	f7ff ff8d 	bl	8005ce4 <mprinter_string>
 8005dca:	b007      	add	sp, #28
 8005dcc:	bc01      	pop	{r0}
 8005dce:	4700      	bx	r0

08005dd0 <mprinter_printf>:
 8005dd0:	b40f      	push	{r0, r1, r2, r3}
 8005dd2:	b5f0      	push	{r4, r5, r6, r7, lr}
 8005dd4:	464f      	mov	r7, r9
 8005dd6:	46d6      	mov	lr, sl
 8005dd8:	4646      	mov	r6, r8
 8005dda:	2300      	movs	r3, #0
 8005ddc:	b5c0      	push	{r6, r7, lr}
 8005dde:	4c3c      	ldr	r4, [pc, #240]	; (8005ed0 <mprinter_printf+0x100>)
 8005de0:	44a5      	add	sp, r4
 8005de2:	9d98      	ldr	r5, [sp, #608]	; 0x260
 8005de4:	782a      	ldrb	r2, [r5, #0]
 8005de6:	4699      	mov	r9, r3
 8005de8:	2400      	movs	r4, #0
 8005dea:	2a00      	cmp	r2, #0
 8005dec:	d104      	bne.n	8005df8 <mprinter_printf+0x28>
 8005dee:	e06a      	b.n	8005ec6 <mprinter_printf+0xf6>
 8005df0:	3301      	adds	r3, #1
 8005df2:	5cea      	ldrb	r2, [r5, r3]
 8005df4:	2a00      	cmp	r2, #0
 8005df6:	d019      	beq.n	8005e2c <mprinter_printf+0x5c>
 8005df8:	2a25      	cmp	r2, #37	; 0x25
 8005dfa:	d1f9      	bne.n	8005df0 <mprinter_printf+0x20>
 8005dfc:	4648      	mov	r0, r9
 8005dfe:	466e      	mov	r6, sp
 8005e00:	2718      	movs	r7, #24
 8005e02:	1c5a      	adds	r2, r3, #1
 8005e04:	5ca9      	ldrb	r1, [r5, r2]
 8005e06:	0080      	lsls	r0, r0, #2
 8005e08:	19f6      	adds	r6, r6, r7
 8005e0a:	5233      	strh	r3, [r6, r0]
 8005e0c:	2973      	cmp	r1, #115	; 0x73
 8005e0e:	d04c      	beq.n	8005eaa <mprinter_printf+0xda>
 8005e10:	2964      	cmp	r1, #100	; 0x64
 8005e12:	d103      	bne.n	8005e1c <mprinter_printf+0x4c>
 8005e14:	ab06      	add	r3, sp, #24
 8005e16:	181b      	adds	r3, r3, r0
 8005e18:	3963      	subs	r1, #99	; 0x63
 8005e1a:	7099      	strb	r1, [r3, #2]
 8005e1c:	2301      	movs	r3, #1
 8005e1e:	469c      	mov	ip, r3
 8005e20:	0013      	movs	r3, r2
 8005e22:	3301      	adds	r3, #1
 8005e24:	5cea      	ldrb	r2, [r5, r3]
 8005e26:	44e1      	add	r9, ip
 8005e28:	2a00      	cmp	r2, #0
 8005e2a:	d1e5      	bne.n	8005df8 <mprinter_printf+0x28>
 8005e2c:	464b      	mov	r3, r9
 8005e2e:	2b00      	cmp	r3, #0
 8005e30:	d049      	beq.n	8005ec6 <mprinter_printf+0xf6>
 8005e32:	ab99      	add	r3, sp, #612	; 0x264
 8005e34:	9300      	str	r3, [sp, #0]
 8005e36:	2300      	movs	r3, #0
 8005e38:	2100      	movs	r1, #0
 8005e3a:	2600      	movs	r6, #0
 8005e3c:	469a      	mov	sl, r3
 8005e3e:	ac06      	add	r4, sp, #24
 8005e40:	e006      	b.n	8005e50 <mprinter_printf+0x80>
 8005e42:	2b01      	cmp	r3, #1
 8005e44:	d034      	beq.n	8005eb0 <mprinter_printf+0xe0>
 8005e46:	3601      	adds	r6, #1
 8005e48:	1cb9      	adds	r1, r7, #2
 8005e4a:	3404      	adds	r4, #4
 8005e4c:	45b1      	cmp	r9, r6
 8005e4e:	d01e      	beq.n	8005e8e <mprinter_printf+0xbe>
 8005e50:	8827      	ldrh	r7, [r4, #0]
 8005e52:	1a7b      	subs	r3, r7, r1
 8005e54:	001a      	movs	r2, r3
 8005e56:	1869      	adds	r1, r5, r1
 8005e58:	a810      	add	r0, sp, #64	; 0x40
 8005e5a:	4698      	mov	r8, r3
 8005e5c:	f002 fad6 	bl	800840c <__strncpy_from_thumb>
 8005e60:	2140      	movs	r1, #64	; 0x40
 8005e62:	466b      	mov	r3, sp
 8005e64:	4642      	mov	r2, r8
 8005e66:	185b      	adds	r3, r3, r1
 8005e68:	4651      	mov	r1, sl
 8005e6a:	0018      	movs	r0, r3
 8005e6c:	5499      	strb	r1, [r3, r2]
 8005e6e:	f7ff ff39 	bl	8005ce4 <mprinter_string>
 8005e72:	78a3      	ldrb	r3, [r4, #2]
 8005e74:	2b00      	cmp	r3, #0
 8005e76:	d1e4      	bne.n	8005e42 <mprinter_printf+0x72>
 8005e78:	9b00      	ldr	r3, [sp, #0]
 8005e7a:	3601      	adds	r6, #1
 8005e7c:	1d1a      	adds	r2, r3, #4
 8005e7e:	6818      	ldr	r0, [r3, #0]
 8005e80:	9200      	str	r2, [sp, #0]
 8005e82:	3404      	adds	r4, #4
 8005e84:	f7ff ff2e 	bl	8005ce4 <mprinter_string>
 8005e88:	1cb9      	adds	r1, r7, #2
 8005e8a:	45b1      	cmp	r9, r6
 8005e8c:	d1e0      	bne.n	8005e50 <mprinter_printf+0x80>
 8005e8e:	1868      	adds	r0, r5, r1
 8005e90:	f7ff ff28 	bl	8005ce4 <mprinter_string>
 8005e94:	2390      	movs	r3, #144	; 0x90
 8005e96:	009b      	lsls	r3, r3, #2
 8005e98:	449d      	add	sp, r3
 8005e9a:	bce0      	pop	{r5, r6, r7}
 8005e9c:	46ba      	mov	sl, r7
 8005e9e:	46b1      	mov	r9, r6
 8005ea0:	46a8      	mov	r8, r5
 8005ea2:	bcf0      	pop	{r4, r5, r6, r7}
 8005ea4:	bc08      	pop	{r3}
 8005ea6:	b004      	add	sp, #16
 8005ea8:	4718      	bx	r3
 8005eaa:	1833      	adds	r3, r6, r0
 8005eac:	709c      	strb	r4, [r3, #2]
 8005eae:	e7b5      	b.n	8005e1c <mprinter_printf+0x4c>
 8005eb0:	9b00      	ldr	r3, [sp, #0]
 8005eb2:	a801      	add	r0, sp, #4
 8005eb4:	1d1a      	adds	r2, r3, #4
 8005eb6:	6819      	ldr	r1, [r3, #0]
 8005eb8:	9200      	str	r2, [sp, #0]
 8005eba:	f7ff ff4f 	bl	8005d5c <mprinter_convertIntToString>
 8005ebe:	a801      	add	r0, sp, #4
 8005ec0:	f7ff ff10 	bl	8005ce4 <mprinter_string>
 8005ec4:	e7bf      	b.n	8005e46 <mprinter_printf+0x76>
 8005ec6:	0028      	movs	r0, r5
 8005ec8:	f7ff ff0c 	bl	8005ce4 <mprinter_string>
 8005ecc:	e7e2      	b.n	8005e94 <mprinter_printf+0xc4>
 8005ece:	46c0      	nop			; (mov r8, r8)
 8005ed0:	fffffdc0 	.word	0xfffffdc0

08005ed4 <mprinter_print>:
 8005ed4:	2200      	movs	r2, #0
 8005ed6:	4b04      	ldr	r3, [pc, #16]	; (8005ee8 <mprinter_print+0x14>)
 8005ed8:	609a      	str	r2, [r3, #8]
 8005eda:	4a04      	ldr	r2, [pc, #16]	; (8005eec <mprinter_print+0x18>)
 8005edc:	601a      	str	r2, [r3, #0]
 8005ede:	4a04      	ldr	r2, [pc, #16]	; (8005ef0 <mprinter_print+0x1c>)
 8005ee0:	605a      	str	r2, [r3, #4]
 8005ee2:	4a04      	ldr	r2, [pc, #16]	; (8005ef4 <mprinter_print+0x20>)
 8005ee4:	609a      	str	r2, [r3, #8]
 8005ee6:	4770      	bx	lr
 8005ee8:	040000d4 	.word	0x040000d4
 8005eec:	03000210 	.word	0x03000210
 8005ef0:	0600d800 	.word	0x0600d800
 8005ef4:	84000200 	.word	0x84000200

08005ef8 <initDisplay2BG>:
 8005ef8:	2380      	movs	r3, #128	; 0x80
 8005efa:	22ba      	movs	r2, #186	; 0xba
 8005efc:	04db      	lsls	r3, r3, #19
 8005efe:	0152      	lsls	r2, r2, #5
 8005f00:	801a      	strh	r2, [r3, #0]
 8005f02:	4770      	bx	lr

08005f04 <mscr_initCharMoveRef>:
 8005f04:	b5f0      	push	{r4, r5, r6, r7, lr}
 8005f06:	46c6      	mov	lr, r8
 8005f08:	000e      	movs	r6, r1
 8005f0a:	b500      	push	{lr}
 8005f0c:	8815      	ldrh	r5, [r2, #0]
 8005f0e:	3d78      	subs	r5, #120	; 0x78
 8005f10:	042d      	lsls	r5, r5, #16
 8005f12:	0019      	movs	r1, r3
 8005f14:	0c2b      	lsrs	r3, r5, #16
 8005f16:	142d      	asrs	r5, r5, #16
 8005f18:	8205      	strh	r5, [r0, #16]
 8005f1a:	8854      	ldrh	r4, [r2, #2]
 8005f1c:	3c50      	subs	r4, #80	; 0x50
 8005f1e:	0424      	lsls	r4, r4, #16
 8005f20:	469c      	mov	ip, r3
 8005f22:	0c23      	lsrs	r3, r4, #16
 8005f24:	1424      	asrs	r4, r4, #16
 8005f26:	8244      	strh	r4, [r0, #18]
 8005f28:	4698      	mov	r8, r3
 8005f2a:	8837      	ldrh	r7, [r6, #0]
 8005f2c:	8873      	ldrh	r3, [r6, #2]
 8005f2e:	2d00      	cmp	r5, #0
 8005f30:	db2a      	blt.n	8005f88 <mscr_initCharMoveRef+0x84>
 8005f32:	3ff0      	subs	r7, #240	; 0xf0
 8005f34:	4567      	cmp	r7, ip
 8005f36:	db21      	blt.n	8005f7c <mscr_initCharMoveRef+0x78>
 8005f38:	2c00      	cmp	r4, #0
 8005f3a:	db22      	blt.n	8005f82 <mscr_initCharMoveRef+0x7e>
 8005f3c:	3ba0      	subs	r3, #160	; 0xa0
 8005f3e:	4543      	cmp	r3, r8
 8005f40:	db0f      	blt.n	8005f62 <mscr_initCharMoveRef+0x5e>
 8005f42:	4b13      	ldr	r3, [pc, #76]	; (8005f90 <mscr_initCharMoveRef+0x8c>)
 8005f44:	6003      	str	r3, [r0, #0]
 8005f46:	4b13      	ldr	r3, [pc, #76]	; (8005f94 <mscr_initCharMoveRef+0x90>)
 8005f48:	6042      	str	r2, [r0, #4]
 8005f4a:	6183      	str	r3, [r0, #24]
 8005f4c:	2900      	cmp	r1, #0
 8005f4e:	d010      	beq.n	8005f72 <mscr_initCharMoveRef+0x6e>
 8005f50:	2208      	movs	r2, #8
 8005f52:	3008      	adds	r0, #8
 8005f54:	f002 fa22 	bl	800839c <__memcpy_from_thumb>
 8005f58:	bc80      	pop	{r7}
 8005f5a:	46b8      	mov	r8, r7
 8005f5c:	bcf0      	pop	{r4, r5, r6, r7}
 8005f5e:	bc01      	pop	{r0}
 8005f60:	4700      	bx	r0
 8005f62:	8243      	strh	r3, [r0, #18]
 8005f64:	4b0a      	ldr	r3, [pc, #40]	; (8005f90 <mscr_initCharMoveRef+0x8c>)
 8005f66:	6003      	str	r3, [r0, #0]
 8005f68:	4b0a      	ldr	r3, [pc, #40]	; (8005f94 <mscr_initCharMoveRef+0x90>)
 8005f6a:	6042      	str	r2, [r0, #4]
 8005f6c:	6183      	str	r3, [r0, #24]
 8005f6e:	2900      	cmp	r1, #0
 8005f70:	d1ee      	bne.n	8005f50 <mscr_initCharMoveRef+0x4c>
 8005f72:	4b09      	ldr	r3, [pc, #36]	; (8005f98 <mscr_initCharMoveRef+0x94>)
 8005f74:	3008      	adds	r0, #8
 8005f76:	cb06      	ldmia	r3!, {r1, r2}
 8005f78:	c006      	stmia	r0!, {r1, r2}
 8005f7a:	e7ed      	b.n	8005f58 <mscr_initCharMoveRef+0x54>
 8005f7c:	8207      	strh	r7, [r0, #16]
 8005f7e:	2c00      	cmp	r4, #0
 8005f80:	dadc      	bge.n	8005f3c <mscr_initCharMoveRef+0x38>
 8005f82:	2300      	movs	r3, #0
 8005f84:	8243      	strh	r3, [r0, #18]
 8005f86:	e7dc      	b.n	8005f42 <mscr_initCharMoveRef+0x3e>
 8005f88:	2500      	movs	r5, #0
 8005f8a:	8205      	strh	r5, [r0, #16]
 8005f8c:	e7d4      	b.n	8005f38 <mscr_initCharMoveRef+0x34>
 8005f8e:	46c0      	nop			; (mov r8, r8)
 8005f90:	08006135 	.word	0x08006135
 8005f94:	00a000f0 	.word	0x00a000f0
 8005f98:	0800a59c 	.word	0x0800a59c

08005f9c <mscr_adjustScreenToMapLimits>:
 8005f9c:	b510      	push	{r4, lr}
 8005f9e:	880a      	ldrh	r2, [r1, #0]
 8005fa0:	884b      	ldrh	r3, [r1, #2]
 8005fa2:	2410      	movs	r4, #16
 8005fa4:	5f01      	ldrsh	r1, [r0, r4]
 8005fa6:	2900      	cmp	r1, #0
 8005fa8:	db15      	blt.n	8005fd6 <mscr_adjustScreenToMapLimits+0x3a>
 8005faa:	3af0      	subs	r2, #240	; 0xf0
 8005fac:	4291      	cmp	r1, r2
 8005fae:	dc0a      	bgt.n	8005fc6 <mscr_adjustScreenToMapLimits+0x2a>
 8005fb0:	2112      	movs	r1, #18
 8005fb2:	5e42      	ldrsh	r2, [r0, r1]
 8005fb4:	2a00      	cmp	r2, #0
 8005fb6:	db0b      	blt.n	8005fd0 <mscr_adjustScreenToMapLimits+0x34>
 8005fb8:	3ba0      	subs	r3, #160	; 0xa0
 8005fba:	429a      	cmp	r2, r3
 8005fbc:	dd00      	ble.n	8005fc0 <mscr_adjustScreenToMapLimits+0x24>
 8005fbe:	8243      	strh	r3, [r0, #18]
 8005fc0:	bc10      	pop	{r4}
 8005fc2:	bc01      	pop	{r0}
 8005fc4:	4700      	bx	r0
 8005fc6:	8202      	strh	r2, [r0, #16]
 8005fc8:	2112      	movs	r1, #18
 8005fca:	5e42      	ldrsh	r2, [r0, r1]
 8005fcc:	2a00      	cmp	r2, #0
 8005fce:	daf3      	bge.n	8005fb8 <mscr_adjustScreenToMapLimits+0x1c>
 8005fd0:	2300      	movs	r3, #0
 8005fd2:	8243      	strh	r3, [r0, #18]
 8005fd4:	e7f4      	b.n	8005fc0 <mscr_adjustScreenToMapLimits+0x24>
 8005fd6:	2200      	movs	r2, #0
 8005fd8:	8202      	strh	r2, [r0, #16]
 8005fda:	e7e9      	b.n	8005fb0 <mscr_adjustScreenToMapLimits+0x14>

08005fdc <mscr_initPosMoveRef>:
 8005fdc:	2300      	movs	r3, #0
 8005fde:	6103      	str	r3, [r0, #16]
 8005fe0:	6041      	str	r1, [r0, #4]
 8005fe2:	4770      	bx	lr

08005fe4 <mscr_checkMoveLeft>:
 8005fe4:	b510      	push	{r4, lr}
 8005fe6:	2310      	movs	r3, #16
 8005fe8:	5ec4      	ldrsh	r4, [r0, r3]
 8005fea:	8903      	ldrh	r3, [r0, #8]
 8005fec:	191b      	adds	r3, r3, r4
 8005fee:	041b      	lsls	r3, r3, #16
 8005ff0:	0c1b      	lsrs	r3, r3, #16
 8005ff2:	428b      	cmp	r3, r1
 8005ff4:	d906      	bls.n	8006004 <mscr_checkMoveLeft+0x20>
 8005ff6:	1a59      	subs	r1, r3, r1
 8005ff8:	2908      	cmp	r1, #8
 8005ffa:	dc08      	bgt.n	800600e <mscr_checkMoveLeft+0x2a>
 8005ffc:	1a64      	subs	r4, r4, r1
 8005ffe:	4294      	cmp	r4, r2
 8006000:	db03      	blt.n	800600a <mscr_checkMoveLeft+0x26>
 8006002:	8204      	strh	r4, [r0, #16]
 8006004:	bc10      	pop	{r4}
 8006006:	bc01      	pop	{r0}
 8006008:	4700      	bx	r0
 800600a:	0014      	movs	r4, r2
 800600c:	e7f9      	b.n	8006002 <mscr_checkMoveLeft+0x1e>
 800600e:	2108      	movs	r1, #8
 8006010:	1a64      	subs	r4, r4, r1
 8006012:	4294      	cmp	r4, r2
 8006014:	daf5      	bge.n	8006002 <mscr_checkMoveLeft+0x1e>
 8006016:	e7f8      	b.n	800600a <mscr_checkMoveLeft+0x26>

08006018 <mscr_checkMoveRight>:
 8006018:	b530      	push	{r4, r5, lr}
 800601a:	2310      	movs	r3, #16
 800601c:	5ec4      	ldrsh	r4, [r0, r3]
 800601e:	8985      	ldrh	r5, [r0, #12]
 8006020:	8903      	ldrh	r3, [r0, #8]
 8006022:	195b      	adds	r3, r3, r5
 8006024:	191b      	adds	r3, r3, r4
 8006026:	041b      	lsls	r3, r3, #16
 8006028:	0c1b      	lsrs	r3, r3, #16
 800602a:	428b      	cmp	r3, r1
 800602c:	d206      	bcs.n	800603c <mscr_checkMoveRight+0x24>
 800602e:	1ac9      	subs	r1, r1, r3
 8006030:	2908      	cmp	r1, #8
 8006032:	dc08      	bgt.n	8006046 <mscr_checkMoveRight+0x2e>
 8006034:	1909      	adds	r1, r1, r4
 8006036:	4291      	cmp	r1, r2
 8006038:	dc03      	bgt.n	8006042 <mscr_checkMoveRight+0x2a>
 800603a:	8201      	strh	r1, [r0, #16]
 800603c:	bc30      	pop	{r4, r5}
 800603e:	bc01      	pop	{r0}
 8006040:	4700      	bx	r0
 8006042:	0011      	movs	r1, r2
 8006044:	e7f9      	b.n	800603a <mscr_checkMoveRight+0x22>
 8006046:	2108      	movs	r1, #8
 8006048:	1909      	adds	r1, r1, r4
 800604a:	4291      	cmp	r1, r2
 800604c:	ddf5      	ble.n	800603a <mscr_checkMoveRight+0x22>
 800604e:	e7f8      	b.n	8006042 <mscr_checkMoveRight+0x2a>

08006050 <mscr_checkMoveUp>:
 8006050:	b510      	push	{r4, lr}
 8006052:	2312      	movs	r3, #18
 8006054:	5ec4      	ldrsh	r4, [r0, r3]
 8006056:	8943      	ldrh	r3, [r0, #10]
 8006058:	191b      	adds	r3, r3, r4
 800605a:	041b      	lsls	r3, r3, #16
 800605c:	0c1b      	lsrs	r3, r3, #16
 800605e:	428b      	cmp	r3, r1
 8006060:	d906      	bls.n	8006070 <mscr_checkMoveUp+0x20>
 8006062:	1a59      	subs	r1, r3, r1
 8006064:	2908      	cmp	r1, #8
 8006066:	dc08      	bgt.n	800607a <mscr_checkMoveUp+0x2a>
 8006068:	1a64      	subs	r4, r4, r1
 800606a:	4294      	cmp	r4, r2
 800606c:	db03      	blt.n	8006076 <mscr_checkMoveUp+0x26>
 800606e:	8244      	strh	r4, [r0, #18]
 8006070:	bc10      	pop	{r4}
 8006072:	bc01      	pop	{r0}
 8006074:	4700      	bx	r0
 8006076:	0014      	movs	r4, r2
 8006078:	e7f9      	b.n	800606e <mscr_checkMoveUp+0x1e>
 800607a:	2108      	movs	r1, #8
 800607c:	1a64      	subs	r4, r4, r1
 800607e:	4294      	cmp	r4, r2
 8006080:	daf5      	bge.n	800606e <mscr_checkMoveUp+0x1e>
 8006082:	e7f8      	b.n	8006076 <mscr_checkMoveUp+0x26>

08006084 <mscr_checkMoveDown>:
 8006084:	b530      	push	{r4, r5, lr}
 8006086:	2312      	movs	r3, #18
 8006088:	5ec4      	ldrsh	r4, [r0, r3]
 800608a:	89c5      	ldrh	r5, [r0, #14]
 800608c:	8943      	ldrh	r3, [r0, #10]
 800608e:	195b      	adds	r3, r3, r5
 8006090:	191b      	adds	r3, r3, r4
 8006092:	041b      	lsls	r3, r3, #16
 8006094:	0c1b      	lsrs	r3, r3, #16
 8006096:	428b      	cmp	r3, r1
 8006098:	d206      	bcs.n	80060a8 <mscr_checkMoveDown+0x24>
 800609a:	1ac9      	subs	r1, r1, r3
 800609c:	2908      	cmp	r1, #8
 800609e:	dc08      	bgt.n	80060b2 <mscr_checkMoveDown+0x2e>
 80060a0:	1909      	adds	r1, r1, r4
 80060a2:	4291      	cmp	r1, r2
 80060a4:	dc03      	bgt.n	80060ae <mscr_checkMoveDown+0x2a>
 80060a6:	8241      	strh	r1, [r0, #18]
 80060a8:	bc30      	pop	{r4, r5}
 80060aa:	bc01      	pop	{r0}
 80060ac:	4700      	bx	r0
 80060ae:	0011      	movs	r1, r2
 80060b0:	e7f9      	b.n	80060a6 <mscr_checkMoveDown+0x22>
 80060b2:	2108      	movs	r1, #8
 80060b4:	1909      	adds	r1, r1, r4
 80060b6:	4291      	cmp	r1, r2
 80060b8:	ddf5      	ble.n	80060a6 <mscr_checkMoveDown+0x22>
 80060ba:	e7f8      	b.n	80060ae <mscr_checkMoveDown+0x2a>

080060bc <mscr_setHorizontalMove>:
 80060bc:	b510      	push	{r4, lr}
 80060be:	0004      	movs	r4, r0
 80060c0:	0008      	movs	r0, r1
 80060c2:	2310      	movs	r3, #16
 80060c4:	5ee1      	ldrsh	r1, [r4, r3]
 80060c6:	08d2      	lsrs	r2, r2, #3
 80060c8:	10cb      	asrs	r3, r1, #3
 80060ca:	b082      	sub	sp, #8
 80060cc:	1a9a      	subs	r2, r3, r2
 80060ce:	2a00      	cmp	r2, #0
 80060d0:	dc04      	bgt.n	80060dc <mscr_setHorizontalMove+0x20>
 80060d2:	d10e      	bne.n	80060f2 <mscr_setHorizontalMove+0x36>
 80060d4:	b002      	add	sp, #8
 80060d6:	bc10      	pop	{r4}
 80060d8:	bc01      	pop	{r0}
 80060da:	4700      	bx	r0
 80060dc:	8b22      	ldrh	r2, [r4, #24]
 80060de:	8a63      	ldrh	r3, [r4, #18]
 80060e0:	1852      	adds	r2, r2, r1
 80060e2:	0412      	lsls	r2, r2, #16
 80060e4:	2115      	movs	r1, #21
 80060e6:	0c12      	lsrs	r2, r2, #16
 80060e8:	9100      	str	r1, [sp, #0]
 80060ea:	3107      	adds	r1, #7
 80060ec:	f7ff f9bc 	bl	8005468 <mbg_setVerticalTiles>
 80060f0:	e7f0      	b.n	80060d4 <mscr_setHorizontalMove+0x18>
 80060f2:	8a63      	ldrh	r3, [r4, #18]
 80060f4:	040a      	lsls	r2, r1, #16
 80060f6:	e7f5      	b.n	80060e4 <mscr_setHorizontalMove+0x28>

080060f8 <mscr_setVerticalMove>:
 80060f8:	b510      	push	{r4, lr}
 80060fa:	0004      	movs	r4, r0
 80060fc:	0008      	movs	r0, r1
 80060fe:	2312      	movs	r3, #18
 8006100:	5ee1      	ldrsh	r1, [r4, r3]
 8006102:	08d2      	lsrs	r2, r2, #3
 8006104:	10cb      	asrs	r3, r1, #3
 8006106:	b082      	sub	sp, #8
 8006108:	1a9a      	subs	r2, r3, r2
 800610a:	2a00      	cmp	r2, #0
 800610c:	dc04      	bgt.n	8006118 <mscr_setVerticalMove+0x20>
 800610e:	d10e      	bne.n	800612e <mscr_setVerticalMove+0x36>
 8006110:	b002      	add	sp, #8
 8006112:	bc10      	pop	{r4}
 8006114:	bc01      	pop	{r0}
 8006116:	4700      	bx	r0
 8006118:	8b63      	ldrh	r3, [r4, #26]
 800611a:	185b      	adds	r3, r3, r1
 800611c:	041b      	lsls	r3, r3, #16
 800611e:	211f      	movs	r1, #31
 8006120:	8a22      	ldrh	r2, [r4, #16]
 8006122:	0c1b      	lsrs	r3, r3, #16
 8006124:	9100      	str	r1, [sp, #0]
 8006126:	3903      	subs	r1, #3
 8006128:	f7ff fa04 	bl	8005534 <mbg_setHorizontalTiles>
 800612c:	e7f0      	b.n	8006110 <mscr_setVerticalMove+0x18>
 800612e:	040b      	lsls	r3, r1, #16
 8006130:	e7f5      	b.n	800611e <mscr_setVerticalMove+0x26>
 8006132:	46c0      	nop			; (mov r8, r8)

08006134 <mscr_moveScr>:
 8006134:	b5f0      	push	{r4, r5, r6, r7, lr}
 8006136:	4645      	mov	r5, r8
 8006138:	46de      	mov	lr, fp
 800613a:	4657      	mov	r7, sl
 800613c:	464e      	mov	r6, r9
 800613e:	b5e0      	push	{r5, r6, r7, lr}
 8006140:	6843      	ldr	r3, [r0, #4]
 8006142:	0004      	movs	r4, r0
 8006144:	000d      	movs	r5, r1
 8006146:	b085      	sub	sp, #20
 8006148:	2b00      	cmp	r3, #0
 800614a:	d064      	beq.n	8006216 <mscr_moveScr+0xe2>
 800614c:	881a      	ldrh	r2, [r3, #0]
 800614e:	885b      	ldrh	r3, [r3, #2]
 8006150:	9301      	str	r3, [sp, #4]
 8006152:	2310      	movs	r3, #16
 8006154:	5ec7      	ldrsh	r7, [r0, r3]
 8006156:	4694      	mov	ip, r2
 8006158:	043a      	lsls	r2, r7, #16
 800615a:	0c12      	lsrs	r2, r2, #16
 800615c:	4690      	mov	r8, r2
 800615e:	9202      	str	r2, [sp, #8]
 8006160:	2312      	movs	r3, #18
 8006162:	5ec0      	ldrsh	r0, [r0, r3]
 8006164:	880b      	ldrh	r3, [r1, #0]
 8006166:	4699      	mov	r9, r3
 8006168:	884b      	ldrh	r3, [r1, #2]
 800616a:	9303      	str	r3, [sp, #12]
 800616c:	8923      	ldrh	r3, [r4, #8]
 800616e:	469a      	mov	sl, r3
 8006170:	4443      	add	r3, r8
 8006172:	0406      	lsls	r6, r0, #16
 8006174:	041b      	lsls	r3, r3, #16
 8006176:	4693      	mov	fp, r2
 8006178:	0c36      	lsrs	r6, r6, #16
 800617a:	0c1b      	lsrs	r3, r3, #16
 800617c:	459c      	cmp	ip, r3
 800617e:	d20d      	bcs.n	800619c <mscr_moveScr+0x68>
 8006180:	4662      	mov	r2, ip
 8006182:	1a9b      	subs	r3, r3, r2
 8006184:	2b08      	cmp	r3, #8
 8006186:	dc5f      	bgt.n	8006248 <mscr_moveScr+0x114>
 8006188:	1afb      	subs	r3, r7, r3
 800618a:	43df      	mvns	r7, r3
 800618c:	17ff      	asrs	r7, r7, #31
 800618e:	403b      	ands	r3, r7
 8006190:	041f      	lsls	r7, r3, #16
 8006192:	041b      	lsls	r3, r3, #16
 8006194:	0c1b      	lsrs	r3, r3, #16
 8006196:	469b      	mov	fp, r3
 8006198:	143f      	asrs	r7, r7, #16
 800619a:	8227      	strh	r7, [r4, #16]
 800619c:	89a3      	ldrh	r3, [r4, #12]
 800619e:	4453      	add	r3, sl
 80061a0:	445b      	add	r3, fp
 80061a2:	041b      	lsls	r3, r3, #16
 80061a4:	0c1b      	lsrs	r3, r3, #16
 80061a6:	459c      	cmp	ip, r3
 80061a8:	d90b      	bls.n	80061c2 <mscr_moveScr+0x8e>
 80061aa:	4662      	mov	r2, ip
 80061ac:	1ad3      	subs	r3, r2, r3
 80061ae:	2b08      	cmp	r3, #8
 80061b0:	dc4c      	bgt.n	800624c <mscr_moveScr+0x118>
 80061b2:	22f0      	movs	r2, #240	; 0xf0
 80061b4:	4252      	negs	r2, r2
 80061b6:	4694      	mov	ip, r2
 80061b8:	19db      	adds	r3, r3, r7
 80061ba:	44e1      	add	r9, ip
 80061bc:	454b      	cmp	r3, r9
 80061be:	dc3d      	bgt.n	800623c <mscr_moveScr+0x108>
 80061c0:	8223      	strh	r3, [r4, #16]
 80061c2:	8963      	ldrh	r3, [r4, #10]
 80061c4:	4698      	mov	r8, r3
 80061c6:	18f3      	adds	r3, r6, r3
 80061c8:	041b      	lsls	r3, r3, #16
 80061ca:	0c1b      	lsrs	r3, r3, #16
 80061cc:	469c      	mov	ip, r3
 80061ce:	9a01      	ldr	r2, [sp, #4]
 80061d0:	0033      	movs	r3, r6
 80061d2:	4562      	cmp	r2, ip
 80061d4:	d20c      	bcs.n	80061f0 <mscr_moveScr+0xbc>
 80061d6:	4663      	mov	r3, ip
 80061d8:	1a9b      	subs	r3, r3, r2
 80061da:	2b08      	cmp	r3, #8
 80061dc:	dc3f      	bgt.n	800625e <mscr_moveScr+0x12a>
 80061de:	1ac3      	subs	r3, r0, r3
 80061e0:	43d8      	mvns	r0, r3
 80061e2:	17c0      	asrs	r0, r0, #31
 80061e4:	4003      	ands	r3, r0
 80061e6:	0418      	lsls	r0, r3, #16
 80061e8:	1400      	asrs	r0, r0, #16
 80061ea:	041b      	lsls	r3, r3, #16
 80061ec:	8260      	strh	r0, [r4, #18]
 80061ee:	0c1b      	lsrs	r3, r3, #16
 80061f0:	89e7      	ldrh	r7, [r4, #14]
 80061f2:	46bc      	mov	ip, r7
 80061f4:	44e0      	add	r8, ip
 80061f6:	4443      	add	r3, r8
 80061f8:	9a01      	ldr	r2, [sp, #4]
 80061fa:	041b      	lsls	r3, r3, #16
 80061fc:	0c1b      	lsrs	r3, r3, #16
 80061fe:	429a      	cmp	r2, r3
 8006200:	d812      	bhi.n	8006228 <mscr_moveScr+0xf4>
 8006202:	0029      	movs	r1, r5
 8006204:	0020      	movs	r0, r4
 8006206:	9a02      	ldr	r2, [sp, #8]
 8006208:	f7ff ff58 	bl	80060bc <mscr_setHorizontalMove>
 800620c:	0032      	movs	r2, r6
 800620e:	0029      	movs	r1, r5
 8006210:	0020      	movs	r0, r4
 8006212:	f7ff ff71 	bl	80060f8 <mscr_setVerticalMove>
 8006216:	b005      	add	sp, #20
 8006218:	bcf0      	pop	{r4, r5, r6, r7}
 800621a:	46bb      	mov	fp, r7
 800621c:	46b2      	mov	sl, r6
 800621e:	46a9      	mov	r9, r5
 8006220:	46a0      	mov	r8, r4
 8006222:	bcf0      	pop	{r4, r5, r6, r7}
 8006224:	bc01      	pop	{r0}
 8006226:	4700      	bx	r0
 8006228:	1ad1      	subs	r1, r2, r3
 800622a:	2908      	cmp	r1, #8
 800622c:	dc19      	bgt.n	8006262 <mscr_moveScr+0x12e>
 800622e:	9f03      	ldr	r7, [sp, #12]
 8006230:	1809      	adds	r1, r1, r0
 8006232:	3fa0      	subs	r7, #160	; 0xa0
 8006234:	42b9      	cmp	r1, r7
 8006236:	dc04      	bgt.n	8006242 <mscr_moveScr+0x10e>
 8006238:	8261      	strh	r1, [r4, #18]
 800623a:	e7e2      	b.n	8006202 <mscr_moveScr+0xce>
 800623c:	464b      	mov	r3, r9
 800623e:	8223      	strh	r3, [r4, #16]
 8006240:	e7bf      	b.n	80061c2 <mscr_moveScr+0x8e>
 8006242:	0039      	movs	r1, r7
 8006244:	8261      	strh	r1, [r4, #18]
 8006246:	e7dc      	b.n	8006202 <mscr_moveScr+0xce>
 8006248:	2308      	movs	r3, #8
 800624a:	e79d      	b.n	8006188 <mscr_moveScr+0x54>
 800624c:	22f0      	movs	r2, #240	; 0xf0
 800624e:	4252      	negs	r2, r2
 8006250:	2308      	movs	r3, #8
 8006252:	4694      	mov	ip, r2
 8006254:	19db      	adds	r3, r3, r7
 8006256:	44e1      	add	r9, ip
 8006258:	454b      	cmp	r3, r9
 800625a:	ddb1      	ble.n	80061c0 <mscr_moveScr+0x8c>
 800625c:	e7ee      	b.n	800623c <mscr_moveScr+0x108>
 800625e:	2308      	movs	r3, #8
 8006260:	e7bd      	b.n	80061de <mscr_moveScr+0xaa>
 8006262:	2108      	movs	r1, #8
 8006264:	9f03      	ldr	r7, [sp, #12]
 8006266:	1809      	adds	r1, r1, r0
 8006268:	3fa0      	subs	r7, #160	; 0xa0
 800626a:	42b9      	cmp	r1, r7
 800626c:	dde4      	ble.n	8006238 <mscr_moveScr+0x104>
 800626e:	e7e8      	b.n	8006242 <mscr_moveScr+0x10e>

08006270 <mscr_setDraw>:
 8006270:	4b01      	ldr	r3, [pc, #4]	; (8006278 <mscr_setDraw+0x8>)
 8006272:	6018      	str	r0, [r3, #0]
 8006274:	4770      	bx	lr
 8006276:	46c0      	nop			; (mov r8, r8)
 8006278:	03000a10 	.word	0x03000a10

0800627c <mscr_draw>:
 800627c:	4b09      	ldr	r3, [pc, #36]	; (80062a4 <mscr_draw+0x28>)
 800627e:	681a      	ldr	r2, [r3, #0]
 8006280:	2a00      	cmp	r2, #0
 8006282:	d00e      	beq.n	80062a2 <mscr_draw+0x26>
 8006284:	8a11      	ldrh	r1, [r2, #16]
 8006286:	4a08      	ldr	r2, [pc, #32]	; (80062a8 <mscr_draw+0x2c>)
 8006288:	8011      	strh	r1, [r2, #0]
 800628a:	681a      	ldr	r2, [r3, #0]
 800628c:	8a51      	ldrh	r1, [r2, #18]
 800628e:	4a07      	ldr	r2, [pc, #28]	; (80062ac <mscr_draw+0x30>)
 8006290:	8011      	strh	r1, [r2, #0]
 8006292:	681a      	ldr	r2, [r3, #0]
 8006294:	8a11      	ldrh	r1, [r2, #16]
 8006296:	4a06      	ldr	r2, [pc, #24]	; (80062b0 <mscr_draw+0x34>)
 8006298:	8011      	strh	r1, [r2, #0]
 800629a:	681b      	ldr	r3, [r3, #0]
 800629c:	8a5a      	ldrh	r2, [r3, #18]
 800629e:	4b05      	ldr	r3, [pc, #20]	; (80062b4 <mscr_draw+0x38>)
 80062a0:	801a      	strh	r2, [r3, #0]
 80062a2:	4770      	bx	lr
 80062a4:	03000a10 	.word	0x03000a10
 80062a8:	04000010 	.word	0x04000010
 80062ac:	04000012 	.word	0x04000012
 80062b0:	04000014 	.word	0x04000014
 80062b4:	04000016 	.word	0x04000016

080062b8 <initWindowObj>:
 80062b8:	2280      	movs	r2, #128	; 0x80
 80062ba:	2180      	movs	r1, #128	; 0x80
 80062bc:	04d2      	lsls	r2, r2, #19
 80062be:	8813      	ldrh	r3, [r2, #0]
 80062c0:	0209      	lsls	r1, r1, #8
 80062c2:	430b      	orrs	r3, r1
 80062c4:	8013      	strh	r3, [r2, #0]
 80062c6:	4b02      	ldr	r3, [pc, #8]	; (80062d0 <initWindowObj+0x18>)
 80062c8:	4a02      	ldr	r2, [pc, #8]	; (80062d4 <initWindowObj+0x1c>)
 80062ca:	801a      	strh	r2, [r3, #0]
 80062cc:	4770      	bx	lr
 80062ce:	46c0      	nop			; (mov r8, r8)
 80062d0:	0400004a 	.word	0x0400004a
 80062d4:	00001f0c 	.word	0x00001f0c

080062d8 <removeWindowObj>:
 80062d8:	2280      	movs	r2, #128	; 0x80
 80062da:	04d2      	lsls	r2, r2, #19
 80062dc:	8813      	ldrh	r3, [r2, #0]
 80062de:	045b      	lsls	r3, r3, #17
 80062e0:	0c5b      	lsrs	r3, r3, #17
 80062e2:	8013      	strh	r3, [r2, #0]
 80062e4:	2200      	movs	r2, #0
 80062e6:	4b01      	ldr	r3, [pc, #4]	; (80062ec <removeWindowObj+0x14>)
 80062e8:	801a      	strh	r2, [r3, #0]
 80062ea:	4770      	bx	lr
 80062ec:	0400004a 	.word	0x0400004a

080062f0 <msound_init>:
 80062f0:	4b08      	ldr	r3, [pc, #32]	; (8006314 <msound_init+0x24>)
 80062f2:	b5f0      	push	{r4, r5, r6, r7, lr}
 80062f4:	001c      	movs	r4, r3
 80062f6:	4808      	ldr	r0, [pc, #32]	; (8006318 <msound_init+0x28>)
 80062f8:	3478      	adds	r4, #120	; 0x78
 80062fa:	001a      	movs	r2, r3
 80062fc:	0001      	movs	r1, r0
 80062fe:	c9e0      	ldmia	r1!, {r5, r6, r7}
 8006300:	c2e0      	stmia	r2!, {r5, r6, r7}
 8006302:	3318      	adds	r3, #24
 8006304:	c9e0      	ldmia	r1!, {r5, r6, r7}
 8006306:	c2e0      	stmia	r2!, {r5, r6, r7}
 8006308:	42a3      	cmp	r3, r4
 800630a:	d1f6      	bne.n	80062fa <msound_init+0xa>
 800630c:	bcf0      	pop	{r4, r5, r6, r7}
 800630e:	bc01      	pop	{r0}
 8006310:	4700      	bx	r0
 8006312:	46c0      	nop			; (mov r8, r8)
 8006314:	03000a14 	.word	0x03000a14
 8006318:	0800a5a4 	.word	0x0800a5a4

0800631c <msound_setUpMono>:
 800631c:	b5f8      	push	{r3, r4, r5, r6, r7, lr}
 800631e:	27b0      	movs	r7, #176	; 0xb0
 8006320:	2680      	movs	r6, #128	; 0x80
 8006322:	2500      	movs	r5, #0
 8006324:	4a0e      	ldr	r2, [pc, #56]	; (8006360 <msound_setUpMono+0x44>)
 8006326:	4b0f      	ldr	r3, [pc, #60]	; (8006364 <msound_setUpMono+0x48>)
 8006328:	801a      	strh	r2, [r3, #0]
 800632a:	4b0f      	ldr	r3, [pc, #60]	; (8006368 <msound_setUpMono+0x4c>)
 800632c:	4c0f      	ldr	r4, [pc, #60]	; (800636c <msound_setUpMono+0x50>)
 800632e:	007f      	lsls	r7, r7, #1
 8006330:	801e      	strh	r6, [r3, #0]
 8006332:	0038      	movs	r0, r7
 8006334:	67a5      	str	r5, [r4, #120]	; 0x78
 8006336:	f002 f85f 	bl	80083f8 <__malloc_from_thumb>
 800633a:	67e0      	str	r0, [r4, #124]	; 0x7c
 800633c:	0038      	movs	r0, r7
 800633e:	f002 f85b 	bl	80083f8 <__malloc_from_thumb>
 8006342:	51a0      	str	r0, [r4, r6]
 8006344:	480a      	ldr	r0, [pc, #40]	; (8006370 <msound_setUpMono+0x54>)
 8006346:	f7fe ff4f 	bl	80051e8 <gbatimer_set>
 800634a:	6fe2      	ldr	r2, [r4, #124]	; 0x7c
 800634c:	4b09      	ldr	r3, [pc, #36]	; (8006374 <msound_setUpMono+0x58>)
 800634e:	609d      	str	r5, [r3, #8]
 8006350:	601a      	str	r2, [r3, #0]
 8006352:	4a09      	ldr	r2, [pc, #36]	; (8006378 <msound_setUpMono+0x5c>)
 8006354:	605a      	str	r2, [r3, #4]
 8006356:	4a09      	ldr	r2, [pc, #36]	; (800637c <msound_setUpMono+0x60>)
 8006358:	609a      	str	r2, [r3, #8]
 800635a:	bcf8      	pop	{r3, r4, r5, r6, r7}
 800635c:	bc01      	pop	{r0}
 800635e:	4700      	bx	r0
 8006360:	ffffb004 	.word	0xffffb004
 8006364:	04000082 	.word	0x04000082
 8006368:	04000084 	.word	0x04000084
 800636c:	03000a14 	.word	0x03000a14
 8006370:	0000063c 	.word	0x0000063c
 8006374:	040000bc 	.word	0x040000bc
 8006378:	040000a0 	.word	0x040000a0
 800637c:	b6400000 	.word	0xb6400000

08006380 <msound_setUpStereo>:
 8006380:	b5f8      	push	{r3, r4, r5, r6, r7, lr}
 8006382:	27b0      	movs	r7, #176	; 0xb0
 8006384:	2680      	movs	r6, #128	; 0x80
 8006386:	2500      	movs	r5, #0
 8006388:	4a12      	ldr	r2, [pc, #72]	; (80063d4 <msound_setUpStereo+0x54>)
 800638a:	4b13      	ldr	r3, [pc, #76]	; (80063d8 <msound_setUpStereo+0x58>)
 800638c:	801a      	strh	r2, [r3, #0]
 800638e:	4b13      	ldr	r3, [pc, #76]	; (80063dc <msound_setUpStereo+0x5c>)
 8006390:	4c13      	ldr	r4, [pc, #76]	; (80063e0 <msound_setUpStereo+0x60>)
 8006392:	007f      	lsls	r7, r7, #1
 8006394:	801e      	strh	r6, [r3, #0]
 8006396:	0038      	movs	r0, r7
 8006398:	67a5      	str	r5, [r4, #120]	; 0x78
 800639a:	f002 f82d 	bl	80083f8 <__malloc_from_thumb>
 800639e:	67e0      	str	r0, [r4, #124]	; 0x7c
 80063a0:	0038      	movs	r0, r7
 80063a2:	f002 f829 	bl	80083f8 <__malloc_from_thumb>
 80063a6:	51a0      	str	r0, [r4, r6]
 80063a8:	480e      	ldr	r0, [pc, #56]	; (80063e4 <msound_setUpStereo+0x64>)
 80063aa:	f7fe ff1d 	bl	80051e8 <gbatimer_set>
 80063ae:	6fe2      	ldr	r2, [r4, #124]	; 0x7c
 80063b0:	4b0d      	ldr	r3, [pc, #52]	; (80063e8 <msound_setUpStereo+0x68>)
 80063b2:	609d      	str	r5, [r3, #8]
 80063b4:	601a      	str	r2, [r3, #0]
 80063b6:	4a0d      	ldr	r2, [pc, #52]	; (80063ec <msound_setUpStereo+0x6c>)
 80063b8:	605a      	str	r2, [r3, #4]
 80063ba:	4a0d      	ldr	r2, [pc, #52]	; (80063f0 <msound_setUpStereo+0x70>)
 80063bc:	609a      	str	r2, [r3, #8]
 80063be:	4b0d      	ldr	r3, [pc, #52]	; (80063f4 <msound_setUpStereo+0x74>)
 80063c0:	59a1      	ldr	r1, [r4, r6]
 80063c2:	609d      	str	r5, [r3, #8]
 80063c4:	6019      	str	r1, [r3, #0]
 80063c6:	490c      	ldr	r1, [pc, #48]	; (80063f8 <msound_setUpStereo+0x78>)
 80063c8:	6059      	str	r1, [r3, #4]
 80063ca:	609a      	str	r2, [r3, #8]
 80063cc:	bcf8      	pop	{r3, r4, r5, r6, r7}
 80063ce:	bc01      	pop	{r0}
 80063d0:	4700      	bx	r0
 80063d2:	46c0      	nop			; (mov r8, r8)
 80063d4:	ffffa90c 	.word	0xffffa90c
 80063d8:	04000082 	.word	0x04000082
 80063dc:	04000084 	.word	0x04000084
 80063e0:	03000a14 	.word	0x03000a14
 80063e4:	0000063c 	.word	0x0000063c
 80063e8:	040000bc 	.word	0x040000bc
 80063ec:	040000a0 	.word	0x040000a0
 80063f0:	b6400000 	.word	0xb6400000
 80063f4:	040000c8 	.word	0x040000c8
 80063f8:	040000a4 	.word	0x040000a4

080063fc <getOpenChannel>:
 80063fc:	2300      	movs	r3, #0
 80063fe:	4906      	ldr	r1, [pc, #24]	; (8006418 <getOpenChannel+0x1c>)
 8006400:	0058      	lsls	r0, r3, #1
 8006402:	18c0      	adds	r0, r0, r3
 8006404:	00c0      	lsls	r0, r0, #3
 8006406:	1808      	adds	r0, r1, r0
 8006408:	7902      	ldrb	r2, [r0, #4]
 800640a:	0652      	lsls	r2, r2, #25
 800640c:	d403      	bmi.n	8006416 <getOpenChannel+0x1a>
 800640e:	3301      	adds	r3, #1
 8006410:	2b05      	cmp	r3, #5
 8006412:	d1f5      	bne.n	8006400 <getOpenChannel+0x4>
 8006414:	2000      	movs	r0, #0
 8006416:	4770      	bx	lr
 8006418:	03000a14 	.word	0x03000a14

0800641c <msound_setChannel3d>:
 800641c:	b5f0      	push	{r4, r5, r6, r7, lr}
 800641e:	46c6      	mov	lr, r8
 8006420:	0006      	movs	r6, r0
 8006422:	4698      	mov	r8, r3
 8006424:	2500      	movs	r5, #0
 8006426:	b500      	push	{lr}
 8006428:	0017      	movs	r7, r2
 800642a:	4a26      	ldr	r2, [pc, #152]	; (80064c4 <msound_setChannel3d+0xa8>)
 800642c:	006b      	lsls	r3, r5, #1
 800642e:	195c      	adds	r4, r3, r5
 8006430:	00e4      	lsls	r4, r4, #3
 8006432:	1914      	adds	r4, r2, r4
 8006434:	7924      	ldrb	r4, [r4, #4]
 8006436:	0664      	lsls	r4, r4, #25
 8006438:	d407      	bmi.n	800644a <msound_setChannel3d+0x2e>
 800643a:	3501      	adds	r5, #1
 800643c:	2d05      	cmp	r5, #5
 800643e:	d1f5      	bne.n	800642c <msound_setChannel3d+0x10>
 8006440:	bc80      	pop	{r7}
 8006442:	46b8      	mov	r8, r7
 8006444:	bcf0      	pop	{r4, r5, r6, r7}
 8006446:	bc01      	pop	{r0}
 8006448:	4700      	bx	r0
 800644a:	2407      	movs	r4, #7
 800644c:	6830      	ldr	r0, [r6, #0]
 800644e:	4684      	mov	ip, r0
 8006450:	79f0      	ldrb	r0, [r6, #7]
 8006452:	43a0      	bics	r0, r4
 8006454:	2840      	cmp	r0, #64	; 0x40
 8006456:	d002      	beq.n	800645e <msound_setChannel3d+0x42>
 8006458:	4660      	mov	r0, ip
 800645a:	0840      	lsrs	r0, r0, #1
 800645c:	4684      	mov	ip, r0
 800645e:	195c      	adds	r4, r3, r5
 8006460:	4663      	mov	r3, ip
 8006462:	00e4      	lsls	r4, r4, #3
 8006464:	5113      	str	r3, [r2, r4]
 8006466:	1914      	adds	r4, r2, r4
 8006468:	4643      	mov	r3, r8
 800646a:	2207      	movs	r2, #7
 800646c:	4013      	ands	r3, r2
 800646e:	00db      	lsls	r3, r3, #3
 8006470:	403a      	ands	r2, r7
 8006472:	4313      	orrs	r3, r2
 8006474:	01c9      	lsls	r1, r1, #7
 8006476:	4319      	orrs	r1, r3
 8006478:	7121      	strb	r1, [r4, #4]
 800647a:	6870      	ldr	r0, [r6, #4]
 800647c:	4912      	ldr	r1, [pc, #72]	; (80064c8 <msound_setChannel3d+0xac>)
 800647e:	0200      	lsls	r0, r0, #8
 8006480:	f001 ffb2 	bl	80083e8 <____aeabi_idiv_from_thumb>
 8006484:	9b06      	ldr	r3, [sp, #24]
 8006486:	061a      	lsls	r2, r3, #24
 8006488:	4643      	mov	r3, r8
 800648a:	4641      	mov	r1, r8
 800648c:	17db      	asrs	r3, r3, #31
 800648e:	1a5b      	subs	r3, r3, r1
 8006490:	210f      	movs	r1, #15
 8006492:	8220      	strh	r0, [r4, #16]
 8006494:	17f8      	asrs	r0, r7, #31
 8006496:	1bc0      	subs	r0, r0, r7
 8006498:	0e12      	lsrs	r2, r2, #24
 800649a:	0fdb      	lsrs	r3, r3, #31
 800649c:	0fc0      	lsrs	r0, r0, #31
 800649e:	18d3      	adds	r3, r2, r3
 80064a0:	1812      	adds	r2, r2, r0
 80064a2:	400b      	ands	r3, r1
 80064a4:	4011      	ands	r1, r2
 80064a6:	0289      	lsls	r1, r1, #10
 80064a8:	039b      	lsls	r3, r3, #14
 80064aa:	6862      	ldr	r2, [r4, #4]
 80064ac:	430b      	orrs	r3, r1
 80064ae:	4907      	ldr	r1, [pc, #28]	; (80064cc <msound_setChannel3d+0xb0>)
 80064b0:	400a      	ands	r2, r1
 80064b2:	4313      	orrs	r3, r2
 80064b4:	6063      	str	r3, [r4, #4]
 80064b6:	2300      	movs	r3, #0
 80064b8:	60a3      	str	r3, [r4, #8]
 80064ba:	60e3      	str	r3, [r4, #12]
 80064bc:	68b3      	ldr	r3, [r6, #8]
 80064be:	6163      	str	r3, [r4, #20]
 80064c0:	e7be      	b.n	8006440 <msound_setChannel3d+0x24>
 80064c2:	46c0      	nop			; (mov r8, r8)
 80064c4:	03000a14 	.word	0x03000a14
 80064c8:	00002910 	.word	0x00002910
 80064cc:	fffc00ff 	.word	0xfffc00ff

080064d0 <msound_setChannel>:
 80064d0:	2200      	movs	r2, #0
 80064d2:	b5f8      	push	{r3, r4, r5, r6, r7, lr}
 80064d4:	0005      	movs	r5, r0
 80064d6:	4815      	ldr	r0, [pc, #84]	; (800652c <msound_setChannel+0x5c>)
 80064d8:	0054      	lsls	r4, r2, #1
 80064da:	18a3      	adds	r3, r4, r2
 80064dc:	00db      	lsls	r3, r3, #3
 80064de:	18c3      	adds	r3, r0, r3
 80064e0:	791b      	ldrb	r3, [r3, #4]
 80064e2:	065b      	lsls	r3, r3, #25
 80064e4:	d405      	bmi.n	80064f2 <msound_setChannel+0x22>
 80064e6:	3201      	adds	r2, #1
 80064e8:	2a05      	cmp	r2, #5
 80064ea:	d1f5      	bne.n	80064d8 <msound_setChannel+0x8>
 80064ec:	bcf8      	pop	{r3, r4, r5, r6, r7}
 80064ee:	bc01      	pop	{r0}
 80064f0:	4700      	bx	r0
 80064f2:	2707      	movs	r7, #7
 80064f4:	79eb      	ldrb	r3, [r5, #7]
 80064f6:	682e      	ldr	r6, [r5, #0]
 80064f8:	43bb      	bics	r3, r7
 80064fa:	2b40      	cmp	r3, #64	; 0x40
 80064fc:	d000      	beq.n	8006500 <msound_setChannel+0x30>
 80064fe:	0876      	lsrs	r6, r6, #1
 8006500:	18a4      	adds	r4, r4, r2
 8006502:	00e4      	lsls	r4, r4, #3
 8006504:	5106      	str	r6, [r0, r4]
 8006506:	01c9      	lsls	r1, r1, #7
 8006508:	1904      	adds	r4, r0, r4
 800650a:	7121      	strb	r1, [r4, #4]
 800650c:	6868      	ldr	r0, [r5, #4]
 800650e:	4908      	ldr	r1, [pc, #32]	; (8006530 <msound_setChannel+0x60>)
 8006510:	0200      	lsls	r0, r0, #8
 8006512:	f001 ff69 	bl	80083e8 <____aeabi_idiv_from_thumb>
 8006516:	6863      	ldr	r3, [r4, #4]
 8006518:	4a06      	ldr	r2, [pc, #24]	; (8006534 <msound_setChannel+0x64>)
 800651a:	4013      	ands	r3, r2
 800651c:	2200      	movs	r2, #0
 800651e:	8220      	strh	r0, [r4, #16]
 8006520:	6063      	str	r3, [r4, #4]
 8006522:	60a2      	str	r2, [r4, #8]
 8006524:	60e2      	str	r2, [r4, #12]
 8006526:	68ab      	ldr	r3, [r5, #8]
 8006528:	6163      	str	r3, [r4, #20]
 800652a:	e7df      	b.n	80064ec <msound_setChannel+0x1c>
 800652c:	03000a14 	.word	0x03000a14
 8006530:	00002910 	.word	0x00002910
 8006534:	fffc00ff 	.word	0xfffc00ff

08006538 <msound_mixMono>:
 8006538:	b5f0      	push	{r4, r5, r6, r7, lr}
 800653a:	4657      	mov	r7, sl
 800653c:	46de      	mov	lr, fp
 800653e:	464e      	mov	r6, r9
 8006540:	4645      	mov	r5, r8
 8006542:	b5e0      	push	{r5, r6, r7, lr}
 8006544:	4f3e      	ldr	r7, [pc, #248]	; (8006640 <msound_mixMono+0x108>)
 8006546:	6fbb      	ldr	r3, [r7, #120]	; 0x78
 8006548:	b085      	sub	sp, #20
 800654a:	2b00      	cmp	r3, #0
 800654c:	d16e      	bne.n	800662c <msound_mixMono+0xf4>
 800654e:	21b0      	movs	r1, #176	; 0xb0
 8006550:	2201      	movs	r2, #1
 8006552:	468a      	mov	sl, r1
 8006554:	33b0      	adds	r3, #176	; 0xb0
 8006556:	2100      	movs	r1, #0
 8006558:	67ba      	str	r2, [r7, #120]	; 0x78
 800655a:	6ffa      	ldr	r2, [r7, #124]	; 0x7c
 800655c:	18d2      	adds	r2, r2, r3
 800655e:	4b39      	ldr	r3, [pc, #228]	; (8006644 <msound_mixMono+0x10c>)
 8006560:	6099      	str	r1, [r3, #8]
 8006562:	4939      	ldr	r1, [pc, #228]	; (8006648 <msound_mixMono+0x110>)
 8006564:	6019      	str	r1, [r3, #0]
 8006566:	2140      	movs	r1, #64	; 0x40
 8006568:	4689      	mov	r9, r1
 800656a:	2100      	movs	r1, #0
 800656c:	468c      	mov	ip, r1
 800656e:	2101      	movs	r1, #1
 8006570:	605a      	str	r2, [r3, #4]
 8006572:	4688      	mov	r8, r1
 8006574:	4a35      	ldr	r2, [pc, #212]	; (800664c <msound_mixMono+0x114>)
 8006576:	4936      	ldr	r1, [pc, #216]	; (8006650 <msound_mixMono+0x118>)
 8006578:	4656      	mov	r6, sl
 800657a:	609a      	str	r2, [r3, #8]
 800657c:	2300      	movs	r3, #0
 800657e:	9103      	str	r1, [sp, #12]
 8006580:	4651      	mov	r1, sl
 8006582:	36b0      	adds	r6, #176	; 0xb0
 8006584:	003a      	movs	r2, r7
 8006586:	46ba      	mov	sl, r7
 8006588:	2501      	movs	r5, #1
 800658a:	001f      	movs	r7, r3
 800658c:	46b3      	mov	fp, r6
 800658e:	9102      	str	r1, [sp, #8]
 8006590:	e003      	b.n	800659a <msound_mixMono+0x62>
 8006592:	3701      	adds	r7, #1
 8006594:	3218      	adds	r2, #24
 8006596:	2f05      	cmp	r7, #5
 8006598:	d03f      	beq.n	800661a <msound_mixMono+0xe2>
 800659a:	4649      	mov	r1, r9
 800659c:	0078      	lsls	r0, r7, #1
 800659e:	19c0      	adds	r0, r0, r7
 80065a0:	00c0      	lsls	r0, r0, #3
 80065a2:	4450      	add	r0, sl
 80065a4:	7903      	ldrb	r3, [r0, #4]
 80065a6:	4219      	tst	r1, r3
 80065a8:	d1f3      	bne.n	8006592 <msound_mixMono+0x5a>
 80065aa:	4653      	mov	r3, sl
 80065ac:	465e      	mov	r6, fp
 80065ae:	46ba      	mov	sl, r7
 80065b0:	9c02      	ldr	r4, [sp, #8]
 80065b2:	9301      	str	r3, [sp, #4]
 80065b4:	e002      	b.n	80065bc <msound_mixMono+0x84>
 80065b6:	3401      	adds	r4, #1
 80065b8:	42a6      	cmp	r6, r4
 80065ba:	d03c      	beq.n	8006636 <msound_mixMono+0xfe>
 80065bc:	7941      	ldrb	r1, [r0, #5]
 80065be:	6893      	ldr	r3, [r2, #8]
 80065c0:	07c9      	lsls	r1, r1, #31
 80065c2:	d40c      	bmi.n	80065de <msound_mixMono+0xa6>
 80065c4:	9901      	ldr	r1, [sp, #4]
 80065c6:	6957      	ldr	r7, [r2, #20]
 80065c8:	6fc9      	ldr	r1, [r1, #124]	; 0x7c
 80065ca:	0a1b      	lsrs	r3, r3, #8
 80065cc:	5cfb      	ldrb	r3, [r7, r3]
 80065ce:	5d0f      	ldrb	r7, [r1, r4]
 80065d0:	46bb      	mov	fp, r7
 80065d2:	445b      	add	r3, fp
 80065d4:	550b      	strb	r3, [r1, r4]
 80065d6:	6891      	ldr	r1, [r2, #8]
 80065d8:	8a13      	ldrh	r3, [r2, #16]
 80065da:	185b      	adds	r3, r3, r1
 80065dc:	6093      	str	r3, [r2, #8]
 80065de:	6811      	ldr	r1, [r2, #0]
 80065e0:	0a1b      	lsrs	r3, r3, #8
 80065e2:	428b      	cmp	r3, r1
 80065e4:	d308      	bcc.n	80065f8 <msound_mixMono+0xc0>
 80065e6:	4663      	mov	r3, ip
 80065e8:	6093      	str	r3, [r2, #8]
 80065ea:	7903      	ldrb	r3, [r0, #4]
 80065ec:	09db      	lsrs	r3, r3, #7
 80065ee:	d103      	bne.n	80065f8 <msound_mixMono+0xc0>
 80065f0:	4641      	mov	r1, r8
 80065f2:	7943      	ldrb	r3, [r0, #5]
 80065f4:	430b      	orrs	r3, r1
 80065f6:	7143      	strb	r3, [r0, #5]
 80065f8:	7943      	ldrb	r3, [r0, #5]
 80065fa:	421d      	tst	r5, r3
 80065fc:	d0db      	beq.n	80065b6 <msound_mixMono+0x7e>
 80065fe:	9b01      	ldr	r3, [sp, #4]
 8006600:	4657      	mov	r7, sl
 8006602:	469a      	mov	sl, r3
 8006604:	0013      	movs	r3, r2
 8006606:	9903      	ldr	r1, [sp, #12]
 8006608:	46b3      	mov	fp, r6
 800660a:	c951      	ldmia	r1!, {r0, r4, r6}
 800660c:	c351      	stmia	r3!, {r0, r4, r6}
 800660e:	3701      	adds	r7, #1
 8006610:	c951      	ldmia	r1!, {r0, r4, r6}
 8006612:	c351      	stmia	r3!, {r0, r4, r6}
 8006614:	3218      	adds	r2, #24
 8006616:	2f05      	cmp	r7, #5
 8006618:	d1bf      	bne.n	800659a <msound_mixMono+0x62>
 800661a:	b005      	add	sp, #20
 800661c:	bcf0      	pop	{r4, r5, r6, r7}
 800661e:	46bb      	mov	fp, r7
 8006620:	46b2      	mov	sl, r6
 8006622:	46a9      	mov	r9, r5
 8006624:	46a0      	mov	r8, r4
 8006626:	bcf0      	pop	{r4, r5, r6, r7}
 8006628:	bc01      	pop	{r0}
 800662a:	4700      	bx	r0
 800662c:	2100      	movs	r1, #0
 800662e:	2300      	movs	r3, #0
 8006630:	2200      	movs	r2, #0
 8006632:	468a      	mov	sl, r1
 8006634:	e78f      	b.n	8006556 <msound_mixMono+0x1e>
 8006636:	9b01      	ldr	r3, [sp, #4]
 8006638:	4657      	mov	r7, sl
 800663a:	46b3      	mov	fp, r6
 800663c:	469a      	mov	sl, r3
 800663e:	e7a8      	b.n	8006592 <msound_mixMono+0x5a>
 8006640:	03000a14 	.word	0x03000a14
 8006644:	040000d4 	.word	0x040000d4
 8006648:	0800a5fc 	.word	0x0800a5fc
 800664c:	8400002c 	.word	0x8400002c
 8006650:	0800a5a4 	.word	0x0800a5a4

08006654 <msound_mixStereoASMR>:
 8006654:	b5f0      	push	{r4, r5, r6, r7, lr}
 8006656:	464e      	mov	r6, r9
 8006658:	46de      	mov	lr, fp
 800665a:	4657      	mov	r7, sl
 800665c:	4645      	mov	r5, r8
 800665e:	b5e0      	push	{r5, r6, r7, lr}
 8006660:	4e5d      	ldr	r6, [pc, #372]	; (80067d8 <msound_mixStereoASMR+0x184>)
 8006662:	6fb3      	ldr	r3, [r6, #120]	; 0x78
 8006664:	b085      	sub	sp, #20
 8006666:	2b00      	cmp	r3, #0
 8006668:	d000      	beq.n	800666c <msound_mixStereoASMR+0x18>
 800666a:	e0ac      	b.n	80067c6 <msound_mixStereoASMR+0x172>
 800666c:	27b0      	movs	r7, #176	; 0xb0
 800666e:	20b0      	movs	r0, #176	; 0xb0
 8006670:	3301      	adds	r3, #1
 8006672:	2500      	movs	r5, #0
 8006674:	6ff2      	ldr	r2, [r6, #124]	; 0x7c
 8006676:	67b3      	str	r3, [r6, #120]	; 0x78
 8006678:	4c58      	ldr	r4, [pc, #352]	; (80067dc <msound_mixStereoASMR+0x188>)
 800667a:	4b59      	ldr	r3, [pc, #356]	; (80067e0 <msound_mixStereoASMR+0x18c>)
 800667c:	19d2      	adds	r2, r2, r7
 800667e:	609d      	str	r5, [r3, #8]
 8006680:	601c      	str	r4, [r3, #0]
 8006682:	605a      	str	r2, [r3, #4]
 8006684:	2280      	movs	r2, #128	; 0x80
 8006686:	4957      	ldr	r1, [pc, #348]	; (80067e4 <msound_mixStereoASMR+0x190>)
 8006688:	6099      	str	r1, [r3, #8]
 800668a:	58b2      	ldr	r2, [r6, r2]
 800668c:	19d2      	adds	r2, r2, r7
 800668e:	609d      	str	r5, [r3, #8]
 8006690:	601c      	str	r4, [r3, #0]
 8006692:	605a      	str	r2, [r3, #4]
 8006694:	6099      	str	r1, [r3, #8]
 8006696:	4b54      	ldr	r3, [pc, #336]	; (80067e8 <msound_mixStereoASMR+0x194>)
 8006698:	4699      	mov	r9, r3
 800669a:	2300      	movs	r3, #0
 800669c:	0032      	movs	r2, r6
 800669e:	469b      	mov	fp, r3
 80066a0:	46b4      	mov	ip, r6
 80066a2:	9003      	str	r0, [sp, #12]
 80066a4:	e004      	b.n	80066b0 <msound_mixStereoASMR+0x5c>
 80066a6:	3501      	adds	r5, #1
 80066a8:	3218      	adds	r2, #24
 80066aa:	2d05      	cmp	r5, #5
 80066ac:	d100      	bne.n	80066b0 <msound_mixStereoASMR+0x5c>
 80066ae:	e081      	b.n	80067b4 <msound_mixStereoASMR+0x160>
 80066b0:	2040      	movs	r0, #64	; 0x40
 80066b2:	006e      	lsls	r6, r5, #1
 80066b4:	1973      	adds	r3, r6, r5
 80066b6:	00db      	lsls	r3, r3, #3
 80066b8:	4463      	add	r3, ip
 80066ba:	7919      	ldrb	r1, [r3, #4]
 80066bc:	4208      	tst	r0, r1
 80066be:	d1f2      	bne.n	80066a6 <msound_mixStereoASMR+0x52>
 80066c0:	2002      	movs	r0, #2
 80066c2:	4682      	mov	sl, r0
 80066c4:	4660      	mov	r0, ip
 80066c6:	2100      	movs	r1, #0
 80066c8:	46b4      	mov	ip, r6
 80066ca:	9c03      	ldr	r4, [sp, #12]
 80066cc:	9502      	str	r5, [sp, #8]
 80066ce:	9001      	str	r0, [sp, #4]
 80066d0:	e004      	b.n	80066dc <msound_mixStereoASMR+0x88>
 80066d2:	3101      	adds	r1, #1
 80066d4:	3401      	adds	r4, #1
 80066d6:	29b0      	cmp	r1, #176	; 0xb0
 80066d8:	d100      	bne.n	80066dc <msound_mixStereoASMR+0x88>
 80066da:	e078      	b.n	80067ce <msound_mixStereoASMR+0x17a>
 80066dc:	7958      	ldrb	r0, [r3, #5]
 80066de:	07c5      	lsls	r5, r0, #31
 80066e0:	d416      	bmi.n	8006710 <msound_mixStereoASMR+0xbc>
 80066e2:	791d      	ldrb	r5, [r3, #4]
 80066e4:	076d      	lsls	r5, r5, #29
 80066e6:	0f6d      	lsrs	r5, r5, #29
 80066e8:	428d      	cmp	r5, r1
 80066ea:	dc11      	bgt.n	8006710 <msound_mixStereoASMR+0xbc>
 80066ec:	9d01      	ldr	r5, [sp, #4]
 80066ee:	6fef      	ldr	r7, [r5, #124]	; 0x7c
 80066f0:	6895      	ldr	r5, [r2, #8]
 80066f2:	6956      	ldr	r6, [r2, #20]
 80066f4:	0a2d      	lsrs	r5, r5, #8
 80066f6:	5775      	ldrsb	r5, [r6, r5]
 80066f8:	263c      	movs	r6, #60	; 0x3c
 80066fa:	4030      	ands	r0, r6
 80066fc:	4448      	add	r0, r9
 80066fe:	6980      	ldr	r0, [r0, #24]
 8006700:	4105      	asrs	r5, r0
 8006702:	5d38      	ldrb	r0, [r7, r4]
 8006704:	182d      	adds	r5, r5, r0
 8006706:	553d      	strb	r5, [r7, r4]
 8006708:	6890      	ldr	r0, [r2, #8]
 800670a:	8a15      	ldrh	r5, [r2, #16]
 800670c:	1940      	adds	r0, r0, r5
 800670e:	6090      	str	r0, [r2, #8]
 8006710:	7958      	ldrb	r0, [r3, #5]
 8006712:	0780      	lsls	r0, r0, #30
 8006714:	d419      	bmi.n	800674a <msound_mixStereoASMR+0xf6>
 8006716:	7918      	ldrb	r0, [r3, #4]
 8006718:	0680      	lsls	r0, r0, #26
 800671a:	0f40      	lsrs	r0, r0, #29
 800671c:	4288      	cmp	r0, r1
 800671e:	dc14      	bgt.n	800674a <msound_mixStereoASMR+0xf6>
 8006720:	2080      	movs	r0, #128	; 0x80
 8006722:	9d01      	ldr	r5, [sp, #4]
 8006724:	582f      	ldr	r7, [r5, r0]
 8006726:	68d0      	ldr	r0, [r2, #12]
 8006728:	6955      	ldr	r5, [r2, #20]
 800672a:	0a00      	lsrs	r0, r0, #8
 800672c:	562d      	ldrsb	r5, [r5, r0]
 800672e:	6858      	ldr	r0, [r3, #4]
 8006730:	0380      	lsls	r0, r0, #14
 8006732:	0f00      	lsrs	r0, r0, #28
 8006734:	0080      	lsls	r0, r0, #2
 8006736:	4448      	add	r0, r9
 8006738:	6980      	ldr	r0, [r0, #24]
 800673a:	4105      	asrs	r5, r0
 800673c:	5d38      	ldrb	r0, [r7, r4]
 800673e:	182d      	adds	r5, r5, r0
 8006740:	553d      	strb	r5, [r7, r4]
 8006742:	68d0      	ldr	r0, [r2, #12]
 8006744:	8a15      	ldrh	r5, [r2, #16]
 8006746:	1940      	adds	r0, r0, r5
 8006748:	60d0      	str	r0, [r2, #12]
 800674a:	6890      	ldr	r0, [r2, #8]
 800674c:	6815      	ldr	r5, [r2, #0]
 800674e:	0a00      	lsrs	r0, r0, #8
 8006750:	42a8      	cmp	r0, r5
 8006752:	d308      	bcc.n	8006766 <msound_mixStereoASMR+0x112>
 8006754:	4658      	mov	r0, fp
 8006756:	6090      	str	r0, [r2, #8]
 8006758:	7918      	ldrb	r0, [r3, #4]
 800675a:	09c0      	lsrs	r0, r0, #7
 800675c:	d103      	bne.n	8006766 <msound_mixStereoASMR+0x112>
 800675e:	2601      	movs	r6, #1
 8006760:	7958      	ldrb	r0, [r3, #5]
 8006762:	4330      	orrs	r0, r6
 8006764:	7158      	strb	r0, [r3, #5]
 8006766:	68d0      	ldr	r0, [r2, #12]
 8006768:	0a00      	lsrs	r0, r0, #8
 800676a:	4285      	cmp	r5, r0
 800676c:	d808      	bhi.n	8006780 <msound_mixStereoASMR+0x12c>
 800676e:	4658      	mov	r0, fp
 8006770:	60d0      	str	r0, [r2, #12]
 8006772:	7918      	ldrb	r0, [r3, #4]
 8006774:	09c0      	lsrs	r0, r0, #7
 8006776:	d103      	bne.n	8006780 <msound_mixStereoASMR+0x12c>
 8006778:	4655      	mov	r5, sl
 800677a:	7958      	ldrb	r0, [r3, #5]
 800677c:	4328      	orrs	r0, r5
 800677e:	7158      	strb	r0, [r3, #5]
 8006780:	7958      	ldrb	r0, [r3, #5]
 8006782:	43c0      	mvns	r0, r0
 8006784:	0780      	lsls	r0, r0, #30
 8006786:	d1a4      	bne.n	80066d2 <msound_mixStereoASMR+0x7e>
 8006788:	9b01      	ldr	r3, [sp, #4]
 800678a:	4666      	mov	r6, ip
 800678c:	469c      	mov	ip, r3
 800678e:	0013      	movs	r3, r2
 8006790:	4915      	ldr	r1, [pc, #84]	; (80067e8 <msound_mixStereoASMR+0x194>)
 8006792:	9d02      	ldr	r5, [sp, #8]
 8006794:	c991      	ldmia	r1!, {r0, r4, r7}
 8006796:	c391      	stmia	r3!, {r0, r4, r7}
 8006798:	c991      	ldmia	r1!, {r0, r4, r7}
 800679a:	c391      	stmia	r3!, {r0, r4, r7}
 800679c:	213f      	movs	r1, #63	; 0x3f
 800679e:	1976      	adds	r6, r6, r5
 80067a0:	00f6      	lsls	r6, r6, #3
 80067a2:	4466      	add	r6, ip
 80067a4:	7933      	ldrb	r3, [r6, #4]
 80067a6:	3501      	adds	r5, #1
 80067a8:	438b      	bics	r3, r1
 80067aa:	7133      	strb	r3, [r6, #4]
 80067ac:	3218      	adds	r2, #24
 80067ae:	2d05      	cmp	r5, #5
 80067b0:	d000      	beq.n	80067b4 <msound_mixStereoASMR+0x160>
 80067b2:	e77d      	b.n	80066b0 <msound_mixStereoASMR+0x5c>
 80067b4:	b005      	add	sp, #20
 80067b6:	bcf0      	pop	{r4, r5, r6, r7}
 80067b8:	46bb      	mov	fp, r7
 80067ba:	46b2      	mov	sl, r6
 80067bc:	46a9      	mov	r9, r5
 80067be:	46a0      	mov	r8, r4
 80067c0:	bcf0      	pop	{r4, r5, r6, r7}
 80067c2:	bc01      	pop	{r0}
 80067c4:	4700      	bx	r0
 80067c6:	2700      	movs	r7, #0
 80067c8:	2300      	movs	r3, #0
 80067ca:	2000      	movs	r0, #0
 80067cc:	e751      	b.n	8006672 <msound_mixStereoASMR+0x1e>
 80067ce:	9b01      	ldr	r3, [sp, #4]
 80067d0:	4666      	mov	r6, ip
 80067d2:	9d02      	ldr	r5, [sp, #8]
 80067d4:	469c      	mov	ip, r3
 80067d6:	e7e1      	b.n	800679c <msound_mixStereoASMR+0x148>
 80067d8:	03000a14 	.word	0x03000a14
 80067dc:	0800a5fc 	.word	0x0800a5fc
 80067e0:	040000d4 	.word	0x040000d4
 80067e4:	8400002c 	.word	0x8400002c
 80067e8:	0800a5a4 	.word	0x0800a5a4

080067ec <msound_changeBuf>:
 80067ec:	4a0a      	ldr	r2, [pc, #40]	; (8006818 <msound_changeBuf+0x2c>)
 80067ee:	6f93      	ldr	r3, [r2, #120]	; 0x78
 80067f0:	2b00      	cmp	r3, #0
 80067f2:	d10f      	bne.n	8006814 <msound_changeBuf+0x28>
 80067f4:	6fd0      	ldr	r0, [r2, #124]	; 0x7c
 80067f6:	4909      	ldr	r1, [pc, #36]	; (800681c <msound_changeBuf+0x30>)
 80067f8:	608b      	str	r3, [r1, #8]
 80067fa:	6008      	str	r0, [r1, #0]
 80067fc:	4808      	ldr	r0, [pc, #32]	; (8006820 <msound_changeBuf+0x34>)
 80067fe:	6048      	str	r0, [r1, #4]
 8006800:	4808      	ldr	r0, [pc, #32]	; (8006824 <msound_changeBuf+0x38>)
 8006802:	6088      	str	r0, [r1, #8]
 8006804:	2180      	movs	r1, #128	; 0x80
 8006806:	5851      	ldr	r1, [r2, r1]
 8006808:	4a07      	ldr	r2, [pc, #28]	; (8006828 <msound_changeBuf+0x3c>)
 800680a:	6093      	str	r3, [r2, #8]
 800680c:	4b07      	ldr	r3, [pc, #28]	; (800682c <msound_changeBuf+0x40>)
 800680e:	6011      	str	r1, [r2, #0]
 8006810:	6053      	str	r3, [r2, #4]
 8006812:	6090      	str	r0, [r2, #8]
 8006814:	4770      	bx	lr
 8006816:	46c0      	nop			; (mov r8, r8)
 8006818:	03000a14 	.word	0x03000a14
 800681c:	040000c8 	.word	0x040000c8
 8006820:	040000a4 	.word	0x040000a4
 8006824:	b6400000 	.word	0xb6400000
 8006828:	040000bc 	.word	0x040000bc
 800682c:	040000a0 	.word	0x040000a0

08006830 <msound_process3dSound>:
 8006830:	6803      	ldr	r3, [r0, #0]
 8006832:	43db      	mvns	r3, r3
 8006834:	b510      	push	{r4, lr}
 8006836:	2405      	movs	r4, #5
 8006838:	17db      	asrs	r3, r3, #31
 800683a:	43a3      	bics	r3, r4
 800683c:	3306      	adds	r3, #6
 800683e:	600b      	str	r3, [r1, #0]
 8006840:	6801      	ldr	r1, [r0, #0]
 8006842:	2300      	movs	r3, #0
 8006844:	2900      	cmp	r1, #0
 8006846:	dd00      	ble.n	800684a <msound_process3dSound+0x1a>
 8006848:	3306      	adds	r3, #6
 800684a:	6013      	str	r3, [r2, #0]
 800684c:	6803      	ldr	r3, [r0, #0]
 800684e:	111b      	asrs	r3, r3, #4
 8006850:	43da      	mvns	r2, r3
 8006852:	0fd9      	lsrs	r1, r3, #31
 8006854:	0fd2      	lsrs	r2, r2, #31
 8006856:	1a52      	subs	r2, r2, r1
 8006858:	4353      	muls	r3, r2
 800685a:	6003      	str	r3, [r0, #0]
 800685c:	bc10      	pop	{r4}
 800685e:	bc01      	pop	{r0}
 8006860:	4700      	bx	r0
 8006862:	46c0      	nop			; (mov r8, r8)

08006864 <sprite_vram_init>:
 8006864:	b570      	push	{r4, r5, r6, lr}
 8006866:	4d0a      	ldr	r5, [pc, #40]	; (8006890 <sprite_vram_init+0x2c>)
 8006868:	2300      	movs	r3, #0
 800686a:	002c      	movs	r4, r5
 800686c:	2100      	movs	r1, #0
 800686e:	2601      	movs	r6, #1
 8006870:	8023      	strh	r3, [r4, #0]
 8006872:	008a      	lsls	r2, r1, #2
 8006874:	18aa      	adds	r2, r5, r2
 8006876:	7890      	ldrb	r0, [r2, #2]
 8006878:	3340      	adds	r3, #64	; 0x40
 800687a:	43b0      	bics	r0, r6
 800687c:	041b      	lsls	r3, r3, #16
 800687e:	3101      	adds	r1, #1
 8006880:	7090      	strb	r0, [r2, #2]
 8006882:	0c1b      	lsrs	r3, r3, #16
 8006884:	3404      	adds	r4, #4
 8006886:	290f      	cmp	r1, #15
 8006888:	d1f2      	bne.n	8006870 <sprite_vram_init+0xc>
 800688a:	bc70      	pop	{r4, r5, r6}
 800688c:	bc01      	pop	{r0}
 800688e:	4700      	bx	r0
 8006890:	03000a98 	.word	0x03000a98

08006894 <sprite_vram_findId>:
 8006894:	2300      	movs	r3, #0
 8006896:	b530      	push	{r4, r5, lr}
 8006898:	4c08      	ldr	r4, [pc, #32]	; (80068bc <sprite_vram_findId+0x28>)
 800689a:	0099      	lsls	r1, r3, #2
 800689c:	1860      	adds	r0, r4, r1
 800689e:	7882      	ldrb	r2, [r0, #2]
 80068a0:	07d5      	lsls	r5, r2, #31
 80068a2:	d505      	bpl.n	80068b0 <sprite_vram_findId+0x1c>
 80068a4:	3301      	adds	r3, #1
 80068a6:	2b0f      	cmp	r3, #15
 80068a8:	d1f7      	bne.n	800689a <sprite_vram_findId+0x6>
 80068aa:	bc30      	pop	{r4, r5}
 80068ac:	bc02      	pop	{r1}
 80068ae:	4708      	bx	r1
 80068b0:	2301      	movs	r3, #1
 80068b2:	431a      	orrs	r2, r3
 80068b4:	7082      	strb	r2, [r0, #2]
 80068b6:	5a60      	ldrh	r0, [r4, r1]
 80068b8:	e7f7      	b.n	80068aa <sprite_vram_findId+0x16>
 80068ba:	46c0      	nop			; (mov r8, r8)
 80068bc:	03000a98 	.word	0x03000a98

080068c0 <sprite_vram_freeId>:
 80068c0:	b510      	push	{r4, lr}
 80068c2:	4c0a      	ldr	r4, [pc, #40]	; (80068ec <sprite_vram_freeId+0x2c>)
 80068c4:	2300      	movs	r3, #0
 80068c6:	0022      	movs	r2, r4
 80068c8:	8811      	ldrh	r1, [r2, #0]
 80068ca:	4281      	cmp	r1, r0
 80068cc:	d006      	beq.n	80068dc <sprite_vram_freeId+0x1c>
 80068ce:	3301      	adds	r3, #1
 80068d0:	3204      	adds	r2, #4
 80068d2:	2b0f      	cmp	r3, #15
 80068d4:	d1f8      	bne.n	80068c8 <sprite_vram_freeId+0x8>
 80068d6:	bc10      	pop	{r4}
 80068d8:	bc01      	pop	{r0}
 80068da:	4700      	bx	r0
 80068dc:	2201      	movs	r2, #1
 80068de:	009b      	lsls	r3, r3, #2
 80068e0:	18e4      	adds	r4, r4, r3
 80068e2:	78a3      	ldrb	r3, [r4, #2]
 80068e4:	4393      	bics	r3, r2
 80068e6:	70a3      	strb	r3, [r4, #2]
 80068e8:	e7f5      	b.n	80068d6 <sprite_vram_freeId+0x16>
 80068ea:	46c0      	nop			; (mov r8, r8)
 80068ec:	03000a98 	.word	0x03000a98

080068f0 <sprite_vram_copy32_ID>:
 80068f0:	4b08      	ldr	r3, [pc, #32]	; (8006914 <sprite_vram_copy32_ID+0x24>)
 80068f2:	469c      	mov	ip, r3
 80068f4:	b510      	push	{r4, lr}
 80068f6:	2400      	movs	r4, #0
 80068f8:	4b07      	ldr	r3, [pc, #28]	; (8006918 <sprite_vram_copy32_ID+0x28>)
 80068fa:	0152      	lsls	r2, r2, #5
 80068fc:	4462      	add	r2, ip
 80068fe:	609c      	str	r4, [r3, #8]
 8006900:	6018      	str	r0, [r3, #0]
 8006902:	605a      	str	r2, [r3, #4]
 8006904:	2284      	movs	r2, #132	; 0x84
 8006906:	0612      	lsls	r2, r2, #24
 8006908:	430a      	orrs	r2, r1
 800690a:	609a      	str	r2, [r3, #8]
 800690c:	bc10      	pop	{r4}
 800690e:	bc01      	pop	{r0}
 8006910:	4700      	bx	r0
 8006912:	46c0      	nop			; (mov r8, r8)
 8006914:	06010000 	.word	0x06010000
 8006918:	040000d4 	.word	0x040000d4

0800691c <sprite_getID>:
 800691c:	4341      	muls	r1, r0
 800691e:	4a03      	ldr	r2, [pc, #12]	; (800692c <sprite_getID+0x10>)
 8006920:	6bd3      	ldr	r3, [r2, #60]	; 0x3c
 8006922:	0989      	lsrs	r1, r1, #6
 8006924:	18c9      	adds	r1, r1, r3
 8006926:	0018      	movs	r0, r3
 8006928:	63d1      	str	r1, [r2, #60]	; 0x3c
 800692a:	4770      	bx	lr
 800692c:	03000a98 	.word	0x03000a98

08006930 <sprite_vram_reset>:
 8006930:	2200      	movs	r2, #0
 8006932:	4b01      	ldr	r3, [pc, #4]	; (8006938 <sprite_vram_reset+0x8>)
 8006934:	63da      	str	r2, [r3, #60]	; 0x3c
 8006936:	4770      	bx	lr
 8006938:	03000a98 	.word	0x03000a98

0800693c <sprite_palette_init>:
 800693c:	490a      	ldr	r1, [pc, #40]	; (8006968 <sprite_palette_init+0x2c>)
 800693e:	b5f0      	push	{r4, r5, r6, r7, lr}
 8006940:	2200      	movs	r2, #0
 8006942:	000d      	movs	r5, r1
 8006944:	241f      	movs	r4, #31
 8006946:	27ff      	movs	r7, #255	; 0xff
 8006948:	0026      	movs	r6, r4
 800694a:	0090      	lsls	r0, r2, #2
 800694c:	5c2b      	ldrb	r3, [r5, r0]
 800694e:	4016      	ands	r6, r2
 8006950:	43a3      	bics	r3, r4
 8006952:	4333      	orrs	r3, r6
 8006954:	3201      	adds	r2, #1
 8006956:	542b      	strb	r3, [r5, r0]
 8006958:	704f      	strb	r7, [r1, #1]
 800695a:	3104      	adds	r1, #4
 800695c:	2a0f      	cmp	r2, #15
 800695e:	d1f3      	bne.n	8006948 <sprite_palette_init+0xc>
 8006960:	bcf0      	pop	{r4, r5, r6, r7}
 8006962:	bc01      	pop	{r0}
 8006964:	4700      	bx	r0
 8006966:	46c0      	nop			; (mov r8, r8)
 8006968:	03000ad8 	.word	0x03000ad8

0800696c <sprite_palette_findId>:
 800696c:	b5f0      	push	{r4, r5, r6, r7, lr}
 800696e:	46ce      	mov	lr, r9
 8006970:	4647      	mov	r7, r8
 8006972:	4e1c      	ldr	r6, [pc, #112]	; (80069e4 <sprite_palette_findId+0x78>)
 8006974:	0034      	movs	r4, r6
 8006976:	2200      	movs	r2, #0
 8006978:	b580      	push	{r7, lr}
 800697a:	3441      	adds	r4, #65	; 0x41
 800697c:	0095      	lsls	r5, r2, #2
 800697e:	1973      	adds	r3, r6, r5
 8006980:	3340      	adds	r3, #64	; 0x40
 8006982:	781b      	ldrb	r3, [r3, #0]
 8006984:	06df      	lsls	r7, r3, #27
 8006986:	d50f      	bpl.n	80069a8 <sprite_palette_findId+0x3c>
 8006988:	2500      	movs	r5, #0
 800698a:	5765      	ldrsb	r5, [r4, r5]
 800698c:	4285      	cmp	r5, r0
 800698e:	d026      	beq.n	80069de <sprite_palette_findId+0x72>
 8006990:	3201      	adds	r2, #1
 8006992:	3404      	adds	r4, #4
 8006994:	2a0f      	cmp	r2, #15
 8006996:	d1f1      	bne.n	800697c <sprite_palette_findId+0x10>
 8006998:	2001      	movs	r0, #1
 800699a:	4240      	negs	r0, r0
 800699c:	bcc0      	pop	{r6, r7}
 800699e:	46b9      	mov	r9, r7
 80069a0:	46b0      	mov	r8, r6
 80069a2:	bcf0      	pop	{r4, r5, r6, r7}
 80069a4:	bc02      	pop	{r1}
 80069a6:	4708      	bx	r1
 80069a8:	2900      	cmp	r1, #0
 80069aa:	dd12      	ble.n	80069d2 <sprite_palette_findId+0x66>
 80069ac:	2310      	movs	r3, #16
 80069ae:	4698      	mov	r8, r3
 80069b0:	2340      	movs	r3, #64	; 0x40
 80069b2:	4689      	mov	r9, r1
 80069b4:	469c      	mov	ip, r3
 80069b6:	4491      	add	r9, r2
 80069b8:	44b4      	add	ip, r6
 80069ba:	4647      	mov	r7, r8
 80069bc:	0093      	lsls	r3, r2, #2
 80069be:	18f1      	adds	r1, r6, r3
 80069c0:	3140      	adds	r1, #64	; 0x40
 80069c2:	780c      	ldrb	r4, [r1, #0]
 80069c4:	4463      	add	r3, ip
 80069c6:	433c      	orrs	r4, r7
 80069c8:	3201      	adds	r2, #1
 80069ca:	700c      	strb	r4, [r1, #0]
 80069cc:	7058      	strb	r0, [r3, #1]
 80069ce:	454a      	cmp	r2, r9
 80069d0:	d1f3      	bne.n	80069ba <sprite_palette_findId+0x4e>
 80069d2:	1976      	adds	r6, r6, r5
 80069d4:	3640      	adds	r6, #64	; 0x40
 80069d6:	7830      	ldrb	r0, [r6, #0]
 80069d8:	0700      	lsls	r0, r0, #28
 80069da:	0f00      	lsrs	r0, r0, #28
 80069dc:	e7de      	b.n	800699c <sprite_palette_findId+0x30>
 80069de:	0718      	lsls	r0, r3, #28
 80069e0:	0f00      	lsrs	r0, r0, #28
 80069e2:	e7db      	b.n	800699c <sprite_palette_findId+0x30>
 80069e4:	03000a98 	.word	0x03000a98

080069e8 <sprite_palette_copy32>:
 80069e8:	2300      	movs	r3, #0
 80069ea:	b510      	push	{r4, lr}
 80069ec:	4c08      	ldr	r4, [pc, #32]	; (8006a10 <sprite_palette_copy32+0x28>)
 80069ee:	46a4      	mov	ip, r4
 80069f0:	4a08      	ldr	r2, [pc, #32]	; (8006a14 <sprite_palette_copy32+0x2c>)
 80069f2:	6093      	str	r3, [r2, #8]
 80069f4:	6010      	str	r0, [r2, #0]
 80069f6:	4808      	ldr	r0, [pc, #32]	; (8006a18 <sprite_palette_copy32+0x30>)
 80069f8:	6fc3      	ldr	r3, [r0, #124]	; 0x7c
 80069fa:	0099      	lsls	r1, r3, #2
 80069fc:	4461      	add	r1, ip
 80069fe:	6051      	str	r1, [r2, #4]
 8006a00:	4906      	ldr	r1, [pc, #24]	; (8006a1c <sprite_palette_copy32+0x34>)
 8006a02:	3308      	adds	r3, #8
 8006a04:	6091      	str	r1, [r2, #8]
 8006a06:	67c3      	str	r3, [r0, #124]	; 0x7c
 8006a08:	bc10      	pop	{r4}
 8006a0a:	bc01      	pop	{r0}
 8006a0c:	4700      	bx	r0
 8006a0e:	46c0      	nop			; (mov r8, r8)
 8006a10:	05000200 	.word	0x05000200
 8006a14:	040000d4 	.word	0x040000d4
 8006a18:	03000a98 	.word	0x03000a98
 8006a1c:	84000008 	.word	0x84000008

08006a20 <sprite_palette_copy32_ID>:
 8006a20:	4b05      	ldr	r3, [pc, #20]	; (8006a38 <sprite_palette_copy32_ID+0x18>)
 8006a22:	2200      	movs	r2, #0
 8006a24:	469c      	mov	ip, r3
 8006a26:	4b05      	ldr	r3, [pc, #20]	; (8006a3c <sprite_palette_copy32_ID+0x1c>)
 8006a28:	0149      	lsls	r1, r1, #5
 8006a2a:	609a      	str	r2, [r3, #8]
 8006a2c:	4a04      	ldr	r2, [pc, #16]	; (8006a40 <sprite_palette_copy32_ID+0x20>)
 8006a2e:	4461      	add	r1, ip
 8006a30:	6018      	str	r0, [r3, #0]
 8006a32:	6059      	str	r1, [r3, #4]
 8006a34:	609a      	str	r2, [r3, #8]
 8006a36:	4770      	bx	lr
 8006a38:	05000200 	.word	0x05000200
 8006a3c:	040000d4 	.word	0x040000d4
 8006a40:	84000008 	.word	0x84000008

08006a44 <sprite_palette_getID>:
 8006a44:	4b01      	ldr	r3, [pc, #4]	; (8006a4c <sprite_palette_getID+0x8>)
 8006a46:	6fd8      	ldr	r0, [r3, #124]	; 0x7c
 8006a48:	08c0      	lsrs	r0, r0, #3
 8006a4a:	4770      	bx	lr
 8006a4c:	03000a98 	.word	0x03000a98

08006a50 <sprite_palette_reset>:
 8006a50:	2200      	movs	r2, #0
 8006a52:	4b01      	ldr	r3, [pc, #4]	; (8006a58 <sprite_palette_reset+0x8>)
 8006a54:	67da      	str	r2, [r3, #124]	; 0x7c
 8006a56:	4770      	bx	lr
 8006a58:	03000a98 	.word	0x03000a98

08006a5c <tiles_vram_copy32>:
 8006a5c:	b530      	push	{r4, r5, lr}
 8006a5e:	25c0      	movs	r5, #192	; 0xc0
 8006a60:	2200      	movs	r2, #0
 8006a62:	04ed      	lsls	r5, r5, #19
 8006a64:	46ac      	mov	ip, r5
 8006a66:	4b09      	ldr	r3, [pc, #36]	; (8006a8c <tiles_vram_copy32+0x30>)
 8006a68:	609a      	str	r2, [r3, #8]
 8006a6a:	6018      	str	r0, [r3, #0]
 8006a6c:	4808      	ldr	r0, [pc, #32]	; (8006a90 <tiles_vram_copy32+0x34>)
 8006a6e:	6804      	ldr	r4, [r0, #0]
 8006a70:	0162      	lsls	r2, r4, #5
 8006a72:	4462      	add	r2, ip
 8006a74:	605a      	str	r2, [r3, #4]
 8006a76:	2284      	movs	r2, #132	; 0x84
 8006a78:	0612      	lsls	r2, r2, #24
 8006a7a:	430a      	orrs	r2, r1
 8006a7c:	0189      	lsls	r1, r1, #6
 8006a7e:	1909      	adds	r1, r1, r4
 8006a80:	609a      	str	r2, [r3, #8]
 8006a82:	6001      	str	r1, [r0, #0]
 8006a84:	bc30      	pop	{r4, r5}
 8006a86:	bc01      	pop	{r0}
 8006a88:	4700      	bx	r0
 8006a8a:	46c0      	nop			; (mov r8, r8)
 8006a8c:	040000d4 	.word	0x040000d4
 8006a90:	03000b18 	.word	0x03000b18

08006a94 <map_vram_copy32>:
 8006a94:	b530      	push	{r4, r5, lr}
 8006a96:	25c0      	movs	r5, #192	; 0xc0
 8006a98:	2200      	movs	r2, #0
 8006a9a:	04ed      	lsls	r5, r5, #19
 8006a9c:	46ac      	mov	ip, r5
 8006a9e:	4b09      	ldr	r3, [pc, #36]	; (8006ac4 <map_vram_copy32+0x30>)
 8006aa0:	609a      	str	r2, [r3, #8]
 8006aa2:	6018      	str	r0, [r3, #0]
 8006aa4:	4808      	ldr	r0, [pc, #32]	; (8006ac8 <map_vram_copy32+0x34>)
 8006aa6:	6804      	ldr	r4, [r0, #0]
 8006aa8:	0162      	lsls	r2, r4, #5
 8006aaa:	4462      	add	r2, ip
 8006aac:	605a      	str	r2, [r3, #4]
 8006aae:	2284      	movs	r2, #132	; 0x84
 8006ab0:	0612      	lsls	r2, r2, #24
 8006ab2:	430a      	orrs	r2, r1
 8006ab4:	0189      	lsls	r1, r1, #6
 8006ab6:	1909      	adds	r1, r1, r4
 8006ab8:	609a      	str	r2, [r3, #8]
 8006aba:	6001      	str	r1, [r0, #0]
 8006abc:	bc30      	pop	{r4, r5}
 8006abe:	bc01      	pop	{r0}
 8006ac0:	4700      	bx	r0
 8006ac2:	46c0      	nop			; (mov r8, r8)
 8006ac4:	040000d4 	.word	0x040000d4
 8006ac8:	03000b18 	.word	0x03000b18

08006acc <getBGMemoryCurrent>:
 8006acc:	4b01      	ldr	r3, [pc, #4]	; (8006ad4 <getBGMemoryCurrent+0x8>)
 8006ace:	6818      	ldr	r0, [r3, #0]
 8006ad0:	4770      	bx	lr
 8006ad2:	46c0      	nop			; (mov r8, r8)
 8006ad4:	03000b18 	.word	0x03000b18

08006ad8 <memFill16>:
 8006ad8:	b510      	push	{r4, lr}
 8006ada:	2400      	movs	r4, #0
 8006adc:	4b05      	ldr	r3, [pc, #20]	; (8006af4 <memFill16+0x1c>)
 8006ade:	609c      	str	r4, [r3, #8]
 8006ae0:	6018      	str	r0, [r3, #0]
 8006ae2:	6059      	str	r1, [r3, #4]
 8006ae4:	2181      	movs	r1, #129	; 0x81
 8006ae6:	0609      	lsls	r1, r1, #24
 8006ae8:	4311      	orrs	r1, r2
 8006aea:	6099      	str	r1, [r3, #8]
 8006aec:	bc10      	pop	{r4}
 8006aee:	bc01      	pop	{r0}
 8006af0:	4700      	bx	r0
 8006af2:	46c0      	nop			; (mov r8, r8)
 8006af4:	040000d4 	.word	0x040000d4

08006af8 <sprite_get_palette_ID>:
 8006af8:	4b02      	ldr	r3, [pc, #8]	; (8006b04 <sprite_get_palette_ID+0xc>)
 8006afa:	469c      	mov	ip, r3
 8006afc:	0140      	lsls	r0, r0, #5
 8006afe:	4460      	add	r0, ip
 8006b00:	4770      	bx	lr
 8006b02:	46c0      	nop			; (mov r8, r8)
 8006b04:	05000200 	.word	0x05000200

08006b08 <returnToScreen>:
 8006b08:	490d      	ldr	r1, [pc, #52]	; (8006b40 <returnToScreen+0x38>)
 8006b0a:	6808      	ldr	r0, [r1, #0]
 8006b0c:	3001      	adds	r0, #1
 8006b0e:	6008      	str	r0, [r1, #0]
 8006b10:	684b      	ldr	r3, [r1, #4]
 8006b12:	2801      	cmp	r0, #1
 8006b14:	dd03      	ble.n	8006b1e <returnToScreen+0x16>
 8006b16:	2000      	movs	r0, #0
 8006b18:	3b01      	subs	r3, #1
 8006b1a:	6008      	str	r0, [r1, #0]
 8006b1c:	604b      	str	r3, [r1, #4]
 8006b1e:	2b00      	cmp	r3, #0
 8006b20:	dc05      	bgt.n	8006b2e <returnToScreen+0x26>
 8006b22:	6891      	ldr	r1, [r2, #8]
 8006b24:	6889      	ldr	r1, [r1, #8]
 8006b26:	6a49      	ldr	r1, [r1, #36]	; 0x24
 8006b28:	6251      	str	r1, [r2, #36]	; 0x24
 8006b2a:	2100      	movs	r1, #0
 8006b2c:	6091      	str	r1, [r2, #8]
 8006b2e:	21f3      	movs	r1, #243	; 0xf3
 8006b30:	4a04      	ldr	r2, [pc, #16]	; (8006b44 <returnToScreen+0x3c>)
 8006b32:	041b      	lsls	r3, r3, #16
 8006b34:	8011      	strh	r1, [r2, #0]
 8006b36:	4a04      	ldr	r2, [pc, #16]	; (8006b48 <returnToScreen+0x40>)
 8006b38:	0c1b      	lsrs	r3, r3, #16
 8006b3a:	8013      	strh	r3, [r2, #0]
 8006b3c:	4770      	bx	lr
 8006b3e:	46c0      	nop			; (mov r8, r8)
 8006b40:	03000b1c 	.word	0x03000b1c
 8006b44:	04000050 	.word	0x04000050
 8006b48:	04000054 	.word	0x04000054

08006b4c <mapCommon_defaultEffect>:
 8006b4c:	4770      	bx	lr
 8006b4e:	46c0      	nop			; (mov r8, r8)

08006b50 <mapCommon_transferToMap>:
 8006b50:	b5f0      	push	{r4, r5, r6, r7, lr}
 8006b52:	46d6      	mov	lr, sl
 8006b54:	464f      	mov	r7, r9
 8006b56:	4646      	mov	r6, r8
 8006b58:	b5c0      	push	{r6, r7, lr}
 8006b5a:	469a      	mov	sl, r3
 8006b5c:	000f      	movs	r7, r1
 8006b5e:	6893      	ldr	r3, [r2, #8]
 8006b60:	4698      	mov	r8, r3
 8006b62:	b084      	sub	sp, #16
 8006b64:	0016      	movs	r6, r2
 8006b66:	4681      	mov	r9, r0
 8006b68:	f7ff fe7c 	bl	8006864 <sprite_vram_init>
 8006b6c:	f7ff fee6 	bl	800693c <sprite_palette_init>
 8006b70:	a903      	add	r1, sp, #12
 8006b72:	0038      	movs	r0, r7
 8006b74:	f7fe fdc0 	bl	80056f8 <mchar_reinit>
 8006b78:	4651      	mov	r1, sl
 8006b7a:	9803      	ldr	r0, [sp, #12]
 8006b7c:	f7f9 ff4e 	bl	8000a1c <alisa_init>
 8006b80:	4643      	mov	r3, r8
 8006b82:	7b5c      	ldrb	r4, [r3, #13]
 8006b84:	0664      	lsls	r4, r4, #25
 8006b86:	0f64      	lsrs	r4, r4, #29
 8006b88:	88da      	ldrh	r2, [r3, #6]
 8006b8a:	8899      	ldrh	r1, [r3, #4]
 8006b8c:	9803      	ldr	r0, [sp, #12]
 8006b8e:	9400      	str	r4, [sp, #0]
 8006b90:	2300      	movs	r3, #0
 8006b92:	f7fa fb19 	bl	80011c8 <commonCharacterSetPosition>
 8006b96:	9803      	ldr	r0, [sp, #12]
 8006b98:	003a      	movs	r2, r7
 8006b9a:	0031      	movs	r1, r6
 8006b9c:	6844      	ldr	r4, [r0, #4]
 8006b9e:	9b0c      	ldr	r3, [sp, #48]	; 0x30
 8006ba0:	f000 f890 	bl	8006cc4 <mapCommon_initFlashScreen+0x10>
 8006ba4:	4643      	mov	r3, r8
 8006ba6:	0035      	movs	r5, r6
 8006ba8:	689c      	ldr	r4, [r3, #8]
 8006baa:	cc0e      	ldmia	r4!, {r1, r2, r3}
 8006bac:	c50e      	stmia	r5!, {r1, r2, r3}
 8006bae:	cc0e      	ldmia	r4!, {r1, r2, r3}
 8006bb0:	c50e      	stmia	r5!, {r1, r2, r3}
 8006bb2:	cc0e      	ldmia	r4!, {r1, r2, r3}
 8006bb4:	c50e      	stmia	r5!, {r1, r2, r3}
 8006bb6:	cc0e      	ldmia	r4!, {r1, r2, r3}
 8006bb8:	c50e      	stmia	r5!, {r1, r2, r3}
 8006bba:	9a03      	ldr	r2, [sp, #12]
 8006bbc:	0031      	movs	r1, r6
 8006bbe:	4648      	mov	r0, r9
 8006bc0:	2300      	movs	r3, #0
 8006bc2:	323c      	adds	r2, #60	; 0x3c
 8006bc4:	f7ff f99e 	bl	8005f04 <mscr_initCharMoveRef>
 8006bc8:	4643      	mov	r3, r8
 8006bca:	003a      	movs	r2, r7
 8006bcc:	60b3      	str	r3, [r6, #8]
 8006bce:	0031      	movs	r1, r6
 8006bd0:	4653      	mov	r3, sl
 8006bd2:	4648      	mov	r0, r9
 8006bd4:	f7fe fbd4 	bl	8005380 <mbg_init>
 8006bd8:	4b05      	ldr	r3, [pc, #20]	; (8006bf0 <mapCommon_transferToMap+0xa0>)
 8006bda:	6273      	str	r3, [r6, #36]	; 0x24
 8006bdc:	4b05      	ldr	r3, [pc, #20]	; (8006bf4 <mapCommon_transferToMap+0xa4>)
 8006bde:	62f3      	str	r3, [r6, #44]	; 0x2c
 8006be0:	b004      	add	sp, #16
 8006be2:	bce0      	pop	{r5, r6, r7}
 8006be4:	46ba      	mov	sl, r7
 8006be6:	46b1      	mov	r9, r6
 8006be8:	46a8      	mov	r8, r5
 8006bea:	bcf0      	pop	{r4, r5, r6, r7}
 8006bec:	bc01      	pop	{r0}
 8006bee:	4700      	bx	r0
 8006bf0:	08006b09 	.word	0x08006b09
 8006bf4:	08006b4d 	.word	0x08006b4d

08006bf8 <mapCommon_returnToNormal>:
 8006bf8:	21f3      	movs	r1, #243	; 0xf3
 8006bfa:	4b0b      	ldr	r3, [pc, #44]	; (8006c28 <mapCommon_returnToNormal+0x30>)
 8006bfc:	8019      	strh	r1, [r3, #0]
 8006bfe:	2100      	movs	r1, #0
 8006c00:	4b0a      	ldr	r3, [pc, #40]	; (8006c2c <mapCommon_returnToNormal+0x34>)
 8006c02:	8019      	strh	r1, [r3, #0]
 8006c04:	2329      	movs	r3, #41	; 0x29
 8006c06:	0011      	movs	r1, r2
 8006c08:	5cd3      	ldrb	r3, [r2, r3]
 8006c0a:	3301      	adds	r3, #1
 8006c0c:	061b      	lsls	r3, r3, #24
 8006c0e:	3128      	adds	r1, #40	; 0x28
 8006c10:	0e1b      	lsrs	r3, r3, #24
 8006c12:	704b      	strb	r3, [r1, #1]
 8006c14:	2128      	movs	r1, #40	; 0x28
 8006c16:	5c51      	ldrb	r1, [r2, r1]
 8006c18:	4299      	cmp	r1, r3
 8006c1a:	d803      	bhi.n	8006c24 <mapCommon_returnToNormal+0x2c>
 8006c1c:	2303      	movs	r3, #3
 8006c1e:	8513      	strh	r3, [r2, #40]	; 0x28
 8006c20:	4b03      	ldr	r3, [pc, #12]	; (8006c30 <mapCommon_returnToNormal+0x38>)
 8006c22:	62d3      	str	r3, [r2, #44]	; 0x2c
 8006c24:	4770      	bx	lr
 8006c26:	46c0      	nop			; (mov r8, r8)
 8006c28:	04000050 	.word	0x04000050
 8006c2c:	04000054 	.word	0x04000054
 8006c30:	08006b4d 	.word	0x08006b4d

08006c34 <mapCommon_goDark>:
 8006c34:	21f3      	movs	r1, #243	; 0xf3
 8006c36:	4b0b      	ldr	r3, [pc, #44]	; (8006c64 <mapCommon_goDark+0x30>)
 8006c38:	8019      	strh	r1, [r3, #0]
 8006c3a:	4b0b      	ldr	r3, [pc, #44]	; (8006c68 <mapCommon_goDark+0x34>)
 8006c3c:	39e3      	subs	r1, #227	; 0xe3
 8006c3e:	8019      	strh	r1, [r3, #0]
 8006c40:	2329      	movs	r3, #41	; 0x29
 8006c42:	0011      	movs	r1, r2
 8006c44:	5cd3      	ldrb	r3, [r2, r3]
 8006c46:	3301      	adds	r3, #1
 8006c48:	061b      	lsls	r3, r3, #24
 8006c4a:	3128      	adds	r1, #40	; 0x28
 8006c4c:	0e1b      	lsrs	r3, r3, #24
 8006c4e:	704b      	strb	r3, [r1, #1]
 8006c50:	2128      	movs	r1, #40	; 0x28
 8006c52:	5c51      	ldrb	r1, [r2, r1]
 8006c54:	4299      	cmp	r1, r3
 8006c56:	d803      	bhi.n	8006c60 <mapCommon_goDark+0x2c>
 8006c58:	2305      	movs	r3, #5
 8006c5a:	8513      	strh	r3, [r2, #40]	; 0x28
 8006c5c:	4b03      	ldr	r3, [pc, #12]	; (8006c6c <mapCommon_goDark+0x38>)
 8006c5e:	62d3      	str	r3, [r2, #44]	; 0x2c
 8006c60:	4770      	bx	lr
 8006c62:	46c0      	nop			; (mov r8, r8)
 8006c64:	04000050 	.word	0x04000050
 8006c68:	04000054 	.word	0x04000054
 8006c6c:	08006bf9 	.word	0x08006bf9

08006c70 <map_nofunction>:
 8006c70:	4770      	bx	lr
 8006c72:	46c0      	nop			; (mov r8, r8)

08006c74 <fadeToBlack>:
 8006c74:	490b      	ldr	r1, [pc, #44]	; (8006ca4 <fadeToBlack+0x30>)
 8006c76:	6808      	ldr	r0, [r1, #0]
 8006c78:	3001      	adds	r0, #1
 8006c7a:	6008      	str	r0, [r1, #0]
 8006c7c:	684b      	ldr	r3, [r1, #4]
 8006c7e:	2801      	cmp	r0, #1
 8006c80:	dd03      	ble.n	8006c8a <fadeToBlack+0x16>
 8006c82:	2000      	movs	r0, #0
 8006c84:	3301      	adds	r3, #1
 8006c86:	6008      	str	r0, [r1, #0]
 8006c88:	604b      	str	r3, [r1, #4]
 8006c8a:	2b0f      	cmp	r3, #15
 8006c8c:	dd01      	ble.n	8006c92 <fadeToBlack+0x1e>
 8006c8e:	4906      	ldr	r1, [pc, #24]	; (8006ca8 <fadeToBlack+0x34>)
 8006c90:	6251      	str	r1, [r2, #36]	; 0x24
 8006c92:	21f3      	movs	r1, #243	; 0xf3
 8006c94:	4a05      	ldr	r2, [pc, #20]	; (8006cac <fadeToBlack+0x38>)
 8006c96:	041b      	lsls	r3, r3, #16
 8006c98:	8011      	strh	r1, [r2, #0]
 8006c9a:	4a05      	ldr	r2, [pc, #20]	; (8006cb0 <fadeToBlack+0x3c>)
 8006c9c:	0c1b      	lsrs	r3, r3, #16
 8006c9e:	8013      	strh	r3, [r2, #0]
 8006ca0:	4770      	bx	lr
 8006ca2:	46c0      	nop			; (mov r8, r8)
 8006ca4:	03000b1c 	.word	0x03000b1c
 8006ca8:	08006b51 	.word	0x08006b51
 8006cac:	04000050 	.word	0x04000050
 8006cb0:	04000054 	.word	0x04000054

08006cb4 <mapCommon_initFlashScreen>:
 8006cb4:	2305      	movs	r3, #5
 8006cb6:	8503      	strh	r3, [r0, #40]	; 0x28
 8006cb8:	4b01      	ldr	r3, [pc, #4]	; (8006cc0 <mapCommon_initFlashScreen+0xc>)
 8006cba:	62c3      	str	r3, [r0, #44]	; 0x2c
 8006cbc:	4770      	bx	lr
 8006cbe:	46c0      	nop			; (mov r8, r8)
 8006cc0:	08006c35 	.word	0x08006c35
 8006cc4:	4720      	bx	r4
 8006cc6:	46c0      	nop			; (mov r8, r8)

08006cc8 <updateGameStatus>:
 8006cc8:	e92d4010 	push	{r4, lr}
 8006ccc:	eb0005b9 	bl	80083b8 <__msound_changeBuf_from_arm>
 8006cd0:	eb0005ae 	bl	8008390 <__moam_update_from_arm>
 8006cd4:	eb0005ba 	bl	80083c4 <__mchar_draw_from_arm>
 8006cd8:	eb0005b1 	bl	80083a4 <__mscr_draw_from_arm>
 8006cdc:	eb0005c7 	bl	8008400 <__mprinter_print_from_arm>
 8006ce0:	e59f0020 	ldr	r0, [pc, #32]	; 8006d08 <updateGameStatus+0x40>
 8006ce4:	e59f1020 	ldr	r1, [pc, #32]	; 8006d0c <updateGameStatus+0x44>
 8006ce8:	e5d02002 	ldrb	r2, [r0, #2]
 8006cec:	e5d130f8 	ldrb	r3, [r1, #248]	; 0xf8
 8006cf0:	e3822001 	orr	r2, r2, #1
 8006cf4:	e3833001 	orr	r3, r3, #1
 8006cf8:	e5c02002 	strb	r2, [r0, #2]
 8006cfc:	e5c130f8 	strb	r3, [r1, #248]	; 0xf8
 8006d00:	e8bd4010 	pop	{r4, lr}
 8006d04:	e12fff1e 	bx	lr
 8006d08:	04000200 	.word	0x04000200
 8006d0c:	03007f00 	.word	0x03007f00

08006d10 <lzssDecompress>:
 8006d10:	b5f0      	push	{r4, r5, r6, r7, lr}
 8006d12:	4657      	mov	r7, sl
 8006d14:	46de      	mov	lr, fp
 8006d16:	464e      	mov	r6, r9
 8006d18:	4645      	mov	r5, r8
 8006d1a:	000a      	movs	r2, r1
 8006d1c:	b5e0      	push	{r5, r6, r7, lr}
 8006d1e:	ca08      	ldmia	r2!, {r3}
 8006d20:	b085      	sub	sp, #20
 8006d22:	0a1b      	lsrs	r3, r3, #8
 8006d24:	4692      	mov	sl, r2
 8006d26:	9002      	str	r0, [sp, #8]
 8006d28:	9301      	str	r3, [sp, #4]
 8006d2a:	d074      	beq.n	8006e16 <lzssDecompress+0x106>
 8006d2c:	2300      	movs	r3, #0
 8006d2e:	4698      	mov	r8, r3
 8006d30:	4b3d      	ldr	r3, [pc, #244]	; (8006e28 <lzssDecompress+0x118>)
 8006d32:	469c      	mov	ip, r3
 8006d34:	4f3d      	ldr	r7, [pc, #244]	; (8006e2c <lzssDecompress+0x11c>)
 8006d36:	4661      	mov	r1, ip
 8006d38:	4b3d      	ldr	r3, [pc, #244]	; (8006e30 <lzssDecompress+0x120>)
 8006d3a:	2200      	movs	r2, #0
 8006d3c:	2600      	movs	r6, #0
 8006d3e:	2500      	movs	r5, #0
 8006d40:	4699      	mov	r9, r3
 8006d42:	46bc      	mov	ip, r7
 8006d44:	9100      	str	r1, [sp, #0]
 8006d46:	2a00      	cmp	r2, #0
 8006d48:	d106      	bne.n	8006d58 <lzssDecompress+0x48>
 8006d4a:	4643      	mov	r3, r8
 8006d4c:	4651      	mov	r1, sl
 8006d4e:	005b      	lsls	r3, r3, #1
 8006d50:	5a5e      	ldrh	r6, [r3, r1]
 8006d52:	2301      	movs	r3, #1
 8006d54:	469b      	mov	fp, r3
 8006d56:	44d8      	add	r8, fp
 8006d58:	4663      	mov	r3, ip
 8006d5a:	2000      	movs	r0, #0
 8006d5c:	46ac      	mov	ip, r5
 8006d5e:	001d      	movs	r5, r3
 8006d60:	9f00      	ldr	r7, [sp, #0]
 8006d62:	0031      	movs	r1, r6
 8006d64:	230f      	movs	r3, #15
 8006d66:	40d1      	lsrs	r1, r2
 8006d68:	4019      	ands	r1, r3
 8006d6a:	0113      	lsls	r3, r2, #4
 8006d6c:	185b      	adds	r3, r3, r1
 8006d6e:	009b      	lsls	r3, r3, #2
 8006d70:	58fc      	ldr	r4, [r7, r3]
 8006d72:	46a3      	mov	fp, r4
 8006d74:	58eb      	ldr	r3, [r5, r3]
 8006d76:	4458      	add	r0, fp
 8006d78:	18d2      	adds	r2, r2, r3
 8006d7a:	2900      	cmp	r1, #0
 8006d7c:	d102      	bne.n	8006d84 <lzssDecompress+0x74>
 8006d7e:	230f      	movs	r3, #15
 8006d80:	4293      	cmp	r3, r2
 8006d82:	d2ee      	bcs.n	8006d62 <lzssDecompress+0x52>
 8006d84:	002b      	movs	r3, r5
 8006d86:	4665      	mov	r5, ip
 8006d88:	469c      	mov	ip, r3
 8006d8a:	230f      	movs	r3, #15
 8006d8c:	9700      	str	r7, [sp, #0]
 8006d8e:	401a      	ands	r2, r3
 8006d90:	2800      	cmp	r0, #0
 8006d92:	d019      	beq.n	8006dc8 <lzssDecompress+0xb8>
 8006d94:	9c01      	ldr	r4, [sp, #4]
 8006d96:	1943      	adds	r3, r0, r5
 8006d98:	42a3      	cmp	r3, r4
 8006d9a:	d301      	bcc.n	8006da0 <lzssDecompress+0x90>
 8006d9c:	0023      	movs	r3, r4
 8006d9e:	1b60      	subs	r0, r4, r5
 8006da0:	9c02      	ldr	r4, [sp, #8]
 8006da2:	46a3      	mov	fp, r4
 8006da4:	4644      	mov	r4, r8
 8006da6:	006d      	lsls	r5, r5, #1
 8006da8:	0064      	lsls	r4, r4, #1
 8006daa:	445d      	add	r5, fp
 8006dac:	46a3      	mov	fp, r4
 8006dae:	2700      	movs	r7, #0
 8006db0:	464c      	mov	r4, r9
 8006db2:	44d3      	add	fp, sl
 8006db4:	60a7      	str	r7, [r4, #8]
 8006db6:	465f      	mov	r7, fp
 8006db8:	6027      	str	r7, [r4, #0]
 8006dba:	6065      	str	r5, [r4, #4]
 8006dbc:	2580      	movs	r5, #128	; 0x80
 8006dbe:	062d      	lsls	r5, r5, #24
 8006dc0:	4305      	orrs	r5, r0
 8006dc2:	60a5      	str	r5, [r4, #8]
 8006dc4:	001d      	movs	r5, r3
 8006dc6:	4480      	add	r8, r0
 8006dc8:	2900      	cmp	r1, #0
 8006dca:	d021      	beq.n	8006e10 <lzssDecompress+0x100>
 8006dcc:	4643      	mov	r3, r8
 8006dce:	005b      	lsls	r3, r3, #1
 8006dd0:	0019      	movs	r1, r3
 8006dd2:	4653      	mov	r3, sl
 8006dd4:	4657      	mov	r7, sl
 8006dd6:	9103      	str	r1, [sp, #12]
 8006dd8:	5c5b      	ldrb	r3, [r3, r1]
 8006dda:	9903      	ldr	r1, [sp, #12]
 8006ddc:	9c02      	ldr	r4, [sp, #8]
 8006dde:	5a79      	ldrh	r1, [r7, r1]
 8006de0:	46a3      	mov	fp, r4
 8006de2:	1e6f      	subs	r7, r5, #1
 8006de4:	0909      	lsrs	r1, r1, #4
 8006de6:	464c      	mov	r4, r9
 8006de8:	1a79      	subs	r1, r7, r1
 8006dea:	2700      	movs	r7, #0
 8006dec:	0049      	lsls	r1, r1, #1
 8006dee:	4459      	add	r1, fp
 8006df0:	60a7      	str	r7, [r4, #8]
 8006df2:	6021      	str	r1, [r4, #0]
 8006df4:	2180      	movs	r1, #128	; 0x80
 8006df6:	071b      	lsls	r3, r3, #28
 8006df8:	0f1b      	lsrs	r3, r3, #28
 8006dfa:	3303      	adds	r3, #3
 8006dfc:	0609      	lsls	r1, r1, #24
 8006dfe:	0068      	lsls	r0, r5, #1
 8006e00:	4319      	orrs	r1, r3
 8006e02:	18ed      	adds	r5, r5, r3
 8006e04:	2301      	movs	r3, #1
 8006e06:	4458      	add	r0, fp
 8006e08:	469b      	mov	fp, r3
 8006e0a:	6060      	str	r0, [r4, #4]
 8006e0c:	60a1      	str	r1, [r4, #8]
 8006e0e:	44d8      	add	r8, fp
 8006e10:	9b01      	ldr	r3, [sp, #4]
 8006e12:	42ab      	cmp	r3, r5
 8006e14:	d897      	bhi.n	8006d46 <lzssDecompress+0x36>
 8006e16:	b005      	add	sp, #20
 8006e18:	bcf0      	pop	{r4, r5, r6, r7}
 8006e1a:	46bb      	mov	fp, r7
 8006e1c:	46b2      	mov	sl, r6
 8006e1e:	46a9      	mov	r9, r5
 8006e20:	46a0      	mov	r8, r4
 8006e22:	bcf0      	pop	{r4, r5, r6, r7}
 8006e24:	bc01      	pop	{r0}
 8006e26:	4700      	bx	r0
 8006e28:	0800ab34 	.word	0x0800ab34
 8006e2c:	0800a734 	.word	0x0800a734
 8006e30:	040000d4 	.word	0x040000d4

08006e34 <lzss2vram>:
 8006e34:	0003      	movs	r3, r0
 8006e36:	b510      	push	{r4, lr}
 8006e38:	4a04      	ldr	r2, [pc, #16]	; (8006e4c <lzss2vram+0x18>)
 8006e3a:	0149      	lsls	r1, r1, #5
 8006e3c:	1888      	adds	r0, r1, r2
 8006e3e:	0019      	movs	r1, r3
 8006e40:	f7ff ff66 	bl	8006d10 <lzssDecompress>
 8006e44:	2000      	movs	r0, #0
 8006e46:	bc10      	pop	{r4}
 8006e48:	bc02      	pop	{r1}
 8006e4a:	4708      	bx	r1
 8006e4c:	06010000 	.word	0x06010000

08006e50 <LZSSUncomp>:
 8006e50:	0003      	movs	r3, r0
 8006e52:	000a      	movs	r2, r1
 8006e54:	1c18      	adds	r0, r3, #0
 8006e56:	1c11      	adds	r1, r2, #0
 8006e58:	df12      	svc	18
 8006e5a:	4770      	bx	lr

08006e5c <mapEndAreaCustomFunc>:
 8006e5c:	b5f8      	push	{r3, r4, r5, r6, r7, lr}
 8006e5e:	4b2a      	ldr	r3, [pc, #168]	; (8006f08 <mapEndAreaCustomFunc+0xac>)
 8006e60:	781a      	ldrb	r2, [r3, #0]
 8006e62:	000d      	movs	r5, r1
 8006e64:	2a00      	cmp	r2, #0
 8006e66:	d145      	bne.n	8006ef4 <mapEndAreaCustomFunc+0x98>
 8006e68:	4f28      	ldr	r7, [pc, #160]	; (8006f0c <mapEndAreaCustomFunc+0xb0>)
 8006e6a:	786c      	ldrb	r4, [r5, #1]
 8006e6c:	683b      	ldr	r3, [r7, #0]
 8006e6e:	469c      	mov	ip, r3
 8006e70:	2c00      	cmp	r4, #0
 8006e72:	d011      	beq.n	8006e98 <mapEndAreaCustomFunc+0x3c>
 8006e74:	686e      	ldr	r6, [r5, #4]
 8006e76:	2000      	movs	r0, #0
 8006e78:	2300      	movs	r3, #0
 8006e7a:	2531      	movs	r5, #49	; 0x31
 8006e7c:	009a      	lsls	r2, r3, #2
 8006e7e:	58b2      	ldr	r2, [r6, r2]
 8006e80:	5751      	ldrsb	r1, [r2, r5]
 8006e82:	2901      	cmp	r1, #1
 8006e84:	dc00      	bgt.n	8006e88 <mapEndAreaCustomFunc+0x2c>
 8006e86:	0010      	movs	r0, r2
 8006e88:	3301      	adds	r3, #1
 8006e8a:	42a3      	cmp	r3, r4
 8006e8c:	dbf6      	blt.n	8006e7c <mapEndAreaCustomFunc+0x20>
 8006e8e:	2800      	cmp	r0, #0
 8006e90:	d002      	beq.n	8006e98 <mapEndAreaCustomFunc+0x3c>
 8006e92:	4663      	mov	r3, ip
 8006e94:	2b00      	cmp	r3, #0
 8006e96:	d013      	beq.n	8006ec0 <mapEndAreaCustomFunc+0x64>
 8006e98:	4663      	mov	r3, ip
 8006e9a:	2295      	movs	r2, #149	; 0x95
 8006e9c:	3b01      	subs	r3, #1
 8006e9e:	0052      	lsls	r2, r2, #1
 8006ea0:	4293      	cmp	r3, r2
 8006ea2:	d919      	bls.n	8006ed8 <mapEndAreaCustomFunc+0x7c>
 8006ea4:	4663      	mov	r3, ip
 8006ea6:	2296      	movs	r2, #150	; 0x96
 8006ea8:	3b2d      	subs	r3, #45	; 0x2d
 8006eaa:	3bff      	subs	r3, #255	; 0xff
 8006eac:	0052      	lsls	r2, r2, #1
 8006eae:	4293      	cmp	r3, r2
 8006eb0:	d319      	bcc.n	8006ee6 <mapEndAreaCustomFunc+0x8a>
 8006eb2:	2396      	movs	r3, #150	; 0x96
 8006eb4:	009b      	lsls	r3, r3, #2
 8006eb6:	459c      	cmp	ip, r3
 8006eb8:	da21      	bge.n	8006efe <mapEndAreaCustomFunc+0xa2>
 8006eba:	bcf8      	pop	{r3, r4, r5, r6, r7}
 8006ebc:	bc01      	pop	{r0}
 8006ebe:	4700      	bx	r0
 8006ec0:	4913      	ldr	r1, [pc, #76]	; (8006f10 <mapEndAreaCustomFunc+0xb4>)
 8006ec2:	303c      	adds	r0, #60	; 0x3c
 8006ec4:	f7fb f9da 	bl	800227c <commonPositionInBounds>
 8006ec8:	683b      	ldr	r3, [r7, #0]
 8006eca:	469c      	mov	ip, r3
 8006ecc:	2800      	cmp	r0, #0
 8006ece:	d0e3      	beq.n	8006e98 <mapEndAreaCustomFunc+0x3c>
 8006ed0:	2b00      	cmp	r3, #0
 8006ed2:	d1e1      	bne.n	8006e98 <mapEndAreaCustomFunc+0x3c>
 8006ed4:	3301      	adds	r3, #1
 8006ed6:	603b      	str	r3, [r7, #0]
 8006ed8:	480e      	ldr	r0, [pc, #56]	; (8006f14 <mapEndAreaCustomFunc+0xb8>)
 8006eda:	f7fe ff79 	bl	8005dd0 <mprinter_printf>
 8006ede:	683b      	ldr	r3, [r7, #0]
 8006ee0:	3301      	adds	r3, #1
 8006ee2:	603b      	str	r3, [r7, #0]
 8006ee4:	e7e9      	b.n	8006eba <mapEndAreaCustomFunc+0x5e>
 8006ee6:	480c      	ldr	r0, [pc, #48]	; (8006f18 <mapEndAreaCustomFunc+0xbc>)
 8006ee8:	f7fe ff72 	bl	8005dd0 <mprinter_printf>
 8006eec:	683b      	ldr	r3, [r7, #0]
 8006eee:	3301      	adds	r3, #1
 8006ef0:	603b      	str	r3, [r7, #0]
 8006ef2:	e7e2      	b.n	8006eba <mapEndAreaCustomFunc+0x5e>
 8006ef4:	2200      	movs	r2, #0
 8006ef6:	701a      	strb	r2, [r3, #0]
 8006ef8:	f7ff f9ee 	bl	80062d8 <removeWindowObj>
 8006efc:	e7b4      	b.n	8006e68 <mapEndAreaCustomFunc+0xc>
 8006efe:	4807      	ldr	r0, [pc, #28]	; (8006f1c <mapEndAreaCustomFunc+0xc0>)
 8006f00:	f7fe ff66 	bl	8005dd0 <mprinter_printf>
 8006f04:	e7d9      	b.n	8006eba <mapEndAreaCustomFunc+0x5e>
 8006f06:	46c0      	nop			; (mov r8, r8)
 8006f08:	03000da4 	.word	0x03000da4
 8006f0c:	03000b24 	.word	0x03000b24
 8006f10:	0800af34 	.word	0x0800af34
 8006f14:	08035d50 	.word	0x08035d50
 8006f18:	08035d68 	.word	0x08035d68
 8006f1c:	08035d7c 	.word	0x08035d7c

08006f20 <mapFenceAreaCustomFunc>:
 8006f20:	b5f0      	push	{r4, r5, r6, r7, lr}
 8006f22:	784c      	ldrb	r4, [r1, #1]
 8006f24:	0007      	movs	r7, r0
 8006f26:	b085      	sub	sp, #20
 8006f28:	2c00      	cmp	r4, #0
 8006f2a:	d020      	beq.n	8006f6e <mapFenceAreaCustomFunc+0x4e>
 8006f2c:	2600      	movs	r6, #0
 8006f2e:	2300      	movs	r3, #0
 8006f30:	2531      	movs	r5, #49	; 0x31
 8006f32:	6848      	ldr	r0, [r1, #4]
 8006f34:	009a      	lsls	r2, r3, #2
 8006f36:	5882      	ldr	r2, [r0, r2]
 8006f38:	5751      	ldrsb	r1, [r2, r5]
 8006f3a:	2901      	cmp	r1, #1
 8006f3c:	dc00      	bgt.n	8006f40 <mapFenceAreaCustomFunc+0x20>
 8006f3e:	0016      	movs	r6, r2
 8006f40:	3301      	adds	r3, #1
 8006f42:	429c      	cmp	r4, r3
 8006f44:	dcf6      	bgt.n	8006f34 <mapFenceAreaCustomFunc+0x14>
 8006f46:	2208      	movs	r2, #8
 8006f48:	2100      	movs	r1, #0
 8006f4a:	a802      	add	r0, sp, #8
 8006f4c:	f001 fa30 	bl	80083b0 <__memset_from_thumb>
 8006f50:	4b0a      	ldr	r3, [pc, #40]	; (8006f7c <mapFenceAreaCustomFunc+0x5c>)
 8006f52:	9300      	str	r3, [sp, #0]
 8006f54:	4b0a      	ldr	r3, [pc, #40]	; (8006f80 <mapFenceAreaCustomFunc+0x60>)
 8006f56:	9301      	str	r3, [sp, #4]
 8006f58:	2e00      	cmp	r6, #0
 8006f5a:	d008      	beq.n	8006f6e <mapFenceAreaCustomFunc+0x4e>
 8006f5c:	0030      	movs	r0, r6
 8006f5e:	4669      	mov	r1, sp
 8006f60:	303c      	adds	r0, #60	; 0x3c
 8006f62:	f7fb f98b 	bl	800227c <commonPositionInBounds>
 8006f66:	2800      	cmp	r0, #0
 8006f68:	d005      	beq.n	8006f76 <mapFenceAreaCustomFunc+0x56>
 8006f6a:	2378      	movs	r3, #120	; 0x78
 8006f6c:	817b      	strh	r3, [r7, #10]
 8006f6e:	b005      	add	sp, #20
 8006f70:	bcf0      	pop	{r4, r5, r6, r7}
 8006f72:	bc01      	pop	{r0}
 8006f74:	4700      	bx	r0
 8006f76:	2328      	movs	r3, #40	; 0x28
 8006f78:	817b      	strh	r3, [r7, #10]
 8006f7a:	e7f8      	b.n	8006f6e <mapFenceAreaCustomFunc+0x4e>
 8006f7c:	0064012c 	.word	0x0064012c
 8006f80:	00a00172 	.word	0x00a00172

08006f84 <mapGraveYardCustomFunc>:
 8006f84:	4a03      	ldr	r2, [pc, #12]	; (8006f94 <mapGraveYardCustomFunc+0x10>)
 8006f86:	6813      	ldr	r3, [r2, #0]
 8006f88:	2b00      	cmp	r3, #0
 8006f8a:	d001      	beq.n	8006f90 <mapGraveYardCustomFunc+0xc>
 8006f8c:	3b01      	subs	r3, #1
 8006f8e:	6013      	str	r3, [r2, #0]
 8006f90:	4770      	bx	lr
 8006f92:	46c0      	nop			; (mov r8, r8)
 8006f94:	03000e20 	.word	0x03000e20

08006f98 <mapKankandaraForestACustomFunc>:
 8006f98:	b5f0      	push	{r4, r5, r6, r7, lr}
 8006f9a:	46ce      	mov	lr, r9
 8006f9c:	4647      	mov	r7, r8
 8006f9e:	b580      	push	{r7, lr}
 8006fa0:	784e      	ldrb	r6, [r1, #1]
 8006fa2:	4688      	mov	r8, r1
 8006fa4:	4691      	mov	r9, r2
 8006fa6:	b085      	sub	sp, #20
 8006fa8:	2e00      	cmp	r6, #0
 8006faa:	d044      	beq.n	8007036 <mapKankandaraForestACustomFunc+0x9e>
 8006fac:	2700      	movs	r7, #0
 8006fae:	2300      	movs	r3, #0
 8006fb0:	2231      	movs	r2, #49	; 0x31
 8006fb2:	6849      	ldr	r1, [r1, #4]
 8006fb4:	009c      	lsls	r4, r3, #2
 8006fb6:	590c      	ldr	r4, [r1, r4]
 8006fb8:	56a5      	ldrsb	r5, [r4, r2]
 8006fba:	2d01      	cmp	r5, #1
 8006fbc:	dc00      	bgt.n	8006fc0 <mapKankandaraForestACustomFunc+0x28>
 8006fbe:	0027      	movs	r7, r4
 8006fc0:	3301      	adds	r3, #1
 8006fc2:	429e      	cmp	r6, r3
 8006fc4:	dcf6      	bgt.n	8006fb4 <mapKankandaraForestACustomFunc+0x1c>
 8006fc6:	2210      	movs	r2, #16
 8006fc8:	2100      	movs	r1, #0
 8006fca:	4668      	mov	r0, sp
 8006fcc:	f001 f9f0 	bl	80083b0 <__memset_from_thumb>
 8006fd0:	23f0      	movs	r3, #240	; 0xf0
 8006fd2:	466a      	mov	r2, sp
 8006fd4:	8053      	strh	r3, [r2, #2]
 8006fd6:	4b23      	ldr	r3, [pc, #140]	; (8007064 <mapKankandaraForestACustomFunc+0xcc>)
 8006fd8:	9301      	str	r3, [sp, #4]
 8006fda:	2f00      	cmp	r7, #0
 8006fdc:	d02b      	beq.n	8007036 <mapKankandaraForestACustomFunc+0x9e>
 8006fde:	0038      	movs	r0, r7
 8006fe0:	4669      	mov	r1, sp
 8006fe2:	303c      	adds	r0, #60	; 0x3c
 8006fe4:	6d3c      	ldr	r4, [r7, #80]	; 0x50
 8006fe6:	f7fb f949 	bl	800227c <commonPositionInBounds>
 8006fea:	2800      	cmp	r0, #0
 8006fec:	d01e      	beq.n	800702c <mapKankandaraForestACustomFunc+0x94>
 8006fee:	4f1e      	ldr	r7, [pc, #120]	; (8007068 <mapKankandaraForestACustomFunc+0xd0>)
 8006ff0:	783e      	ldrb	r6, [r7, #0]
 8006ff2:	2e00      	cmp	r6, #0
 8006ff4:	d11a      	bne.n	800702c <mapKankandaraForestACustomFunc+0x94>
 8006ff6:	4643      	mov	r3, r8
 8006ff8:	7858      	ldrb	r0, [r3, #1]
 8006ffa:	2800      	cmp	r0, #0
 8006ffc:	d016      	beq.n	800702c <mapKankandaraForestACustomFunc+0x94>
 8006ffe:	2278      	movs	r2, #120	; 0x78
 8007000:	2300      	movs	r3, #0
 8007002:	2531      	movs	r5, #49	; 0x31
 8007004:	4694      	mov	ip, r2
 8007006:	4642      	mov	r2, r8
 8007008:	6852      	ldr	r2, [r2, #4]
 800700a:	0099      	lsls	r1, r3, #2
 800700c:	588a      	ldr	r2, [r1, r2]
 800700e:	5751      	ldrsb	r1, [r2, r5]
 8007010:	2908      	cmp	r1, #8
 8007012:	d104      	bne.n	800701e <mapKankandaraForestACustomFunc+0x86>
 8007014:	4661      	mov	r1, ip
 8007016:	87d1      	strh	r1, [r2, #62]	; 0x3e
 8007018:	4642      	mov	r2, r8
 800701a:	2601      	movs	r6, #1
 800701c:	7850      	ldrb	r0, [r2, #1]
 800701e:	3301      	adds	r3, #1
 8007020:	4298      	cmp	r0, r3
 8007022:	dcf0      	bgt.n	8007006 <mapKankandaraForestACustomFunc+0x6e>
 8007024:	2e00      	cmp	r6, #0
 8007026:	d001      	beq.n	800702c <mapKankandaraForestACustomFunc+0x94>
 8007028:	2301      	movs	r3, #1
 800702a:	703b      	strb	r3, [r7, #0]
 800702c:	230f      	movs	r3, #15
 800702e:	7862      	ldrb	r2, [r4, #1]
 8007030:	4013      	ands	r3, r2
 8007032:	2b01      	cmp	r3, #1
 8007034:	d006      	beq.n	8007044 <mapKankandaraForestACustomFunc+0xac>
 8007036:	b005      	add	sp, #20
 8007038:	bcc0      	pop	{r6, r7}
 800703a:	46b9      	mov	r9, r7
 800703c:	46b0      	mov	r8, r6
 800703e:	bcf0      	pop	{r4, r5, r6, r7}
 8007040:	bc01      	pop	{r0}
 8007042:	4700      	bx	r0
 8007044:	4a08      	ldr	r2, [pc, #32]	; (8007068 <mapKankandaraForestACustomFunc+0xd0>)
 8007046:	6853      	ldr	r3, [r2, #4]
 8007048:	3301      	adds	r3, #1
 800704a:	2b31      	cmp	r3, #49	; 0x31
 800704c:	dc01      	bgt.n	8007052 <mapKankandaraForestACustomFunc+0xba>
 800704e:	6053      	str	r3, [r2, #4]
 8007050:	e7f1      	b.n	8007036 <mapKankandaraForestACustomFunc+0x9e>
 8007052:	4648      	mov	r0, r9
 8007054:	2300      	movs	r3, #0
 8007056:	4905      	ldr	r1, [pc, #20]	; (800706c <mapKankandaraForestACustomFunc+0xd4>)
 8007058:	6081      	str	r1, [r0, #8]
 800705a:	4905      	ldr	r1, [pc, #20]	; (8007070 <mapKankandaraForestACustomFunc+0xd8>)
 800705c:	6053      	str	r3, [r2, #4]
 800705e:	6241      	str	r1, [r0, #36]	; 0x24
 8007060:	7013      	strb	r3, [r2, #0]
 8007062:	e7e8      	b.n	8007036 <mapKankandaraForestACustomFunc+0x9e>
 8007064:	01100020 	.word	0x01100020
 8007068:	03000b28 	.word	0x03000b28
 800706c:	08011478 	.word	0x08011478
 8007070:	08006c75 	.word	0x08006c75

08007074 <mapKankandaraForestBCustomFunc>:
 8007074:	b5f0      	push	{r4, r5, r6, r7, lr}
 8007076:	4647      	mov	r7, r8
 8007078:	46ce      	mov	lr, r9
 800707a:	b580      	push	{r7, lr}
 800707c:	4b39      	ldr	r3, [pc, #228]	; (8007164 <mapKankandaraForestBCustomFunc+0xf0>)
 800707e:	4698      	mov	r8, r3
 8007080:	781b      	ldrb	r3, [r3, #0]
 8007082:	000f      	movs	r7, r1
 8007084:	4691      	mov	r9, r2
 8007086:	b085      	sub	sp, #20
 8007088:	2b00      	cmp	r3, #0
 800708a:	d04c      	beq.n	8007126 <mapKankandaraForestBCustomFunc+0xb2>
 800708c:	787a      	ldrb	r2, [r7, #1]
 800708e:	2a00      	cmp	r2, #0
 8007090:	d042      	beq.n	8007118 <mapKankandaraForestBCustomFunc+0xa4>
 8007092:	2600      	movs	r6, #0
 8007094:	2300      	movs	r3, #0
 8007096:	2131      	movs	r1, #49	; 0x31
 8007098:	6878      	ldr	r0, [r7, #4]
 800709a:	009c      	lsls	r4, r3, #2
 800709c:	5904      	ldr	r4, [r0, r4]
 800709e:	5665      	ldrsb	r5, [r4, r1]
 80070a0:	2d01      	cmp	r5, #1
 80070a2:	dc00      	bgt.n	80070a6 <mapKankandaraForestBCustomFunc+0x32>
 80070a4:	0026      	movs	r6, r4
 80070a6:	3301      	adds	r3, #1
 80070a8:	429a      	cmp	r2, r3
 80070aa:	dcf6      	bgt.n	800709a <mapKankandaraForestBCustomFunc+0x26>
 80070ac:	2210      	movs	r2, #16
 80070ae:	2100      	movs	r1, #0
 80070b0:	4668      	mov	r0, sp
 80070b2:	f001 f97d 	bl	80083b0 <__memset_from_thumb>
 80070b6:	23f0      	movs	r3, #240	; 0xf0
 80070b8:	466a      	mov	r2, sp
 80070ba:	8053      	strh	r3, [r2, #2]
 80070bc:	4b2a      	ldr	r3, [pc, #168]	; (8007168 <mapKankandaraForestBCustomFunc+0xf4>)
 80070be:	9301      	str	r3, [sp, #4]
 80070c0:	2e00      	cmp	r6, #0
 80070c2:	d029      	beq.n	8007118 <mapKankandaraForestBCustomFunc+0xa4>
 80070c4:	0030      	movs	r0, r6
 80070c6:	4669      	mov	r1, sp
 80070c8:	303c      	adds	r0, #60	; 0x3c
 80070ca:	6d34      	ldr	r4, [r6, #80]	; 0x50
 80070cc:	f7fb f8d6 	bl	800227c <commonPositionInBounds>
 80070d0:	2800      	cmp	r0, #0
 80070d2:	d01c      	beq.n	800710e <mapKankandaraForestBCustomFunc+0x9a>
 80070d4:	4643      	mov	r3, r8
 80070d6:	785e      	ldrb	r6, [r3, #1]
 80070d8:	2e00      	cmp	r6, #0
 80070da:	d118      	bne.n	800710e <mapKankandaraForestBCustomFunc+0x9a>
 80070dc:	7878      	ldrb	r0, [r7, #1]
 80070de:	2800      	cmp	r0, #0
 80070e0:	d015      	beq.n	800710e <mapKankandaraForestBCustomFunc+0x9a>
 80070e2:	2278      	movs	r2, #120	; 0x78
 80070e4:	2300      	movs	r3, #0
 80070e6:	2531      	movs	r5, #49	; 0x31
 80070e8:	4694      	mov	ip, r2
 80070ea:	687a      	ldr	r2, [r7, #4]
 80070ec:	0099      	lsls	r1, r3, #2
 80070ee:	588a      	ldr	r2, [r1, r2]
 80070f0:	5751      	ldrsb	r1, [r2, r5]
 80070f2:	2908      	cmp	r1, #8
 80070f4:	d103      	bne.n	80070fe <mapKankandaraForestBCustomFunc+0x8a>
 80070f6:	4661      	mov	r1, ip
 80070f8:	2601      	movs	r6, #1
 80070fa:	87d1      	strh	r1, [r2, #62]	; 0x3e
 80070fc:	7878      	ldrb	r0, [r7, #1]
 80070fe:	3301      	adds	r3, #1
 8007100:	4298      	cmp	r0, r3
 8007102:	dcf2      	bgt.n	80070ea <mapKankandaraForestBCustomFunc+0x76>
 8007104:	2e00      	cmp	r6, #0
 8007106:	d002      	beq.n	800710e <mapKankandaraForestBCustomFunc+0x9a>
 8007108:	2301      	movs	r3, #1
 800710a:	4642      	mov	r2, r8
 800710c:	7053      	strb	r3, [r2, #1]
 800710e:	7863      	ldrb	r3, [r4, #1]
 8007110:	240f      	movs	r4, #15
 8007112:	401c      	ands	r4, r3
 8007114:	2c01      	cmp	r4, #1
 8007116:	d00c      	beq.n	8007132 <mapKankandaraForestBCustomFunc+0xbe>
 8007118:	b005      	add	sp, #20
 800711a:	bcc0      	pop	{r6, r7}
 800711c:	46b9      	mov	r9, r7
 800711e:	46b0      	mov	r8, r6
 8007120:	bcf0      	pop	{r4, r5, r6, r7}
 8007122:	bc01      	pop	{r0}
 8007124:	4700      	bx	r0
 8007126:	f7ff f8c7 	bl	80062b8 <initWindowObj>
 800712a:	2301      	movs	r3, #1
 800712c:	4642      	mov	r2, r8
 800712e:	7013      	strb	r3, [r2, #0]
 8007130:	e7ac      	b.n	800708c <mapKankandaraForestBCustomFunc+0x18>
 8007132:	4643      	mov	r3, r8
 8007134:	685b      	ldr	r3, [r3, #4]
 8007136:	3301      	adds	r3, #1
 8007138:	2b31      	cmp	r3, #49	; 0x31
 800713a:	dc02      	bgt.n	8007142 <mapKankandaraForestBCustomFunc+0xce>
 800713c:	4642      	mov	r2, r8
 800713e:	6053      	str	r3, [r2, #4]
 8007140:	e7ea      	b.n	8007118 <mapKankandaraForestBCustomFunc+0xa4>
 8007142:	2500      	movs	r5, #0
 8007144:	4643      	mov	r3, r8
 8007146:	605d      	str	r5, [r3, #4]
 8007148:	f7ff f8c6 	bl	80062d8 <removeWindowObj>
 800714c:	464a      	mov	r2, r9
 800714e:	4b07      	ldr	r3, [pc, #28]	; (800716c <mapKankandaraForestBCustomFunc+0xf8>)
 8007150:	6093      	str	r3, [r2, #8]
 8007152:	4b07      	ldr	r3, [pc, #28]	; (8007170 <mapKankandaraForestBCustomFunc+0xfc>)
 8007154:	6253      	str	r3, [r2, #36]	; 0x24
 8007156:	4643      	mov	r3, r8
 8007158:	701d      	strb	r5, [r3, #0]
 800715a:	705d      	strb	r5, [r3, #1]
 800715c:	4b05      	ldr	r3, [pc, #20]	; (8007174 <mapKankandaraForestBCustomFunc+0x100>)
 800715e:	701c      	strb	r4, [r3, #0]
 8007160:	e7da      	b.n	8007118 <mapKankandaraForestBCustomFunc+0xa4>
 8007162:	46c0      	nop			; (mov r8, r8)
 8007164:	03000b30 	.word	0x03000b30
 8007168:	01100020 	.word	0x01100020
 800716c:	0801651c 	.word	0x0801651c
 8007170:	08006c75 	.word	0x08006c75
 8007174:	03000b28 	.word	0x03000b28

08007178 <__divsi3>:
 8007178:	e3510000 	cmp	r1, #0
 800717c:	0a000043 	beq	8007290 <.divsi3_skip_div0_test+0x110>

08007180 <.divsi3_skip_div0_test>:
 8007180:	e020c001 	eor	ip, r0, r1
 8007184:	42611000 	rsbmi	r1, r1, #0
 8007188:	e2512001 	subs	r2, r1, #1
 800718c:	0a000027 	beq	8007230 <.divsi3_skip_div0_test+0xb0>
 8007190:	e1b03000 	movs	r3, r0
 8007194:	42603000 	rsbmi	r3, r0, #0
 8007198:	e1530001 	cmp	r3, r1
 800719c:	9a000026 	bls	800723c <.divsi3_skip_div0_test+0xbc>
 80071a0:	e1110002 	tst	r1, r2
 80071a4:	0a000028 	beq	800724c <.divsi3_skip_div0_test+0xcc>
 80071a8:	e311020e 	tst	r1, #-536870912	; 0xe0000000
 80071ac:	01a01181 	lsleq	r1, r1, #3
 80071b0:	03a02008 	moveq	r2, #8
 80071b4:	13a02001 	movne	r2, #1
 80071b8:	e3510201 	cmp	r1, #268435456	; 0x10000000
 80071bc:	31510003 	cmpcc	r1, r3
 80071c0:	31a01201 	lslcc	r1, r1, #4
 80071c4:	31a02202 	lslcc	r2, r2, #4
 80071c8:	3afffffa 	bcc	80071b8 <.divsi3_skip_div0_test+0x38>
 80071cc:	e3510102 	cmp	r1, #-2147483648	; 0x80000000
 80071d0:	31510003 	cmpcc	r1, r3
 80071d4:	31a01081 	lslcc	r1, r1, #1
 80071d8:	31a02082 	lslcc	r2, r2, #1
 80071dc:	3afffffa 	bcc	80071cc <.divsi3_skip_div0_test+0x4c>
 80071e0:	e3a00000 	mov	r0, #0
 80071e4:	e1530001 	cmp	r3, r1
 80071e8:	20433001 	subcs	r3, r3, r1
 80071ec:	21800002 	orrcs	r0, r0, r2
 80071f0:	e15300a1 	cmp	r3, r1, lsr #1
 80071f4:	204330a1 	subcs	r3, r3, r1, lsr #1
 80071f8:	218000a2 	orrcs	r0, r0, r2, lsr #1
 80071fc:	e1530121 	cmp	r3, r1, lsr #2
 8007200:	20433121 	subcs	r3, r3, r1, lsr #2
 8007204:	21800122 	orrcs	r0, r0, r2, lsr #2
 8007208:	e15301a1 	cmp	r3, r1, lsr #3
 800720c:	204331a1 	subcs	r3, r3, r1, lsr #3
 8007210:	218001a2 	orrcs	r0, r0, r2, lsr #3
 8007214:	e3530000 	cmp	r3, #0
 8007218:	11b02222 	lsrsne	r2, r2, #4
 800721c:	11a01221 	lsrne	r1, r1, #4
 8007220:	1affffef 	bne	80071e4 <.divsi3_skip_div0_test+0x64>
 8007224:	e35c0000 	cmp	ip, #0
 8007228:	42600000 	rsbmi	r0, r0, #0
 800722c:	e12fff1e 	bx	lr
 8007230:	e13c0000 	teq	ip, r0
 8007234:	42600000 	rsbmi	r0, r0, #0
 8007238:	e12fff1e 	bx	lr
 800723c:	33a00000 	movcc	r0, #0
 8007240:	01a00fcc 	asreq	r0, ip, #31
 8007244:	03800001 	orreq	r0, r0, #1
 8007248:	e12fff1e 	bx	lr
 800724c:	e3510801 	cmp	r1, #65536	; 0x10000
 8007250:	21a01821 	lsrcs	r1, r1, #16
 8007254:	23a02010 	movcs	r2, #16
 8007258:	33a02000 	movcc	r2, #0
 800725c:	e3510c01 	cmp	r1, #256	; 0x100
 8007260:	21a01421 	lsrcs	r1, r1, #8
 8007264:	22822008 	addcs	r2, r2, #8
 8007268:	e3510010 	cmp	r1, #16
 800726c:	21a01221 	lsrcs	r1, r1, #4
 8007270:	22822004 	addcs	r2, r2, #4
 8007274:	e3510004 	cmp	r1, #4
 8007278:	82822003 	addhi	r2, r2, #3
 800727c:	908220a1 	addls	r2, r2, r1, lsr #1
 8007280:	e35c0000 	cmp	ip, #0
 8007284:	e1a00233 	lsr	r0, r3, r2
 8007288:	42600000 	rsbmi	r0, r0, #0
 800728c:	e12fff1e 	bx	lr
 8007290:	e3500000 	cmp	r0, #0
 8007294:	c3e00102 	mvngt	r0, #-2147483648	; 0x80000000
 8007298:	b3a00102 	movlt	r0, #-2147483648	; 0x80000000
 800729c:	ea000007 	b	80072c0 <__aeabi_idiv0>

080072a0 <__aeabi_idivmod>:
 80072a0:	e3510000 	cmp	r1, #0
 80072a4:	0afffff9 	beq	8007290 <.divsi3_skip_div0_test+0x110>
 80072a8:	e92d4003 	push	{r0, r1, lr}
 80072ac:	ebffffb3 	bl	8007180 <.divsi3_skip_div0_test>
 80072b0:	e8bd4006 	pop	{r1, r2, lr}
 80072b4:	e0030092 	mul	r3, r2, r0
 80072b8:	e0411003 	sub	r1, r1, r3
 80072bc:	e12fff1e 	bx	lr

080072c0 <__aeabi_idiv0>:
 80072c0:	e12fff1e 	bx	lr

080072c4 <__libc_init_array>:
 80072c4:	e92d4070 	push	{r4, r5, r6, lr}
 80072c8:	e59f3074 	ldr	r3, [pc, #116]	; 8007344 <__libc_init_array+0x80>
 80072cc:	e59f5074 	ldr	r5, [pc, #116]	; 8007348 <__libc_init_array+0x84>
 80072d0:	e1530005 	cmp	r3, r5
 80072d4:	e0436005 	sub	r6, r3, r5
 80072d8:	0a000008 	beq	8007300 <__libc_init_array+0x3c>
 80072dc:	e3a04000 	mov	r4, #0
 80072e0:	e1a06146 	asr	r6, r6, #2
 80072e4:	e2455004 	sub	r5, r5, #4
 80072e8:	e5b53004 	ldr	r3, [r5, #4]!
 80072ec:	e2844001 	add	r4, r4, #1
 80072f0:	e1a0e00f 	mov	lr, pc
 80072f4:	e12fff13 	bx	r3
 80072f8:	e1560004 	cmp	r6, r4
 80072fc:	8afffff9 	bhi	80072e8 <__libc_init_array+0x24>
 8007300:	ebffe3c2 	bl	8000210 <_init>
 8007304:	e59f5040 	ldr	r5, [pc, #64]	; 800734c <__libc_init_array+0x88>
 8007308:	e59f3040 	ldr	r3, [pc, #64]	; 8007350 <__libc_init_array+0x8c>
 800730c:	e0436005 	sub	r6, r3, r5
 8007310:	e1530005 	cmp	r3, r5
 8007314:	e1a06146 	asr	r6, r6, #2
 8007318:	0a000007 	beq	800733c <__libc_init_array+0x78>
 800731c:	e3a04000 	mov	r4, #0
 8007320:	e2455004 	sub	r5, r5, #4
 8007324:	e5b53004 	ldr	r3, [r5, #4]!
 8007328:	e2844001 	add	r4, r4, #1
 800732c:	e1a0e00f 	mov	lr, pc
 8007330:	e12fff13 	bx	r3
 8007334:	e1560004 	cmp	r6, r4
 8007338:	8afffff9 	bhi	8007324 <__libc_init_array+0x60>
 800733c:	e8bd4070 	pop	{r4, r5, r6, lr}
 8007340:	e12fff1e 	bx	lr
 8007344:	03001768 	.word	0x03001768
 8007348:	03001768 	.word	0x03001768
 800734c:	03001768 	.word	0x03001768
 8007350:	0300176c 	.word	0x0300176c

08007354 <malloc>:
 8007354:	e92d4010 	push	{r4, lr}
 8007358:	e1a04000 	mov	r4, r0
 800735c:	eb0003ee 	bl	800831c <__getreent>
 8007360:	e1a01004 	mov	r1, r4
 8007364:	eb000001 	bl	8007370 <_malloc_r>
 8007368:	e8bd4010 	pop	{r4, lr}
 800736c:	e12fff1e 	bx	lr

08007370 <_malloc_r>:
 8007370:	e92d4ff0 	push	{r4, r5, r6, r7, r8, r9, sl, fp, lr}
 8007374:	e281300b 	add	r3, r1, #11
 8007378:	e3530016 	cmp	r3, #22
 800737c:	e1a06000 	mov	r6, r0
 8007380:	e24dd00c 	sub	sp, sp, #12
 8007384:	8a00001c 	bhi	80073fc <_malloc_r+0x8c>
 8007388:	e3510010 	cmp	r1, #16
 800738c:	8a000080 	bhi	8007594 <_malloc_r+0x224>
 8007390:	eb000276 	bl	8007d70 <__malloc_lock>
 8007394:	e3a05010 	mov	r5, #16
 8007398:	e3a02018 	mov	r2, #24
 800739c:	e3a0c002 	mov	ip, #2
 80073a0:	e59f7798 	ldr	r7, [pc, #1944]	; 8007b40 <_malloc_r+0x7d0>
 80073a4:	e0872002 	add	r2, r7, r2
 80073a8:	e5924004 	ldr	r4, [r2, #4]
 80073ac:	e2423008 	sub	r3, r2, #8
 80073b0:	e1540003 	cmp	r4, r3
 80073b4:	0a0000df 	beq	8007738 <_malloc_r+0x3c8>
 80073b8:	e5943004 	ldr	r3, [r4, #4]
 80073bc:	e594200c 	ldr	r2, [r4, #12]
 80073c0:	e5941008 	ldr	r1, [r4, #8]
 80073c4:	e3c33003 	bic	r3, r3, #3
 80073c8:	e0843003 	add	r3, r4, r3
 80073cc:	e581200c 	str	r2, [r1, #12]
 80073d0:	e5821008 	str	r1, [r2, #8]
 80073d4:	e5932004 	ldr	r2, [r3, #4]
 80073d8:	e3822001 	orr	r2, r2, #1
 80073dc:	e1a00006 	mov	r0, r6
 80073e0:	e5832004 	str	r2, [r3, #4]
 80073e4:	e2844008 	add	r4, r4, #8
 80073e8:	eb000266 	bl	8007d88 <__malloc_unlock>
 80073ec:	e1a00004 	mov	r0, r4
 80073f0:	e28dd00c 	add	sp, sp, #12
 80073f4:	e8bd4ff0 	pop	{r4, r5, r6, r7, r8, r9, sl, fp, lr}
 80073f8:	e12fff1e 	bx	lr
 80073fc:	e3c35007 	bic	r5, r3, #7
 8007400:	e1510005 	cmp	r1, r5
 8007404:	93a01000 	movls	r1, #0
 8007408:	83a01001 	movhi	r1, #1
 800740c:	e1911fa3 	orrs	r1, r1, r3, lsr #31
 8007410:	1a00005f 	bne	8007594 <_malloc_r+0x224>
 8007414:	eb000255 	bl	8007d70 <__malloc_lock>
 8007418:	e3550f7e 	cmp	r5, #504	; 0x1f8
 800741c:	3a000109 	bcc	8007848 <_malloc_r+0x4d8>
 8007420:	e1b034a5 	lsrs	r3, r5, #9
 8007424:	0a00005e 	beq	80075a4 <_malloc_r+0x234>
 8007428:	e3530004 	cmp	r3, #4
 800742c:	8a0000e1 	bhi	80077b8 <_malloc_r+0x448>
 8007430:	e1a03325 	lsr	r3, r5, #6
 8007434:	e283c039 	add	ip, r3, #57	; 0x39
 8007438:	e283e038 	add	lr, r3, #56	; 0x38
 800743c:	e1a0018c 	lsl	r0, ip, #3
 8007440:	e59f76f8 	ldr	r7, [pc, #1784]	; 8007b40 <_malloc_r+0x7d0>
 8007444:	e0870000 	add	r0, r7, r0
 8007448:	e5903004 	ldr	r3, [r0, #4]
 800744c:	e2400008 	sub	r0, r0, #8
 8007450:	e1500003 	cmp	r0, r3
 8007454:	1a000005 	bne	8007470 <_malloc_r+0x100>
 8007458:	ea00000a 	b	8007488 <_malloc_r+0x118>
 800745c:	e3510000 	cmp	r1, #0
 8007460:	aa0000a5 	bge	80076fc <_malloc_r+0x38c>
 8007464:	e593300c 	ldr	r3, [r3, #12]
 8007468:	e1500003 	cmp	r0, r3
 800746c:	0a000005 	beq	8007488 <_malloc_r+0x118>
 8007470:	e5932004 	ldr	r2, [r3, #4]
 8007474:	e3c22003 	bic	r2, r2, #3
 8007478:	e0421005 	sub	r1, r2, r5
 800747c:	e351000f 	cmp	r1, #15
 8007480:	dafffff5 	ble	800745c <_malloc_r+0xec>
 8007484:	e1a0c00e 	mov	ip, lr
 8007488:	e5974010 	ldr	r4, [r7, #16]
 800748c:	e59fe6b0 	ldr	lr, [pc, #1712]	; 8007b44 <_malloc_r+0x7d4>
 8007490:	e154000e 	cmp	r4, lr
 8007494:	05978004 	ldreq	r8, [r7, #4]
 8007498:	0a000018 	beq	8007500 <_malloc_r+0x190>
 800749c:	e5941004 	ldr	r1, [r4, #4]
 80074a0:	e3c11003 	bic	r1, r1, #3
 80074a4:	e0413005 	sub	r3, r1, r5
 80074a8:	e353000f 	cmp	r3, #15
 80074ac:	ca0000f0 	bgt	8007874 <_malloc_r+0x504>
 80074b0:	e3530000 	cmp	r3, #0
 80074b4:	e587e010 	str	lr, [r7, #16]
 80074b8:	e587e014 	str	lr, [r7, #20]
 80074bc:	aa0000e4 	bge	8007854 <_malloc_r+0x4e4>
 80074c0:	e3510c02 	cmp	r1, #512	; 0x200
 80074c4:	e5978004 	ldr	r8, [r7, #4]
 80074c8:	2a00009f 	bcs	800774c <_malloc_r+0x3dc>
 80074cc:	e3a02001 	mov	r2, #1
 80074d0:	e1a031a1 	lsr	r3, r1, #3
 80074d4:	e0833002 	add	r3, r3, r2
 80074d8:	e1a012a1 	lsr	r1, r1, #5
 80074dc:	e1888112 	orr	r8, r8, r2, lsl r1
 80074e0:	e7971183 	ldr	r1, [r7, r3, lsl #3]
 80074e4:	e0872183 	add	r2, r7, r3, lsl #3
 80074e8:	e2422008 	sub	r2, r2, #8
 80074ec:	e5841008 	str	r1, [r4, #8]
 80074f0:	e584200c 	str	r2, [r4, #12]
 80074f4:	e5878004 	str	r8, [r7, #4]
 80074f8:	e7874183 	str	r4, [r7, r3, lsl #3]
 80074fc:	e581400c 	str	r4, [r1, #12]
 8007500:	e3a00001 	mov	r0, #1
 8007504:	e1a0314c 	asr	r3, ip, #2
 8007508:	e1a00310 	lsl	r0, r0, r3
 800750c:	e1500008 	cmp	r0, r8
 8007510:	8a000027 	bhi	80075b4 <_malloc_r+0x244>
 8007514:	e1100008 	tst	r0, r8
 8007518:	1a000008 	bne	8007540 <_malloc_r+0x1d0>
 800751c:	e1a00080 	lsl	r0, r0, #1
 8007520:	e3ccc003 	bic	ip, ip, #3
 8007524:	e1100008 	tst	r0, r8
 8007528:	e28cc004 	add	ip, ip, #4
 800752c:	1a000003 	bne	8007540 <_malloc_r+0x1d0>
 8007530:	e1a00080 	lsl	r0, r0, #1
 8007534:	e1100008 	tst	r0, r8
 8007538:	e28cc004 	add	ip, ip, #4
 800753c:	0afffffb 	beq	8007530 <_malloc_r+0x1c0>
 8007540:	e087a18c 	add	sl, r7, ip, lsl #3
 8007544:	e1a0300a 	mov	r3, sl
 8007548:	e1a0900c 	mov	r9, ip
 800754c:	e593100c 	ldr	r1, [r3, #12]
 8007550:	ea000008 	b	8007578 <_malloc_r+0x208>
 8007554:	e5912004 	ldr	r2, [r1, #4]
 8007558:	e3c22003 	bic	r2, r2, #3
 800755c:	e0428005 	sub	r8, r2, r5
 8007560:	e358000f 	cmp	r8, #15
 8007564:	e1a04001 	mov	r4, r1
 8007568:	e591100c 	ldr	r1, [r1, #12]
 800756c:	ca00009a 	bgt	80077dc <_malloc_r+0x46c>
 8007570:	e3580000 	cmp	r8, #0
 8007574:	aa0000a9 	bge	8007820 <_malloc_r+0x4b0>
 8007578:	e1530001 	cmp	r3, r1
 800757c:	1afffff4 	bne	8007554 <_malloc_r+0x1e4>
 8007580:	e2899001 	add	r9, r9, #1
 8007584:	e3190003 	tst	r9, #3
 8007588:	e2833008 	add	r3, r3, #8
 800758c:	1affffee 	bne	800754c <_malloc_r+0x1dc>
 8007590:	ea0000d7 	b	80078f4 <_malloc_r+0x584>
 8007594:	e3a0300c 	mov	r3, #12
 8007598:	e5863000 	str	r3, [r6]
 800759c:	e3a04000 	mov	r4, #0
 80075a0:	eaffff91 	b	80073ec <_malloc_r+0x7c>
 80075a4:	e3a00c02 	mov	r0, #512	; 0x200
 80075a8:	e3a0c040 	mov	ip, #64	; 0x40
 80075ac:	e3a0e03f 	mov	lr, #63	; 0x3f
 80075b0:	eaffffa2 	b	8007440 <_malloc_r+0xd0>
 80075b4:	e5974008 	ldr	r4, [r7, #8]
 80075b8:	e5943004 	ldr	r3, [r4, #4]
 80075bc:	e3c38003 	bic	r8, r3, #3
 80075c0:	e1580005 	cmp	r8, r5
 80075c4:	23a02000 	movcs	r2, #0
 80075c8:	33a02001 	movcc	r2, #1
 80075cc:	e0483005 	sub	r3, r8, r5
 80075d0:	e353000f 	cmp	r3, #15
 80075d4:	d3822001 	orrle	r2, r2, #1
 80075d8:	e3520000 	cmp	r2, #0
 80075dc:	0a000039 	beq	80076c8 <_malloc_r+0x358>
 80075e0:	e59f3560 	ldr	r3, [pc, #1376]	; 8007b48 <_malloc_r+0x7d8>
 80075e4:	e59fb560 	ldr	fp, [pc, #1376]	; 8007b4c <_malloc_r+0x7dc>
 80075e8:	e5932000 	ldr	r2, [r3]
 80075ec:	e59b3000 	ldr	r3, [fp]
 80075f0:	e0852002 	add	r2, r5, r2
 80075f4:	e3730001 	cmn	r3, #1
 80075f8:	12822a01 	addne	r2, r2, #4096	; 0x1000
 80075fc:	1282200f 	addne	r2, r2, #15
 8007600:	13c22eff 	bicne	r2, r2, #4080	; 0xff0
 8007604:	02822010 	addeq	r2, r2, #16
 8007608:	13c2200f 	bicne	r2, r2, #15
 800760c:	e0843008 	add	r3, r4, r8
 8007610:	e1a01002 	mov	r1, r2
 8007614:	e1a00006 	mov	r0, r6
 8007618:	e58d3004 	str	r3, [sp, #4]
 800761c:	e58d2000 	str	r2, [sp]
 8007620:	eb00031e 	bl	80082a0 <_sbrk_r>
 8007624:	e3700001 	cmn	r0, #1
 8007628:	e1a09000 	mov	r9, r0
 800762c:	e89d000c 	ldm	sp, {r2, r3}
 8007630:	0a0000a4 	beq	80078c8 <_malloc_r+0x558>
 8007634:	e1530000 	cmp	r3, r0
 8007638:	8a0000a0 	bhi	80078c0 <_malloc_r+0x550>
 800763c:	e59fa50c 	ldr	sl, [pc, #1292]	; 8007b50 <_malloc_r+0x7e0>
 8007640:	e59a1000 	ldr	r1, [sl]
 8007644:	e0821001 	add	r1, r2, r1
 8007648:	e1a00001 	mov	r0, r1
 800764c:	e58a1000 	str	r1, [sl]
 8007650:	1a0000bc 	bne	8007948 <_malloc_r+0x5d8>
 8007654:	e1a0ca09 	lsl	ip, r9, #20
 8007658:	e1a0ca2c 	lsr	ip, ip, #20
 800765c:	e35c0000 	cmp	ip, #0
 8007660:	1a0000b8 	bne	8007948 <_malloc_r+0x5d8>
 8007664:	e5979008 	ldr	r9, [r7, #8]
 8007668:	e0882002 	add	r2, r8, r2
 800766c:	e3822001 	orr	r2, r2, #1
 8007670:	e5892004 	str	r2, [r9, #4]
 8007674:	e1a04009 	mov	r4, r9
 8007678:	e59f34d4 	ldr	r3, [pc, #1236]	; 8007b54 <_malloc_r+0x7e4>
 800767c:	e5930000 	ldr	r0, [r3]
 8007680:	e1500001 	cmp	r0, r1
 8007684:	35831000 	strcc	r1, [r3]
 8007688:	e59f34c8 	ldr	r3, [pc, #1224]	; 8007b58 <_malloc_r+0x7e8>
 800768c:	e5930000 	ldr	r0, [r3]
 8007690:	e1500001 	cmp	r0, r1
 8007694:	35831000 	strcc	r1, [r3]
 8007698:	e3c23003 	bic	r3, r2, #3
 800769c:	e1530005 	cmp	r3, r5
 80076a0:	23a02000 	movcs	r2, #0
 80076a4:	33a02001 	movcc	r2, #1
 80076a8:	e0433005 	sub	r3, r3, r5
 80076ac:	e353000f 	cmp	r3, #15
 80076b0:	d3822001 	orrle	r2, r2, #1
 80076b4:	e3520000 	cmp	r2, #0
 80076b8:	0a000002 	beq	80076c8 <_malloc_r+0x358>
 80076bc:	e1a00006 	mov	r0, r6
 80076c0:	eb0001b0 	bl	8007d88 <__malloc_unlock>
 80076c4:	eaffffb4 	b	800759c <_malloc_r+0x22c>
 80076c8:	e0842005 	add	r2, r4, r5
 80076cc:	e3833001 	orr	r3, r3, #1
 80076d0:	e3855001 	orr	r5, r5, #1
 80076d4:	e5845004 	str	r5, [r4, #4]
 80076d8:	e1a00006 	mov	r0, r6
 80076dc:	e5872008 	str	r2, [r7, #8]
 80076e0:	e2844008 	add	r4, r4, #8
 80076e4:	e5823004 	str	r3, [r2, #4]
 80076e8:	eb0001a6 	bl	8007d88 <__malloc_unlock>
 80076ec:	e1a00004 	mov	r0, r4
 80076f0:	e28dd00c 	add	sp, sp, #12
 80076f4:	e8bd4ff0 	pop	{r4, r5, r6, r7, r8, r9, sl, fp, lr}
 80076f8:	e12fff1e 	bx	lr
 80076fc:	e593100c 	ldr	r1, [r3, #12]
 8007700:	e593c008 	ldr	ip, [r3, #8]
 8007704:	e0832002 	add	r2, r3, r2
 8007708:	e58c100c 	str	r1, [ip, #12]
 800770c:	e581c008 	str	ip, [r1, #8]
 8007710:	e5921004 	ldr	r1, [r2, #4]
 8007714:	e2834008 	add	r4, r3, #8
 8007718:	e3813001 	orr	r3, r1, #1
 800771c:	e1a00006 	mov	r0, r6
 8007720:	e5823004 	str	r3, [r2, #4]
 8007724:	eb000197 	bl	8007d88 <__malloc_unlock>
 8007728:	e1a00004 	mov	r0, r4
 800772c:	e28dd00c 	add	sp, sp, #12
 8007730:	e8bd4ff0 	pop	{r4, r5, r6, r7, r8, r9, sl, fp, lr}
 8007734:	e12fff1e 	bx	lr
 8007738:	e592400c 	ldr	r4, [r2, #12]
 800773c:	e1520004 	cmp	r2, r4
 8007740:	028cc002 	addeq	ip, ip, #2
 8007744:	0affff4f 	beq	8007488 <_malloc_r+0x118>
 8007748:	eaffff1a 	b	80073b8 <_malloc_r+0x48>
 800774c:	e3510c0a 	cmp	r1, #2560	; 0xa00
 8007750:	e1a034a1 	lsr	r3, r1, #9
 8007754:	3a000054 	bcc	80078ac <_malloc_r+0x53c>
 8007758:	e3530014 	cmp	r3, #20
 800775c:	8a0000c0 	bhi	8007a64 <_malloc_r+0x6f4>
 8007760:	e283205c 	add	r2, r3, #92	; 0x5c
 8007764:	e1a02182 	lsl	r2, r2, #3
 8007768:	e283305b 	add	r3, r3, #91	; 0x5b
 800776c:	e7970002 	ldr	r0, [r7, r2]
 8007770:	e0872002 	add	r2, r7, r2
 8007774:	e2422008 	sub	r2, r2, #8
 8007778:	e1520000 	cmp	r2, r0
 800777c:	1a000003 	bne	8007790 <_malloc_r+0x420>
 8007780:	ea0000a4 	b	8007a18 <_malloc_r+0x6a8>
 8007784:	e5900008 	ldr	r0, [r0, #8]
 8007788:	e1520000 	cmp	r2, r0
 800778c:	0a000003 	beq	80077a0 <_malloc_r+0x430>
 8007790:	e5903004 	ldr	r3, [r0, #4]
 8007794:	e3c33003 	bic	r3, r3, #3
 8007798:	e1530001 	cmp	r3, r1
 800779c:	8afffff8 	bhi	8007784 <_malloc_r+0x414>
 80077a0:	e590200c 	ldr	r2, [r0, #12]
 80077a4:	e584200c 	str	r2, [r4, #12]
 80077a8:	e5840008 	str	r0, [r4, #8]
 80077ac:	e5824008 	str	r4, [r2, #8]
 80077b0:	e580400c 	str	r4, [r0, #12]
 80077b4:	eaffff51 	b	8007500 <_malloc_r+0x190>
 80077b8:	e3530014 	cmp	r3, #20
 80077bc:	9a000044 	bls	80078d4 <_malloc_r+0x564>
 80077c0:	e3530054 	cmp	r3, #84	; 0x54
 80077c4:	8a0000ad 	bhi	8007a80 <_malloc_r+0x710>
 80077c8:	e1a03625 	lsr	r3, r5, #12
 80077cc:	e283c06f 	add	ip, r3, #111	; 0x6f
 80077d0:	e283e06e 	add	lr, r3, #110	; 0x6e
 80077d4:	e1a0018c 	lsl	r0, ip, #3
 80077d8:	eaffff18 	b	8007440 <_malloc_r+0xd0>
 80077dc:	e594c008 	ldr	ip, [r4, #8]
 80077e0:	e0843005 	add	r3, r4, r5
 80077e4:	e3855001 	orr	r5, r5, #1
 80077e8:	e5845004 	str	r5, [r4, #4]
 80077ec:	e58c100c 	str	r1, [ip, #12]
 80077f0:	e581c008 	str	ip, [r1, #8]
 80077f4:	e3881001 	orr	r1, r8, #1
 80077f8:	e5873010 	str	r3, [r7, #16]
 80077fc:	e5873014 	str	r3, [r7, #20]
 8007800:	e1a00006 	mov	r0, r6
 8007804:	e583e00c 	str	lr, [r3, #12]
 8007808:	e583e008 	str	lr, [r3, #8]
 800780c:	e5831004 	str	r1, [r3, #4]
 8007810:	e7848002 	str	r8, [r4, r2]
 8007814:	eb00015b 	bl	8007d88 <__malloc_unlock>
 8007818:	e2844008 	add	r4, r4, #8
 800781c:	eafffef2 	b	80073ec <_malloc_r+0x7c>
 8007820:	e0842002 	add	r2, r4, r2
 8007824:	e5923004 	ldr	r3, [r2, #4]
 8007828:	e3833001 	orr	r3, r3, #1
 800782c:	e5823004 	str	r3, [r2, #4]
 8007830:	e5b43008 	ldr	r3, [r4, #8]!
 8007834:	e1a00006 	mov	r0, r6
 8007838:	e583100c 	str	r1, [r3, #12]
 800783c:	e5813008 	str	r3, [r1, #8]
 8007840:	eb000150 	bl	8007d88 <__malloc_unlock>
 8007844:	eafffee8 	b	80073ec <_malloc_r+0x7c>
 8007848:	e1a0c1a5 	lsr	ip, r5, #3
 800784c:	e2852008 	add	r2, r5, #8
 8007850:	eafffed2 	b	80073a0 <_malloc_r+0x30>
 8007854:	e0841001 	add	r1, r4, r1
 8007858:	e5913004 	ldr	r3, [r1, #4]
 800785c:	e3833001 	orr	r3, r3, #1
 8007860:	e1a00006 	mov	r0, r6
 8007864:	e5813004 	str	r3, [r1, #4]
 8007868:	eb000146 	bl	8007d88 <__malloc_unlock>
 800786c:	e2844008 	add	r4, r4, #8
 8007870:	eafffedd 	b	80073ec <_malloc_r+0x7c>
 8007874:	e0842005 	add	r2, r4, r5
 8007878:	e383c001 	orr	ip, r3, #1
 800787c:	e3855001 	orr	r5, r5, #1
 8007880:	e5845004 	str	r5, [r4, #4]
 8007884:	e1a00006 	mov	r0, r6
 8007888:	e5872010 	str	r2, [r7, #16]
 800788c:	e5872014 	str	r2, [r7, #20]
 8007890:	e582e00c 	str	lr, [r2, #12]
 8007894:	e582e008 	str	lr, [r2, #8]
 8007898:	e582c004 	str	ip, [r2, #4]
 800789c:	e7843001 	str	r3, [r4, r1]
 80078a0:	eb000138 	bl	8007d88 <__malloc_unlock>
 80078a4:	e2844008 	add	r4, r4, #8
 80078a8:	eafffecf 	b	80073ec <_malloc_r+0x7c>
 80078ac:	e1a03321 	lsr	r3, r1, #6
 80078b0:	e2832039 	add	r2, r3, #57	; 0x39
 80078b4:	e1a02182 	lsl	r2, r2, #3
 80078b8:	e2833038 	add	r3, r3, #56	; 0x38
 80078bc:	eaffffaa 	b	800776c <_malloc_r+0x3fc>
 80078c0:	e1540007 	cmp	r4, r7
 80078c4:	0a00001b 	beq	8007938 <_malloc_r+0x5c8>
 80078c8:	e5974008 	ldr	r4, [r7, #8]
 80078cc:	e5942004 	ldr	r2, [r4, #4]
 80078d0:	eaffff70 	b	8007698 <_malloc_r+0x328>
 80078d4:	e283c05c 	add	ip, r3, #92	; 0x5c
 80078d8:	e283e05b 	add	lr, r3, #91	; 0x5b
 80078dc:	e1a0018c 	lsl	r0, ip, #3
 80078e0:	eafffed6 	b	8007440 <_malloc_r+0xd0>
 80078e4:	e41a3008 	ldr	r3, [sl], #-8
 80078e8:	e153000a 	cmp	r3, sl
 80078ec:	e24cc001 	sub	ip, ip, #1
 80078f0:	1a000090 	bne	8007b38 <_malloc_r+0x7c8>
 80078f4:	e31c0003 	tst	ip, #3
 80078f8:	1afffff9 	bne	80078e4 <_malloc_r+0x574>
 80078fc:	e5973004 	ldr	r3, [r7, #4]
 8007900:	e1c33000 	bic	r3, r3, r0
 8007904:	e5873004 	str	r3, [r7, #4]
 8007908:	e1a00080 	lsl	r0, r0, #1
 800790c:	e2402001 	sub	r2, r0, #1
 8007910:	e1520003 	cmp	r2, r3
 8007914:	2affff26 	bcs	80075b4 <_malloc_r+0x244>
 8007918:	e1100003 	tst	r0, r3
 800791c:	1a000003 	bne	8007930 <_malloc_r+0x5c0>
 8007920:	e1a00080 	lsl	r0, r0, #1
 8007924:	e1100003 	tst	r0, r3
 8007928:	e2899004 	add	r9, r9, #4
 800792c:	0afffffb 	beq	8007920 <_malloc_r+0x5b0>
 8007930:	e1a0c009 	mov	ip, r9
 8007934:	eaffff01 	b	8007540 <_malloc_r+0x1d0>
 8007938:	e59fa210 	ldr	sl, [pc, #528]	; 8007b50 <_malloc_r+0x7e0>
 800793c:	e59a0000 	ldr	r0, [sl]
 8007940:	e0820000 	add	r0, r2, r0
 8007944:	e58a0000 	str	r0, [sl]
 8007948:	e59b1000 	ldr	r1, [fp]
 800794c:	e3710001 	cmn	r1, #1
 8007950:	10493003 	subne	r3, r9, r3
 8007954:	10833000 	addne	r3, r3, r0
 8007958:	058b9000 	streq	r9, [fp]
 800795c:	158a3000 	strne	r3, [sl]
 8007960:	e2193007 	ands	r3, r9, #7
 8007964:	0a000030 	beq	8007a2c <_malloc_r+0x6bc>
 8007968:	e2631008 	rsb	r1, r3, #8
 800796c:	e0899001 	add	r9, r9, r1
 8007970:	e2631a01 	rsb	r1, r3, #4096	; 0x1000
 8007974:	e0892002 	add	r2, r9, r2
 8007978:	e2811008 	add	r1, r1, #8
 800797c:	e0411002 	sub	r1, r1, r2
 8007980:	e1a0ba01 	lsl	fp, r1, #20
 8007984:	e1a0ba2b 	lsr	fp, fp, #20
 8007988:	e1a0100b 	mov	r1, fp
 800798c:	e1a00006 	mov	r0, r6
 8007990:	e58d3004 	str	r3, [sp, #4]
 8007994:	e58d2000 	str	r2, [sp]
 8007998:	eb000240 	bl	80082a0 <_sbrk_r>
 800799c:	e3700001 	cmn	r0, #1
 80079a0:	e89d000c 	ldm	sp, {r2, r3}
 80079a4:	0a000051 	beq	8007af0 <_malloc_r+0x780>
 80079a8:	e0400009 	sub	r0, r0, r9
 80079ac:	e080200b 	add	r2, r0, fp
 80079b0:	e59a3000 	ldr	r3, [sl]
 80079b4:	e3822001 	orr	r2, r2, #1
 80079b8:	e08b1003 	add	r1, fp, r3
 80079bc:	e1540007 	cmp	r4, r7
 80079c0:	e5879008 	str	r9, [r7, #8]
 80079c4:	e58a1000 	str	r1, [sl]
 80079c8:	e5892004 	str	r2, [r9, #4]
 80079cc:	0affff28 	beq	8007674 <_malloc_r+0x304>
 80079d0:	e358000f 	cmp	r8, #15
 80079d4:	93a03001 	movls	r3, #1
 80079d8:	95893004 	strls	r3, [r9, #4]
 80079dc:	9affff36 	bls	80076bc <_malloc_r+0x34c>
 80079e0:	e3a00005 	mov	r0, #5
 80079e4:	e5942004 	ldr	r2, [r4, #4]
 80079e8:	e248300c 	sub	r3, r8, #12
 80079ec:	e3c33007 	bic	r3, r3, #7
 80079f0:	e2022001 	and	r2, r2, #1
 80079f4:	e1822003 	orr	r2, r2, r3
 80079f8:	e353000f 	cmp	r3, #15
 80079fc:	e0843003 	add	r3, r4, r3
 8007a00:	e5842004 	str	r2, [r4, #4]
 8007a04:	e5830004 	str	r0, [r3, #4]
 8007a08:	e5830008 	str	r0, [r3, #8]
 8007a0c:	8a000031 	bhi	8007ad8 <_malloc_r+0x768>
 8007a10:	e5992004 	ldr	r2, [r9, #4]
 8007a14:	eaffff16 	b	8007674 <_malloc_r+0x304>
 8007a18:	e3a01001 	mov	r1, #1
 8007a1c:	e1a03143 	asr	r3, r3, #2
 8007a20:	e1888311 	orr	r8, r8, r1, lsl r3
 8007a24:	e5878004 	str	r8, [r7, #4]
 8007a28:	eaffff5d 	b	80077a4 <_malloc_r+0x434>
 8007a2c:	e0891002 	add	r1, r9, r2
 8007a30:	e2611000 	rsb	r1, r1, #0
 8007a34:	e1a0ba01 	lsl	fp, r1, #20
 8007a38:	e1a0ba2b 	lsr	fp, fp, #20
 8007a3c:	e1a0100b 	mov	r1, fp
 8007a40:	e1a00006 	mov	r0, r6
 8007a44:	e58d3004 	str	r3, [sp, #4]
 8007a48:	e58d2000 	str	r2, [sp]
 8007a4c:	eb000213 	bl	80082a0 <_sbrk_r>
 8007a50:	e89d000c 	ldm	sp, {r2, r3}
 8007a54:	e3700001 	cmn	r0, #1
 8007a58:	01a0b003 	moveq	fp, r3
 8007a5c:	1affffd1 	bne	80079a8 <_malloc_r+0x638>
 8007a60:	eaffffd2 	b	80079b0 <_malloc_r+0x640>
 8007a64:	e3530054 	cmp	r3, #84	; 0x54
 8007a68:	8a00000b 	bhi	8007a9c <_malloc_r+0x72c>
 8007a6c:	e1a03621 	lsr	r3, r1, #12
 8007a70:	e283206f 	add	r2, r3, #111	; 0x6f
 8007a74:	e1a02182 	lsl	r2, r2, #3
 8007a78:	e283306e 	add	r3, r3, #110	; 0x6e
 8007a7c:	eaffff3a 	b	800776c <_malloc_r+0x3fc>
 8007a80:	e3530f55 	cmp	r3, #340	; 0x154
 8007a84:	8a00000b 	bhi	8007ab8 <_malloc_r+0x748>
 8007a88:	e1a037a5 	lsr	r3, r5, #15
 8007a8c:	e283c078 	add	ip, r3, #120	; 0x78
 8007a90:	e283e077 	add	lr, r3, #119	; 0x77
 8007a94:	e1a0018c 	lsl	r0, ip, #3
 8007a98:	eafffe68 	b	8007440 <_malloc_r+0xd0>
 8007a9c:	e3530f55 	cmp	r3, #340	; 0x154
 8007aa0:	8a000017 	bhi	8007b04 <_malloc_r+0x794>
 8007aa4:	e1a037a1 	lsr	r3, r1, #15
 8007aa8:	e2832078 	add	r2, r3, #120	; 0x78
 8007aac:	e1a02182 	lsl	r2, r2, #3
 8007ab0:	e2833077 	add	r3, r3, #119	; 0x77
 8007ab4:	eaffff2c 	b	800776c <_malloc_r+0x3fc>
 8007ab8:	e59f209c 	ldr	r2, [pc, #156]	; 8007b5c <_malloc_r+0x7ec>
 8007abc:	e1530002 	cmp	r3, r2
 8007ac0:	8a000018 	bhi	8007b28 <_malloc_r+0x7b8>
 8007ac4:	e1a03925 	lsr	r3, r5, #18
 8007ac8:	e283c07d 	add	ip, r3, #125	; 0x7d
 8007acc:	e283e07c 	add	lr, r3, #124	; 0x7c
 8007ad0:	e1a0018c 	lsl	r0, ip, #3
 8007ad4:	eafffe59 	b	8007440 <_malloc_r+0xd0>
 8007ad8:	e2841008 	add	r1, r4, #8
 8007adc:	e1a00006 	mov	r0, r6
 8007ae0:	eb000134 	bl	8007fb8 <_free_r>
 8007ae4:	e5979008 	ldr	r9, [r7, #8]
 8007ae8:	e59a1000 	ldr	r1, [sl]
 8007aec:	eaffffc7 	b	8007a10 <_malloc_r+0x6a0>
 8007af0:	e2433008 	sub	r3, r3, #8
 8007af4:	e0822003 	add	r2, r2, r3
 8007af8:	e3a0b000 	mov	fp, #0
 8007afc:	e0422009 	sub	r2, r2, r9
 8007b00:	eaffffaa 	b	80079b0 <_malloc_r+0x640>
 8007b04:	e59f2050 	ldr	r2, [pc, #80]	; 8007b5c <_malloc_r+0x7ec>
 8007b08:	e1530002 	cmp	r3, r2
 8007b0c:	91a03921 	lsrls	r3, r1, #18
 8007b10:	9283207d 	addls	r2, r3, #125	; 0x7d
 8007b14:	83a02ffe 	movhi	r2, #1016	; 0x3f8
 8007b18:	83a0307e 	movhi	r3, #126	; 0x7e
 8007b1c:	9283307c 	addls	r3, r3, #124	; 0x7c
 8007b20:	91a02182 	lslls	r2, r2, #3
 8007b24:	eaffff10 	b	800776c <_malloc_r+0x3fc>
 8007b28:	e3a00ffe 	mov	r0, #1016	; 0x3f8
 8007b2c:	e3a0c07f 	mov	ip, #127	; 0x7f
 8007b30:	e3a0e07e 	mov	lr, #126	; 0x7e
 8007b34:	eafffe41 	b	8007440 <_malloc_r+0xd0>
 8007b38:	e5973004 	ldr	r3, [r7, #4]
 8007b3c:	eaffff71 	b	8007908 <_malloc_r+0x598>
 8007b40:	03000ef8 	.word	0x03000ef8
 8007b44:	03000f00 	.word	0x03000f00
 8007b48:	03000b68 	.word	0x03000b68
 8007b4c:	03000ef0 	.word	0x03000ef0
 8007b50:	03000b38 	.word	0x03000b38
 8007b54:	03000b64 	.word	0x03000b64
 8007b58:	03000b60 	.word	0x03000b60
 8007b5c:	00000554 	.word	0x00000554

08007b60 <memcpy>:
 8007b60:	e352000f 	cmp	r2, #15
 8007b64:	9a00000c 	bls	8007b9c <memcpy+0x3c>
 8007b68:	e1803001 	orr	r3, r0, r1
 8007b6c:	e3130003 	tst	r3, #3
 8007b70:	11a03000 	movne	r3, r0
 8007b74:	12422001 	subne	r2, r2, #1
 8007b78:	0a00000c 	beq	8007bb0 <memcpy+0x50>
 8007b7c:	e2822001 	add	r2, r2, #1
 8007b80:	e2433001 	sub	r3, r3, #1
 8007b84:	e0812002 	add	r2, r1, r2
 8007b88:	e4d1c001 	ldrb	ip, [r1], #1
 8007b8c:	e1510002 	cmp	r1, r2
 8007b90:	e5e3c001 	strb	ip, [r3, #1]!
 8007b94:	1afffffb 	bne	8007b88 <memcpy+0x28>
 8007b98:	e12fff1e 	bx	lr
 8007b9c:	e3520000 	cmp	r2, #0
 8007ba0:	e1a03000 	mov	r3, r0
 8007ba4:	e2422001 	sub	r2, r2, #1
 8007ba8:	1afffff3 	bne	8007b7c <memcpy+0x1c>
 8007bac:	e12fff1e 	bx	lr
 8007bb0:	e1a0c000 	mov	ip, r0
 8007bb4:	e92d41f0 	push	{r4, r5, r6, r7, r8, lr}
 8007bb8:	e2427010 	sub	r7, r2, #16
 8007bbc:	e3c7700f 	bic	r7, r7, #15
 8007bc0:	e2877010 	add	r7, r7, #16
 8007bc4:	e281e010 	add	lr, r1, #16
 8007bc8:	e0803007 	add	r3, r0, r7
 8007bcc:	e51e8010 	ldr	r8, [lr, #-16]
 8007bd0:	e48c8010 	str	r8, [ip], #16
 8007bd4:	e51e600c 	ldr	r6, [lr, #-12]
 8007bd8:	e51e5008 	ldr	r5, [lr, #-8]
 8007bdc:	e51e4004 	ldr	r4, [lr, #-4]
 8007be0:	e15c0003 	cmp	ip, r3
 8007be4:	e50c600c 	str	r6, [ip, #-12]
 8007be8:	e50c5008 	str	r5, [ip, #-8]
 8007bec:	e50c4004 	str	r4, [ip, #-4]
 8007bf0:	e28ee010 	add	lr, lr, #16
 8007bf4:	1afffff4 	bne	8007bcc <memcpy+0x6c>
 8007bf8:	e312000c 	tst	r2, #12
 8007bfc:	e202c00f 	and	ip, r2, #15
 8007c00:	01a0200c 	moveq	r2, ip
 8007c04:	e0811007 	add	r1, r1, r7
 8007c08:	0a00000d 	beq	8007c44 <memcpy+0xe4>
 8007c0c:	e1a04001 	mov	r4, r1
 8007c10:	e24cc004 	sub	ip, ip, #4
 8007c14:	e3cc6003 	bic	r6, ip, #3
 8007c18:	e1a0e12c 	lsr	lr, ip, #2
 8007c1c:	e0836006 	add	r6, r3, r6
 8007c20:	e243c004 	sub	ip, r3, #4
 8007c24:	e4945004 	ldr	r5, [r4], #4
 8007c28:	e5ac5004 	str	r5, [ip, #4]!
 8007c2c:	e15c0006 	cmp	ip, r6
 8007c30:	1afffffb 	bne	8007c24 <memcpy+0xc4>
 8007c34:	e28ec001 	add	ip, lr, #1
 8007c38:	e2022003 	and	r2, r2, #3
 8007c3c:	e083310c 	add	r3, r3, ip, lsl #2
 8007c40:	e081110c 	add	r1, r1, ip, lsl #2
 8007c44:	e3520000 	cmp	r2, #0
 8007c48:	e2422001 	sub	r2, r2, #1
 8007c4c:	12822001 	addne	r2, r2, #1
 8007c50:	12433001 	subne	r3, r3, #1
 8007c54:	10812002 	addne	r2, r1, r2
 8007c58:	0a000003 	beq	8007c6c <memcpy+0x10c>
 8007c5c:	e4d1c001 	ldrb	ip, [r1], #1
 8007c60:	e1510002 	cmp	r1, r2
 8007c64:	e5e3c001 	strb	ip, [r3, #1]!
 8007c68:	1afffffb 	bne	8007c5c <memcpy+0xfc>
 8007c6c:	e8bd41f0 	pop	{r4, r5, r6, r7, r8, lr}
 8007c70:	e12fff1e 	bx	lr

08007c74 <memset>:
 8007c74:	e3100003 	tst	r0, #3
 8007c78:	e92d4030 	push	{r4, r5, lr}
 8007c7c:	0a000036 	beq	8007d5c <memset+0xe8>
 8007c80:	e3520000 	cmp	r2, #0
 8007c84:	e2423001 	sub	r3, r2, #1
 8007c88:	0a00002f 	beq	8007d4c <memset+0xd8>
 8007c8c:	e1a0e000 	mov	lr, r0
 8007c90:	e20120ff 	and	r2, r1, #255	; 0xff
 8007c94:	ea000001 	b	8007ca0 <memset+0x2c>
 8007c98:	e2533001 	subs	r3, r3, #1
 8007c9c:	3a00002a 	bcc	8007d4c <memset+0xd8>
 8007ca0:	e4ce2001 	strb	r2, [lr], #1
 8007ca4:	e31e0003 	tst	lr, #3
 8007ca8:	1afffffa 	bne	8007c98 <memset+0x24>
 8007cac:	e3530003 	cmp	r3, #3
 8007cb0:	9a00001e 	bls	8007d30 <memset+0xbc>
 8007cb4:	e201c0ff 	and	ip, r1, #255	; 0xff
 8007cb8:	e08cc40c 	add	ip, ip, ip, lsl #8
 8007cbc:	e353000f 	cmp	r3, #15
 8007cc0:	e08cc80c 	add	ip, ip, ip, lsl #16
 8007cc4:	9a000027 	bls	8007d68 <memset+0xf4>
 8007cc8:	e2432010 	sub	r2, r3, #16
 8007ccc:	e3c2400f 	bic	r4, r2, #15
 8007cd0:	e28e5020 	add	r5, lr, #32
 8007cd4:	e0855004 	add	r5, r5, r4
 8007cd8:	e1a04222 	lsr	r4, r2, #4
 8007cdc:	e28e2010 	add	r2, lr, #16
 8007ce0:	e502c010 	str	ip, [r2, #-16]
 8007ce4:	e502c00c 	str	ip, [r2, #-12]
 8007ce8:	e502c008 	str	ip, [r2, #-8]
 8007cec:	e502c004 	str	ip, [r2, #-4]
 8007cf0:	e2822010 	add	r2, r2, #16
 8007cf4:	e1520005 	cmp	r2, r5
 8007cf8:	1afffff8 	bne	8007ce0 <memset+0x6c>
 8007cfc:	e2842001 	add	r2, r4, #1
 8007d00:	e313000c 	tst	r3, #12
 8007d04:	e08e2202 	add	r2, lr, r2, lsl #4
 8007d08:	e203300f 	and	r3, r3, #15
 8007d0c:	0a000010 	beq	8007d54 <memset+0xe0>
 8007d10:	e243e004 	sub	lr, r3, #4
 8007d14:	e3cee003 	bic	lr, lr, #3
 8007d18:	e28ee004 	add	lr, lr, #4
 8007d1c:	e082e00e 	add	lr, r2, lr
 8007d20:	e482c004 	str	ip, [r2], #4
 8007d24:	e152000e 	cmp	r2, lr
 8007d28:	1afffffc 	bne	8007d20 <memset+0xac>
 8007d2c:	e2033003 	and	r3, r3, #3
 8007d30:	e3530000 	cmp	r3, #0
 8007d34:	120110ff 	andne	r1, r1, #255	; 0xff
 8007d38:	108e3003 	addne	r3, lr, r3
 8007d3c:	0a000002 	beq	8007d4c <memset+0xd8>
 8007d40:	e4ce1001 	strb	r1, [lr], #1
 8007d44:	e153000e 	cmp	r3, lr
 8007d48:	1afffffc 	bne	8007d40 <memset+0xcc>
 8007d4c:	e8bd4030 	pop	{r4, r5, lr}
 8007d50:	e12fff1e 	bx	lr
 8007d54:	e1a0e002 	mov	lr, r2
 8007d58:	eafffff4 	b	8007d30 <memset+0xbc>
 8007d5c:	e1a0e000 	mov	lr, r0
 8007d60:	e1a03002 	mov	r3, r2
 8007d64:	eaffffd0 	b	8007cac <memset+0x38>
 8007d68:	e1a0200e 	mov	r2, lr
 8007d6c:	eaffffe7 	b	8007d10 <memset+0x9c>

08007d70 <__malloc_lock>:
 8007d70:	e92d4010 	push	{r4, lr}
 8007d74:	e59f0008 	ldr	r0, [pc, #8]	; 8007d84 <__malloc_lock+0x14>
 8007d78:	eb000173 	bl	800834c <__libc_lock_acquire_recursive>
 8007d7c:	e8bd4010 	pop	{r4, lr}
 8007d80:	e12fff1e 	bx	lr
 8007d84:	03000b6c 	.word	0x03000b6c

08007d88 <__malloc_unlock>:
 8007d88:	e92d4010 	push	{r4, lr}
 8007d8c:	e59f0008 	ldr	r0, [pc, #8]	; 8007d9c <__malloc_unlock+0x14>
 8007d90:	eb000175 	bl	800836c <__libc_lock_release_recursive>
 8007d94:	e8bd4010 	pop	{r4, lr}
 8007d98:	e12fff1e 	bx	lr
 8007d9c:	03000b6c 	.word	0x03000b6c

08007da0 <rand>:
 8007da0:	e92d4010 	push	{r4, lr}
 8007da4:	eb00015c 	bl	800831c <__getreent>
 8007da8:	e59f3030 	ldr	r3, [pc, #48]	; 8007de0 <rand+0x40>
 8007dac:	e590c0a8 	ldr	ip, [r0, #168]	; 0xa8
 8007db0:	e003039c 	mul	r3, ip, r3
 8007db4:	e59020ac 	ldr	r2, [r0, #172]	; 0xac
 8007db8:	e59f1024 	ldr	r1, [pc, #36]	; 8007de4 <rand+0x44>
 8007dbc:	e0233291 	mla	r3, r1, r2, r3
 8007dc0:	e08e219c 	umull	r2, lr, ip, r1
 8007dc4:	e2922001 	adds	r2, r2, #1
 8007dc8:	e0a3300e 	adc	r3, r3, lr
 8007dcc:	e58020a8 	str	r2, [r0, #168]	; 0xa8
 8007dd0:	e58030ac 	str	r3, [r0, #172]	; 0xac
 8007dd4:	e8bd4010 	pop	{r4, lr}
 8007dd8:	e3c30102 	bic	r0, r3, #-2147483648	; 0x80000000
 8007ddc:	e12fff1e 	bx	lr
 8007de0:	5851f42d 	.word	0x5851f42d
 8007de4:	4c957f2d 	.word	0x4c957f2d

08007de8 <strncpy>:
 8007de8:	e1803001 	orr	r3, r0, r1
 8007dec:	e3520003 	cmp	r2, #3
 8007df0:	e2033003 	and	r3, r3, #3
 8007df4:	93a0c000 	movls	ip, #0
 8007df8:	83a0c001 	movhi	ip, #1
 8007dfc:	e3530000 	cmp	r3, #0
 8007e00:	13a0c000 	movne	ip, #0
 8007e04:	e35c0000 	cmp	ip, #0
 8007e08:	e92d4030 	push	{r4, r5, lr}
 8007e0c:	01a0e000 	moveq	lr, r0
 8007e10:	1a000015 	bne	8007e6c <strncpy+0x84>
 8007e14:	e2411001 	sub	r1, r1, #1
 8007e18:	ea000007 	b	8007e3c <strncpy+0x54>
 8007e1c:	e1a0300e 	mov	r3, lr
 8007e20:	e5f1c001 	ldrb	ip, [r1, #1]!
 8007e24:	e35c0000 	cmp	ip, #0
 8007e28:	e4c3c001 	strb	ip, [r3], #1
 8007e2c:	e2424001 	sub	r4, r2, #1
 8007e30:	0a000005 	beq	8007e4c <strncpy+0x64>
 8007e34:	e1a0e003 	mov	lr, r3
 8007e38:	e1a02004 	mov	r2, r4
 8007e3c:	e3520000 	cmp	r2, #0
 8007e40:	1afffff5 	bne	8007e1c <strncpy+0x34>
 8007e44:	e8bd4030 	pop	{r4, r5, lr}
 8007e48:	e12fff1e 	bx	lr
 8007e4c:	e3540000 	cmp	r4, #0
 8007e50:	108ee002 	addne	lr, lr, r2
 8007e54:	0afffffa 	beq	8007e44 <strncpy+0x5c>
 8007e58:	e4c3c001 	strb	ip, [r3], #1
 8007e5c:	e153000e 	cmp	r3, lr
 8007e60:	1afffffc 	bne	8007e58 <strncpy+0x70>
 8007e64:	e8bd4030 	pop	{r4, r5, lr}
 8007e68:	e12fff1e 	bx	lr
 8007e6c:	e1a03001 	mov	r3, r1
 8007e70:	e1a0e000 	mov	lr, r0
 8007e74:	e59f5034 	ldr	r5, [pc, #52]	; 8007eb0 <strncpy+0xc8>
 8007e78:	e59f4034 	ldr	r4, [pc, #52]	; 8007eb4 <strncpy+0xcc>
 8007e7c:	e1a01003 	mov	r1, r3
 8007e80:	e593c000 	ldr	ip, [r3]
 8007e84:	e08c3005 	add	r3, ip, r5
 8007e88:	e1c3300c 	bic	r3, r3, ip
 8007e8c:	e1130004 	tst	r3, r4
 8007e90:	e2813004 	add	r3, r1, #4
 8007e94:	1affffde 	bne	8007e14 <strncpy+0x2c>
 8007e98:	e2422004 	sub	r2, r2, #4
 8007e9c:	e3520003 	cmp	r2, #3
 8007ea0:	e48ec004 	str	ip, [lr], #4
 8007ea4:	8afffff4 	bhi	8007e7c <strncpy+0x94>
 8007ea8:	e1a01003 	mov	r1, r3
 8007eac:	eaffffd8 	b	8007e14 <strncpy+0x2c>
 8007eb0:	fefefeff 	.word	0xfefefeff
 8007eb4:	80808080 	.word	0x80808080

08007eb8 <_malloc_trim_r>:
 8007eb8:	e92d41f0 	push	{r4, r5, r6, r7, r8, lr}
 8007ebc:	e1a04001 	mov	r4, r1
 8007ec0:	e59f70e4 	ldr	r7, [pc, #228]	; 8007fac <_malloc_trim_r+0xf4>
 8007ec4:	e1a06000 	mov	r6, r0
 8007ec8:	ebffffa8 	bl	8007d70 <__malloc_lock>
 8007ecc:	e5973008 	ldr	r3, [r7, #8]
 8007ed0:	e5935004 	ldr	r5, [r3, #4]
 8007ed4:	e3c55003 	bic	r5, r5, #3
 8007ed8:	e2853efe 	add	r3, r5, #4064	; 0xfe0
 8007edc:	e283300f 	add	r3, r3, #15
 8007ee0:	e0431004 	sub	r1, r3, r4
 8007ee4:	e3c11eff 	bic	r1, r1, #4080	; 0xff0
 8007ee8:	e3c1100f 	bic	r1, r1, #15
 8007eec:	e2414a01 	sub	r4, r1, #4096	; 0x1000
 8007ef0:	e3540a01 	cmp	r4, #4096	; 0x1000
 8007ef4:	ba000006 	blt	8007f14 <_malloc_trim_r+0x5c>
 8007ef8:	e3a01000 	mov	r1, #0
 8007efc:	e1a00006 	mov	r0, r6
 8007f00:	eb0000e6 	bl	80082a0 <_sbrk_r>
 8007f04:	e5973008 	ldr	r3, [r7, #8]
 8007f08:	e0833005 	add	r3, r3, r5
 8007f0c:	e1500003 	cmp	r0, r3
 8007f10:	0a000004 	beq	8007f28 <_malloc_trim_r+0x70>
 8007f14:	e1a00006 	mov	r0, r6
 8007f18:	ebffff9a 	bl	8007d88 <__malloc_unlock>
 8007f1c:	e3a00000 	mov	r0, #0
 8007f20:	e8bd41f0 	pop	{r4, r5, r6, r7, r8, lr}
 8007f24:	e12fff1e 	bx	lr
 8007f28:	e1a00006 	mov	r0, r6
 8007f2c:	e2641000 	rsb	r1, r4, #0
 8007f30:	eb0000da 	bl	80082a0 <_sbrk_r>
 8007f34:	e3700001 	cmn	r0, #1
 8007f38:	0a00000c 	beq	8007f70 <_malloc_trim_r+0xb8>
 8007f3c:	e5973008 	ldr	r3, [r7, #8]
 8007f40:	e59f2068 	ldr	r2, [pc, #104]	; 8007fb0 <_malloc_trim_r+0xf8>
 8007f44:	e0455004 	sub	r5, r5, r4
 8007f48:	e3855001 	orr	r5, r5, #1
 8007f4c:	e5835004 	str	r5, [r3, #4]
 8007f50:	e5923000 	ldr	r3, [r2]
 8007f54:	e1a00006 	mov	r0, r6
 8007f58:	e0433004 	sub	r3, r3, r4
 8007f5c:	e5823000 	str	r3, [r2]
 8007f60:	ebffff88 	bl	8007d88 <__malloc_unlock>
 8007f64:	e3a00001 	mov	r0, #1
 8007f68:	e8bd41f0 	pop	{r4, r5, r6, r7, r8, lr}
 8007f6c:	e12fff1e 	bx	lr
 8007f70:	e3a01000 	mov	r1, #0
 8007f74:	e1a00006 	mov	r0, r6
 8007f78:	eb0000c8 	bl	80082a0 <_sbrk_r>
 8007f7c:	e5972008 	ldr	r2, [r7, #8]
 8007f80:	e0403002 	sub	r3, r0, r2
 8007f84:	e353000f 	cmp	r3, #15
 8007f88:	daffffe1 	ble	8007f14 <_malloc_trim_r+0x5c>
 8007f8c:	e3833001 	orr	r3, r3, #1
 8007f90:	e5823004 	str	r3, [r2, #4]
 8007f94:	e59f3018 	ldr	r3, [pc, #24]	; 8007fb4 <_malloc_trim_r+0xfc>
 8007f98:	e5933000 	ldr	r3, [r3]
 8007f9c:	e59f100c 	ldr	r1, [pc, #12]	; 8007fb0 <_malloc_trim_r+0xf8>
 8007fa0:	e0400003 	sub	r0, r0, r3
 8007fa4:	e5810000 	str	r0, [r1]
 8007fa8:	eaffffd9 	b	8007f14 <_malloc_trim_r+0x5c>
 8007fac:	03000ef8 	.word	0x03000ef8
 8007fb0:	03000b38 	.word	0x03000b38
 8007fb4:	03000ef0 	.word	0x03000ef0

08007fb8 <_free_r>:
 8007fb8:	e92d4070 	push	{r4, r5, r6, lr}
 8007fbc:	e2514000 	subs	r4, r1, #0
 8007fc0:	0a000032 	beq	8008090 <_free_r+0xd8>
 8007fc4:	e1a05000 	mov	r5, r0
 8007fc8:	ebffff68 	bl	8007d70 <__malloc_lock>
 8007fcc:	e5140004 	ldr	r0, [r4, #-4]
 8007fd0:	e59f22b8 	ldr	r2, [pc, #696]	; 8008290 <_free_r+0x2d8>
 8007fd4:	e244c008 	sub	ip, r4, #8
 8007fd8:	e5923008 	ldr	r3, [r2, #8]
 8007fdc:	e3c01001 	bic	r1, r0, #1
 8007fe0:	e08ce001 	add	lr, ip, r1
 8007fe4:	e153000e 	cmp	r3, lr
 8007fe8:	e59e3004 	ldr	r3, [lr, #4]
 8007fec:	e3c33003 	bic	r3, r3, #3
 8007ff0:	0a000064 	beq	8008188 <_free_r+0x1d0>
 8007ff4:	e3100001 	tst	r0, #1
 8007ff8:	e58e3004 	str	r3, [lr, #4]
 8007ffc:	e08e0003 	add	r0, lr, r3
 8008000:	1a000024 	bne	8008098 <_free_r+0xe0>
 8008004:	e5144008 	ldr	r4, [r4, #-8]
 8008008:	e04cc004 	sub	ip, ip, r4
 800800c:	e0811004 	add	r1, r1, r4
 8008010:	e59c4008 	ldr	r4, [ip, #8]
 8008014:	e5900004 	ldr	r0, [r0, #4]
 8008018:	e2826008 	add	r6, r2, #8
 800801c:	e1540006 	cmp	r4, r6
 8008020:	e2000001 	and	r0, r0, #1
 8008024:	0a000049 	beq	8008150 <_free_r+0x198>
 8008028:	e3500000 	cmp	r0, #0
 800802c:	e59c000c 	ldr	r0, [ip, #12]
 8008030:	e584000c 	str	r0, [r4, #12]
 8008034:	e5804008 	str	r4, [r0, #8]
 8008038:	0a000068 	beq	80081e0 <_free_r+0x228>
 800803c:	e3813001 	orr	r3, r1, #1
 8008040:	e58c3004 	str	r3, [ip, #4]
 8008044:	e58e1000 	str	r1, [lr]
 8008048:	e3510c02 	cmp	r1, #512	; 0x200
 800804c:	2a000019 	bcs	80080b8 <_free_r+0x100>
 8008050:	e3a0e001 	mov	lr, #1
 8008054:	e1a002a1 	lsr	r0, r1, #5
 8008058:	e1a031a1 	lsr	r3, r1, #3
 800805c:	e5921004 	ldr	r1, [r2, #4]
 8008060:	e2833001 	add	r3, r3, #1
 8008064:	e181101e 	orr	r1, r1, lr, lsl r0
 8008068:	e5821004 	str	r1, [r2, #4]
 800806c:	e7920183 	ldr	r0, [r2, r3, lsl #3]
 8008070:	e0821183 	add	r1, r2, r3, lsl #3
 8008074:	e2411008 	sub	r1, r1, #8
 8008078:	e58c100c 	str	r1, [ip, #12]
 800807c:	e58c0008 	str	r0, [ip, #8]
 8008080:	e782c183 	str	ip, [r2, r3, lsl #3]
 8008084:	e580c00c 	str	ip, [r0, #12]
 8008088:	e1a00005 	mov	r0, r5
 800808c:	ebffff3d 	bl	8007d88 <__malloc_unlock>
 8008090:	e8bd4070 	pop	{r4, r5, r6, lr}
 8008094:	e12fff1e 	bx	lr
 8008098:	e5900004 	ldr	r0, [r0, #4]
 800809c:	e3100001 	tst	r0, #1
 80080a0:	0a00001e 	beq	8008120 <_free_r+0x168>
 80080a4:	e3813001 	orr	r3, r1, #1
 80080a8:	e3510c02 	cmp	r1, #512	; 0x200
 80080ac:	e5043004 	str	r3, [r4, #-4]
 80080b0:	e58e1000 	str	r1, [lr]
 80080b4:	3affffe5 	bcc	8008050 <_free_r+0x98>
 80080b8:	e3510c0a 	cmp	r1, #2560	; 0xa00
 80080bc:	e1a034a1 	lsr	r3, r1, #9
 80080c0:	2a000048 	bcs	80081e8 <_free_r+0x230>
 80080c4:	e1a03321 	lsr	r3, r1, #6
 80080c8:	e2830039 	add	r0, r3, #57	; 0x39
 80080cc:	e283e038 	add	lr, r3, #56	; 0x38
 80080d0:	e1a00180 	lsl	r0, r0, #3
 80080d4:	e7923000 	ldr	r3, [r2, r0]
 80080d8:	e0820000 	add	r0, r2, r0
 80080dc:	e2400008 	sub	r0, r0, #8
 80080e0:	e1500003 	cmp	r0, r3
 80080e4:	1a000003 	bne	80080f8 <_free_r+0x140>
 80080e8:	ea00004b 	b	800821c <_free_r+0x264>
 80080ec:	e5933008 	ldr	r3, [r3, #8]
 80080f0:	e1500003 	cmp	r0, r3
 80080f4:	0a000003 	beq	8008108 <_free_r+0x150>
 80080f8:	e5932004 	ldr	r2, [r3, #4]
 80080fc:	e3c22003 	bic	r2, r2, #3
 8008100:	e1520001 	cmp	r2, r1
 8008104:	8afffff8 	bhi	80080ec <_free_r+0x134>
 8008108:	e593000c 	ldr	r0, [r3, #12]
 800810c:	e58c000c 	str	r0, [ip, #12]
 8008110:	e58c3008 	str	r3, [ip, #8]
 8008114:	e580c008 	str	ip, [r0, #8]
 8008118:	e583c00c 	str	ip, [r3, #12]
 800811c:	eaffffd9 	b	8008088 <_free_r+0xd0>
 8008120:	e0811003 	add	r1, r1, r3
 8008124:	e2826008 	add	r6, r2, #8
 8008128:	e59e3008 	ldr	r3, [lr, #8]
 800812c:	e1530006 	cmp	r3, r6
 8008130:	0a00003f 	beq	8008234 <_free_r+0x27c>
 8008134:	e59e000c 	ldr	r0, [lr, #12]
 8008138:	e583000c 	str	r0, [r3, #12]
 800813c:	e5803008 	str	r3, [r0, #8]
 8008140:	e3813001 	orr	r3, r1, #1
 8008144:	e58c3004 	str	r3, [ip, #4]
 8008148:	e78c1001 	str	r1, [ip, r1]
 800814c:	eaffffbd 	b	8008048 <_free_r+0x90>
 8008150:	e3500000 	cmp	r0, #0
 8008154:	13813001 	orrne	r3, r1, #1
 8008158:	158c3004 	strne	r3, [ip, #4]
 800815c:	158e1000 	strne	r1, [lr]
 8008160:	1affffc8 	bne	8008088 <_free_r+0xd0>
 8008164:	e0833001 	add	r3, r3, r1
 8008168:	e28e1008 	add	r1, lr, #8
 800816c:	e8910006 	ldm	r1, {r1, r2}
 8008170:	e581200c 	str	r2, [r1, #12]
 8008174:	e5821008 	str	r1, [r2, #8]
 8008178:	e3832001 	orr	r2, r3, #1
 800817c:	e58c2004 	str	r2, [ip, #4]
 8008180:	e78c3003 	str	r3, [ip, r3]
 8008184:	eaffffbf 	b	8008088 <_free_r+0xd0>
 8008188:	e3100001 	tst	r0, #1
 800818c:	e0813003 	add	r3, r1, r3
 8008190:	1a000006 	bne	80081b0 <_free_r+0x1f8>
 8008194:	e5141008 	ldr	r1, [r4, #-8]
 8008198:	e04cc001 	sub	ip, ip, r1
 800819c:	e28c0008 	add	r0, ip, #8
 80081a0:	e0833001 	add	r3, r3, r1
 80081a4:	e8900003 	ldm	r0, {r0, r1}
 80081a8:	e580100c 	str	r1, [r0, #12]
 80081ac:	e5810008 	str	r0, [r1, #8]
 80081b0:	e3831001 	orr	r1, r3, #1
 80081b4:	e58c1004 	str	r1, [ip, #4]
 80081b8:	e59f10d4 	ldr	r1, [pc, #212]	; 8008294 <_free_r+0x2dc>
 80081bc:	e582c008 	str	ip, [r2, #8]
 80081c0:	e5912000 	ldr	r2, [r1]
 80081c4:	e1520003 	cmp	r2, r3
 80081c8:	8affffae 	bhi	8008088 <_free_r+0xd0>
 80081cc:	e59f30c4 	ldr	r3, [pc, #196]	; 8008298 <_free_r+0x2e0>
 80081d0:	e1a00005 	mov	r0, r5
 80081d4:	e5931000 	ldr	r1, [r3]
 80081d8:	ebffff36 	bl	8007eb8 <_malloc_trim_r>
 80081dc:	eaffffa9 	b	8008088 <_free_r+0xd0>
 80081e0:	e0811003 	add	r1, r1, r3
 80081e4:	eaffffcf 	b	8008128 <_free_r+0x170>
 80081e8:	e3530014 	cmp	r3, #20
 80081ec:	9a000006 	bls	800820c <_free_r+0x254>
 80081f0:	e3530054 	cmp	r3, #84	; 0x54
 80081f4:	8a000015 	bhi	8008250 <_free_r+0x298>
 80081f8:	e1a03621 	lsr	r3, r1, #12
 80081fc:	e283006f 	add	r0, r3, #111	; 0x6f
 8008200:	e283e06e 	add	lr, r3, #110	; 0x6e
 8008204:	e1a00180 	lsl	r0, r0, #3
 8008208:	eaffffb1 	b	80080d4 <_free_r+0x11c>
 800820c:	e283005c 	add	r0, r3, #92	; 0x5c
 8008210:	e283e05b 	add	lr, r3, #91	; 0x5b
 8008214:	e1a00180 	lsl	r0, r0, #3
 8008218:	eaffffad 	b	80080d4 <_free_r+0x11c>
 800821c:	e3a04001 	mov	r4, #1
 8008220:	e5921004 	ldr	r1, [r2, #4]
 8008224:	e1a0e14e 	asr	lr, lr, #2
 8008228:	e1811e14 	orr	r1, r1, r4, lsl lr
 800822c:	e5821004 	str	r1, [r2, #4]
 8008230:	eaffffb5 	b	800810c <_free_r+0x154>
 8008234:	e3813001 	orr	r3, r1, #1
 8008238:	e582c014 	str	ip, [r2, #20]
 800823c:	e582c010 	str	ip, [r2, #16]
 8008240:	e98c0048 	stmib	ip, {r3, r6}
 8008244:	e58c600c 	str	r6, [ip, #12]
 8008248:	e78c1001 	str	r1, [ip, r1]
 800824c:	eaffff8d 	b	8008088 <_free_r+0xd0>
 8008250:	e3530f55 	cmp	r3, #340	; 0x154
 8008254:	8a000004 	bhi	800826c <_free_r+0x2b4>
 8008258:	e1a037a1 	lsr	r3, r1, #15
 800825c:	e2830078 	add	r0, r3, #120	; 0x78
 8008260:	e283e077 	add	lr, r3, #119	; 0x77
 8008264:	e1a00180 	lsl	r0, r0, #3
 8008268:	eaffff99 	b	80080d4 <_free_r+0x11c>
 800826c:	e59f0028 	ldr	r0, [pc, #40]	; 800829c <_free_r+0x2e4>
 8008270:	e1530000 	cmp	r3, r0
 8008274:	91a03921 	lsrls	r3, r1, #18
 8008278:	9283007d 	addls	r0, r3, #125	; 0x7d
 800827c:	83a00ffe 	movhi	r0, #1016	; 0x3f8
 8008280:	83a0e07e 	movhi	lr, #126	; 0x7e
 8008284:	9283e07c 	addls	lr, r3, #124	; 0x7c
 8008288:	91a00180 	lslls	r0, r0, #3
 800828c:	eaffff90 	b	80080d4 <_free_r+0x11c>
 8008290:	03000ef8 	.word	0x03000ef8
 8008294:	03000ef4 	.word	0x03000ef4
 8008298:	03000b68 	.word	0x03000b68
 800829c:	00000554 	.word	0x00000554

080082a0 <_sbrk_r>:
 80082a0:	e59fc064 	ldr	ip, [pc, #100]	; 800830c <_sbrk_r+0x6c>
 80082a4:	e59c3000 	ldr	r3, [ip]
 80082a8:	e3530000 	cmp	r3, #0
 80082ac:	e52de004 	push	{lr}		; (str lr, [sp, #-4]!)
 80082b0:	0a00000d 	beq	80082ec <_sbrk_r+0x4c>
 80082b4:	e1a0e00d 	mov	lr, sp
 80082b8:	e59f2050 	ldr	r2, [pc, #80]	; 8008310 <_sbrk_r+0x70>
 80082bc:	e5922000 	ldr	r2, [r2]
 80082c0:	e3520000 	cmp	r2, #0
 80082c4:	01a0200e 	moveq	r2, lr
 80082c8:	e0831001 	add	r1, r3, r1
 80082cc:	e1510002 	cmp	r1, r2
 80082d0:	83a0200c 	movhi	r2, #12
 80082d4:	83e03000 	mvnhi	r3, #0
 80082d8:	85802000 	strhi	r2, [r0]
 80082dc:	958c1000 	strls	r1, [ip]
 80082e0:	e1a00003 	mov	r0, r3
 80082e4:	e49de004 	pop	{lr}		; (ldr lr, [sp], #4)
 80082e8:	e12fff1e 	bx	lr
 80082ec:	e59f3020 	ldr	r3, [pc, #32]	; 8008314 <_sbrk_r+0x74>
 80082f0:	e5933000 	ldr	r3, [r3]
 80082f4:	e3530000 	cmp	r3, #0
 80082f8:	059f2018 	ldreq	r2, [pc, #24]	; 8008318 <_sbrk_r+0x78>
 80082fc:	158c3000 	strne	r3, [ip]
 8008300:	01a03002 	moveq	r3, r2
 8008304:	058c2000 	streq	r2, [ip]
 8008308:	eaffffe9 	b	80082b4 <_sbrk_r+0x14>
 800830c:	03000b78 	.word	0x03000b78
 8008310:	03000b80 	.word	0x03000b80
 8008314:	03000b7c 	.word	0x03000b7c
 8008318:	02000000 	.word	0x02000000

0800831c <__getreent>:
 800831c:	e59f3020 	ldr	r3, [pc, #32]	; 8008344 <__getreent+0x28>
 8008320:	e3530000 	cmp	r3, #0
 8008324:	0a000003 	beq	8008338 <__getreent+0x1c>
 8008328:	e92d4010 	push	{r4, lr}
 800832c:	e1a00000 	nop			; (mov r0, r0)
 8008330:	e8bd4010 	pop	{r4, lr}
 8008334:	e12fff1e 	bx	lr
 8008338:	e59f3008 	ldr	r3, [pc, #8]	; 8008348 <__getreent+0x2c>
 800833c:	e5930000 	ldr	r0, [r3]
 8008340:	e12fff1e 	bx	lr
 8008344:	00000000 	.word	0x00000000
 8008348:	03001300 	.word	0x03001300

0800834c <__libc_lock_acquire_recursive>:
 800834c:	e59f3014 	ldr	r3, [pc, #20]	; 8008368 <__libc_lock_acquire_recursive+0x1c>
 8008350:	e3530000 	cmp	r3, #0
 8008354:	012fff1e 	bxeq	lr
 8008358:	e92d4010 	push	{r4, lr}
 800835c:	e1a00000 	nop			; (mov r0, r0)
 8008360:	e8bd4010 	pop	{r4, lr}
 8008364:	e12fff1e 	bx	lr
 8008368:	00000000 	.word	0x00000000

0800836c <__libc_lock_release_recursive>:
 800836c:	e59f3014 	ldr	r3, [pc, #20]	; 8008388 <__libc_lock_release_recursive+0x1c>
 8008370:	e3530000 	cmp	r3, #0
 8008374:	012fff1e 	bxeq	lr
 8008378:	e92d4010 	push	{r4, lr}
 800837c:	e1a00000 	nop			; (mov r0, r0)
 8008380:	e8bd4010 	pop	{r4, lr}
 8008384:	e12fff1e 	bx	lr
 8008388:	00000000 	.word	0x00000000
 800838c:	ffffffff 	.word	0xffffffff

08008390 <__moam_update_from_arm>:
 8008390:	e59fc000 	ldr	ip, [pc]	; 8008398 <__moam_update_from_arm+0x8>
 8008394:	e12fff1c 	bx	ip
 8008398:	08005c2d 	.word	0x08005c2d

0800839c <__memcpy_from_thumb>:
 800839c:	4778      	bx	pc
 800839e:	e7fd      	b.n	800839c <__memcpy_from_thumb>
 80083a0:	eafffdee 	b	8007b60 <memcpy>

080083a4 <__mscr_draw_from_arm>:
 80083a4:	e59fc000 	ldr	ip, [pc]	; 80083ac <__mscr_draw_from_arm+0x8>
 80083a8:	e12fff1c 	bx	ip
 80083ac:	0800627d 	.word	0x0800627d

080083b0 <__memset_from_thumb>:
 80083b0:	4778      	bx	pc
 80083b2:	e7fd      	b.n	80083b0 <__memset_from_thumb>
 80083b4:	eafffe2e 	b	8007c74 <memset>

080083b8 <__msound_changeBuf_from_arm>:
 80083b8:	e59fc000 	ldr	ip, [pc]	; 80083c0 <__msound_changeBuf_from_arm+0x8>
 80083bc:	e12fff1c 	bx	ip
 80083c0:	080067ed 	.word	0x080067ed

080083c4 <__mchar_draw_from_arm>:
 80083c4:	e59fc000 	ldr	ip, [pc]	; 80083cc <__mchar_draw_from_arm+0x8>
 80083c8:	e12fff1c 	bx	ip
 80083cc:	08005625 	.word	0x08005625

080083d0 <__msound_mixStereo_veneer>:
 80083d0:	4778      	bx	pc
 80083d2:	e7fd      	b.n	80083d0 <__msound_mixStereo_veneer>
 80083d4:	e59fc000 	ldr	ip, [pc]	; 80083dc <__msound_mixStereo_veneer+0xc>
 80083d8:	e12fff1c 	bx	ip
 80083dc:	03000001 	.word	0x03000001

080083e0 <____aeabi_idivmod_from_thumb>:
 80083e0:	4778      	bx	pc
 80083e2:	e7fd      	b.n	80083e0 <____aeabi_idivmod_from_thumb>
 80083e4:	eafffbad 	b	80072a0 <__aeabi_idivmod>

080083e8 <____aeabi_idiv_from_thumb>:
 80083e8:	4778      	bx	pc
 80083ea:	e7fd      	b.n	80083e8 <____aeabi_idiv_from_thumb>
 80083ec:	eafffb61 	b	8007178 <__divsi3>

080083f0 <__rand_from_thumb>:
 80083f0:	4778      	bx	pc
 80083f2:	e7fd      	b.n	80083f0 <__rand_from_thumb>
 80083f4:	eafffe69 	b	8007da0 <rand>

080083f8 <__malloc_from_thumb>:
 80083f8:	4778      	bx	pc
 80083fa:	e7fd      	b.n	80083f8 <__malloc_from_thumb>
 80083fc:	eafffbd4 	b	8007354 <malloc>

08008400 <__mprinter_print_from_arm>:
 8008400:	e59fc000 	ldr	ip, [pc]	; 8008408 <__mprinter_print_from_arm+0x8>
 8008404:	e12fff1c 	bx	ip
 8008408:	08005ed5 	.word	0x08005ed5

0800840c <__strncpy_from_thumb>:
 800840c:	4778      	bx	pc
 800840e:	e7fd      	b.n	800840c <__strncpy_from_thumb>
 8008410:	eafffe74 	b	8007de8 <strncpy>
	...

Disassembly of section .fini:

08008428 <_fini>:
 8008428:	e1a0c00d 	mov	ip, sp
 800842c:	e92ddff8 	push	{r3, r4, r5, r6, r7, r8, r9, sl, fp, ip, lr, pc}
 8008430:	e24cb004 	sub	fp, ip, #4
 8008434:	e24bd028 	sub	sp, fp, #40	; 0x28
 8008438:	e89d6ff0 	ldm	sp, {r4, r5, r6, r7, r8, r9, sl, fp, sp, lr}
 800843c:	e12fff1e 	bx	lr

Disassembly of section .iwram:

03000000 <msound_mixStereo>:
 3000000:	b5f0      	push	{r4, r5, r6, r7, lr}
 3000002:	46de      	mov	lr, fp
 3000004:	4657      	mov	r7, sl
 3000006:	464e      	mov	r6, r9
 3000008:	4645      	mov	r5, r8
 300000a:	b5e0      	push	{r5, r6, r7, lr}
 300000c:	4b6f      	ldr	r3, [pc, #444]	; (30001cc <msound_mixStereo+0x1cc>)
 300000e:	469c      	mov	ip, r3
 3000010:	6f9b      	ldr	r3, [r3, #120]	; 0x78
 3000012:	b083      	sub	sp, #12
 3000014:	2b00      	cmp	r3, #0
 3000016:	d000      	beq.n	300001a <msound_mixStereo+0x1a>
 3000018:	e0d1      	b.n	30001be <msound_mixStereo+0x1be>
 300001a:	22b0      	movs	r2, #176	; 0xb0
 300001c:	25b0      	movs	r5, #176	; 0xb0
 300001e:	4692      	mov	sl, r2
 3000020:	3301      	adds	r3, #1
 3000022:	4662      	mov	r2, ip
 3000024:	2400      	movs	r4, #0
 3000026:	6793      	str	r3, [r2, #120]	; 0x78
 3000028:	6fd2      	ldr	r2, [r2, #124]	; 0x7c
 300002a:	4b69      	ldr	r3, [pc, #420]	; (30001d0 <msound_mixStereo+0x1d0>)
 300002c:	4869      	ldr	r0, [pc, #420]	; (30001d4 <msound_mixStereo+0x1d4>)
 300002e:	1952      	adds	r2, r2, r5
 3000030:	609c      	str	r4, [r3, #8]
 3000032:	4666      	mov	r6, ip
 3000034:	6018      	str	r0, [r3, #0]
 3000036:	605a      	str	r2, [r3, #4]
 3000038:	2280      	movs	r2, #128	; 0x80
 300003a:	4967      	ldr	r1, [pc, #412]	; (30001d8 <msound_mixStereo+0x1d8>)
 300003c:	6099      	str	r1, [r3, #8]
 300003e:	58b2      	ldr	r2, [r6, r2]
 3000040:	1952      	adds	r2, r2, r5
 3000042:	609c      	str	r4, [r3, #8]
 3000044:	6018      	str	r0, [r3, #0]
 3000046:	605a      	str	r2, [r3, #4]
 3000048:	6099      	str	r1, [r3, #8]
 300004a:	4b64      	ldr	r3, [pc, #400]	; (30001dc <msound_mixStereo+0x1dc>)
 300004c:	2500      	movs	r5, #0
 300004e:	469b      	mov	fp, r3
 3000050:	4653      	mov	r3, sl
 3000052:	4662      	mov	r2, ip
 3000054:	2700      	movs	r7, #0
 3000056:	002e      	movs	r6, r5
 3000058:	9301      	str	r3, [sp, #4]
 300005a:	e004      	b.n	3000066 <msound_mixStereo+0x66>
 300005c:	3601      	adds	r6, #1
 300005e:	3218      	adds	r2, #24
 3000060:	2e05      	cmp	r6, #5
 3000062:	d100      	bne.n	3000066 <msound_mixStereo+0x66>
 3000064:	e0a2      	b.n	30001ac <msound_mixStereo+0x1ac>
 3000066:	2040      	movs	r0, #64	; 0x40
 3000068:	0073      	lsls	r3, r6, #1
 300006a:	4698      	mov	r8, r3
 300006c:	199b      	adds	r3, r3, r6
 300006e:	00db      	lsls	r3, r3, #3
 3000070:	4463      	add	r3, ip
 3000072:	7919      	ldrb	r1, [r3, #4]
 3000074:	4208      	tst	r0, r1
 3000076:	d1f1      	bne.n	300005c <msound_mixStereo+0x5c>
 3000078:	3040      	adds	r0, #64	; 0x40
 300007a:	2100      	movs	r1, #0
 300007c:	4681      	mov	r9, r0
 300007e:	9c01      	ldr	r4, [sp, #4]
 3000080:	9600      	str	r6, [sp, #0]
 3000082:	e055      	b.n	3000130 <msound_mixStereo+0x130>
 3000084:	0686      	lsls	r6, r0, #26
 3000086:	0f36      	lsrs	r6, r6, #28
 3000088:	1bae      	subs	r6, r5, r6
 300008a:	43f0      	mvns	r0, r6
 300008c:	17c0      	asrs	r0, r0, #31
 300008e:	4006      	ands	r6, r0
 3000090:	0636      	lsls	r6, r6, #24
 3000092:	0e36      	lsrs	r6, r6, #24
 3000094:	4660      	mov	r0, ip
 3000096:	6fc0      	ldr	r0, [r0, #124]	; 0x7c
 3000098:	5d05      	ldrb	r5, [r0, r4]
 300009a:	46aa      	mov	sl, r5
 300009c:	4456      	add	r6, sl
 300009e:	5506      	strb	r6, [r0, r4]
 30000a0:	6890      	ldr	r0, [r2, #8]
 30000a2:	8a16      	ldrh	r6, [r2, #16]
 30000a4:	1980      	adds	r0, r0, r6
 30000a6:	6090      	str	r0, [r2, #8]
 30000a8:	7958      	ldrb	r0, [r3, #5]
 30000aa:	0780      	lsls	r0, r0, #30
 30000ac:	d41e      	bmi.n	30000ec <msound_mixStereo+0xec>
 30000ae:	7918      	ldrb	r0, [r3, #4]
 30000b0:	0680      	lsls	r0, r0, #26
 30000b2:	0f40      	lsrs	r0, r0, #29
 30000b4:	4288      	cmp	r0, r1
 30000b6:	dc19      	bgt.n	30000ec <msound_mixStereo+0xec>
 30000b8:	68d0      	ldr	r0, [r2, #12]
 30000ba:	6956      	ldr	r6, [r2, #20]
 30000bc:	0a00      	lsrs	r0, r0, #8
 30000be:	5636      	ldrsb	r6, [r6, r0]
 30000c0:	2e00      	cmp	r6, #0
 30000c2:	dd51      	ble.n	3000168 <msound_mixStereo+0x168>
 30000c4:	6858      	ldr	r0, [r3, #4]
 30000c6:	0380      	lsls	r0, r0, #14
 30000c8:	0f00      	lsrs	r0, r0, #28
 30000ca:	1a30      	subs	r0, r6, r0
 30000cc:	43c6      	mvns	r6, r0
 30000ce:	17f6      	asrs	r6, r6, #31
 30000d0:	4030      	ands	r0, r6
 30000d2:	0600      	lsls	r0, r0, #24
 30000d4:	0e00      	lsrs	r0, r0, #24
 30000d6:	4665      	mov	r5, ip
 30000d8:	464e      	mov	r6, r9
 30000da:	59ae      	ldr	r6, [r5, r6]
 30000dc:	5d35      	ldrb	r5, [r6, r4]
 30000de:	46aa      	mov	sl, r5
 30000e0:	4450      	add	r0, sl
 30000e2:	5530      	strb	r0, [r6, r4]
 30000e4:	68d0      	ldr	r0, [r2, #12]
 30000e6:	8a16      	ldrh	r6, [r2, #16]
 30000e8:	1980      	adds	r0, r0, r6
 30000ea:	60d0      	str	r0, [r2, #12]
 30000ec:	6890      	ldr	r0, [r2, #8]
 30000ee:	6816      	ldr	r6, [r2, #0]
 30000f0:	0a00      	lsrs	r0, r0, #8
 30000f2:	42b0      	cmp	r0, r6
 30000f4:	d307      	bcc.n	3000106 <msound_mixStereo+0x106>
 30000f6:	6097      	str	r7, [r2, #8]
 30000f8:	7918      	ldrb	r0, [r3, #4]
 30000fa:	09c0      	lsrs	r0, r0, #7
 30000fc:	d103      	bne.n	3000106 <msound_mixStereo+0x106>
 30000fe:	2501      	movs	r5, #1
 3000100:	7958      	ldrb	r0, [r3, #5]
 3000102:	4328      	orrs	r0, r5
 3000104:	7158      	strb	r0, [r3, #5]
 3000106:	68d0      	ldr	r0, [r2, #12]
 3000108:	0a00      	lsrs	r0, r0, #8
 300010a:	4286      	cmp	r6, r0
 300010c:	d807      	bhi.n	300011e <msound_mixStereo+0x11e>
 300010e:	60d7      	str	r7, [r2, #12]
 3000110:	7918      	ldrb	r0, [r3, #4]
 3000112:	09c0      	lsrs	r0, r0, #7
 3000114:	d103      	bne.n	300011e <msound_mixStereo+0x11e>
 3000116:	2502      	movs	r5, #2
 3000118:	7958      	ldrb	r0, [r3, #5]
 300011a:	4328      	orrs	r0, r5
 300011c:	7158      	strb	r0, [r3, #5]
 300011e:	2503      	movs	r5, #3
 3000120:	7958      	ldrb	r0, [r3, #5]
 3000122:	4028      	ands	r0, r5
 3000124:	2803      	cmp	r0, #3
 3000126:	d02d      	beq.n	3000184 <msound_mixStereo+0x184>
 3000128:	3101      	adds	r1, #1
 300012a:	3401      	adds	r4, #1
 300012c:	29b0      	cmp	r1, #176	; 0xb0
 300012e:	d04b      	beq.n	30001c8 <msound_mixStereo+0x1c8>
 3000130:	7958      	ldrb	r0, [r3, #5]
 3000132:	07c6      	lsls	r6, r0, #31
 3000134:	d4b8      	bmi.n	30000a8 <msound_mixStereo+0xa8>
 3000136:	791e      	ldrb	r6, [r3, #4]
 3000138:	0776      	lsls	r6, r6, #29
 300013a:	0f76      	lsrs	r6, r6, #29
 300013c:	428e      	cmp	r6, r1
 300013e:	dcb3      	bgt.n	30000a8 <msound_mixStereo+0xa8>
 3000140:	6896      	ldr	r6, [r2, #8]
 3000142:	6955      	ldr	r5, [r2, #20]
 3000144:	0a36      	lsrs	r6, r6, #8
 3000146:	57ad      	ldrsb	r5, [r5, r6]
 3000148:	46aa      	mov	sl, r5
 300014a:	2d00      	cmp	r5, #0
 300014c:	dc9a      	bgt.n	3000084 <msound_mixStereo+0x84>
 300014e:	2600      	movs	r6, #0
 3000150:	2d00      	cmp	r5, #0
 3000152:	d09f      	beq.n	3000094 <msound_mixStereo+0x94>
 3000154:	0680      	lsls	r0, r0, #26
 3000156:	0f00      	lsrs	r0, r0, #28
 3000158:	4450      	add	r0, sl
 300015a:	1e46      	subs	r6, r0, #1
 300015c:	4306      	orrs	r6, r0
 300015e:	17f6      	asrs	r6, r6, #31
 3000160:	4030      	ands	r0, r6
 3000162:	0600      	lsls	r0, r0, #24
 3000164:	0e06      	lsrs	r6, r0, #24
 3000166:	e795      	b.n	3000094 <msound_mixStereo+0x94>
 3000168:	2000      	movs	r0, #0
 300016a:	2e00      	cmp	r6, #0
 300016c:	d0b3      	beq.n	30000d6 <msound_mixStereo+0xd6>
 300016e:	6858      	ldr	r0, [r3, #4]
 3000170:	0380      	lsls	r0, r0, #14
 3000172:	0f00      	lsrs	r0, r0, #28
 3000174:	1980      	adds	r0, r0, r6
 3000176:	1e46      	subs	r6, r0, #1
 3000178:	4306      	orrs	r6, r0
 300017a:	17f6      	asrs	r6, r6, #31
 300017c:	4030      	ands	r0, r6
 300017e:	0600      	lsls	r0, r0, #24
 3000180:	0e00      	lsrs	r0, r0, #24
 3000182:	e7a8      	b.n	30000d6 <msound_mixStereo+0xd6>
 3000184:	0013      	movs	r3, r2
 3000186:	4659      	mov	r1, fp
 3000188:	9e00      	ldr	r6, [sp, #0]
 300018a:	c931      	ldmia	r1!, {r0, r4, r5}
 300018c:	c331      	stmia	r3!, {r0, r4, r5}
 300018e:	c931      	ldmia	r1!, {r0, r4, r5}
 3000190:	c331      	stmia	r3!, {r0, r4, r5}
 3000192:	4643      	mov	r3, r8
 3000194:	203f      	movs	r0, #63	; 0x3f
 3000196:	199b      	adds	r3, r3, r6
 3000198:	00db      	lsls	r3, r3, #3
 300019a:	4463      	add	r3, ip
 300019c:	7919      	ldrb	r1, [r3, #4]
 300019e:	3601      	adds	r6, #1
 30001a0:	4381      	bics	r1, r0
 30001a2:	7119      	strb	r1, [r3, #4]
 30001a4:	3218      	adds	r2, #24
 30001a6:	2e05      	cmp	r6, #5
 30001a8:	d000      	beq.n	30001ac <msound_mixStereo+0x1ac>
 30001aa:	e75c      	b.n	3000066 <msound_mixStereo+0x66>
 30001ac:	b003      	add	sp, #12
 30001ae:	bcf0      	pop	{r4, r5, r6, r7}
 30001b0:	46bb      	mov	fp, r7
 30001b2:	46b2      	mov	sl, r6
 30001b4:	46a9      	mov	r9, r5
 30001b6:	46a0      	mov	r8, r4
 30001b8:	bcf0      	pop	{r4, r5, r6, r7}
 30001ba:	bc01      	pop	{r0}
 30001bc:	4700      	bx	r0
 30001be:	2200      	movs	r2, #0
 30001c0:	2500      	movs	r5, #0
 30001c2:	2300      	movs	r3, #0
 30001c4:	4692      	mov	sl, r2
 30001c6:	e72c      	b.n	3000022 <msound_mixStereo+0x22>
 30001c8:	9e00      	ldr	r6, [sp, #0]
 30001ca:	e7e2      	b.n	3000192 <msound_mixStereo+0x192>
 30001cc:	03000a14 	.word	0x03000a14
 30001d0:	040000d4 	.word	0x040000d4
 30001d4:	0800a5fc 	.word	0x0800a5fc
 30001d8:	8400002c 	.word	0x8400002c
 30001dc:	0800a5a4 	.word	0x0800a5a4
