Archive member included to satisfy reference by file (symbol)

c:/devkitpro/devkitarm/bin/../lib/gcc/arm-none-eabi/7.1.0\libgcc.a(_divsi3.o)
                              ManagerPrinter.thumb.o (__aeabi_idiv)
c:/devkitpro/devkitarm/bin/../lib/gcc/arm-none-eabi/7.1.0\libgcc.a(_dvmd_tls.o)
                              c:/devkitpro/devkitarm/bin/../lib/gcc/arm-none-eabi/7.1.0\libgcc.a(_divsi3.o) (__aeabi_idiv0)
c:/devkitpro/devkitarm/bin/../lib/gcc/arm-none-eabi/7.1.0/../../../../arm-none-eabi/lib\libg.a(lib_a-init.o)
                              c:/devkitpro/devkitarm/bin/../lib/gcc/arm-none-eabi/7.1.0/../../../../arm-none-eabi/lib/gba_crt0.o (__libc_init_array)
c:/devkitpro/devkitarm/bin/../lib/gcc/arm-none-eabi/7.1.0/../../../../arm-none-eabi/lib\libg.a(lib_a-malloc.o)
                              ActionRpg.thumb.o (malloc)
c:/devkitpro/devkitarm/bin/../lib/gcc/arm-none-eabi/7.1.0/../../../../arm-none-eabi/lib\libg.a(lib_a-mallocr.o)
                              c:/devkitpro/devkitarm/bin/../lib/gcc/arm-none-eabi/7.1.0/../../../../arm-none-eabi/lib\libg.a(lib_a-malloc.o) (_malloc_r)
c:/devkitpro/devkitarm/bin/../lib/gcc/arm-none-eabi/7.1.0/../../../../arm-none-eabi/lib\libg.a(lib_a-memcpy-stub.o)
                              ManagerScrDisplay.thumb.o (memcpy)
c:/devkitpro/devkitarm/bin/../lib/gcc/arm-none-eabi/7.1.0/../../../../arm-none-eabi/lib\libg.a(lib_a-memset.o)
                              ManagerCharactersActionEvents.thumb.o (memset)
c:/devkitpro/devkitarm/bin/../lib/gcc/arm-none-eabi/7.1.0/../../../../arm-none-eabi/lib\libg.a(lib_a-mlock.o)
                              c:/devkitpro/devkitarm/bin/../lib/gcc/arm-none-eabi/7.1.0/../../../../arm-none-eabi/lib\libg.a(lib_a-mallocr.o) (__malloc_lock)
c:/devkitpro/devkitarm/bin/../lib/gcc/arm-none-eabi/7.1.0/../../../../arm-none-eabi/lib\libg.a(lib_a-rand.o)
                              CharacterWerewolfController.thumb.o (rand)
c:/devkitpro/devkitarm/bin/../lib/gcc/arm-none-eabi/7.1.0/../../../../arm-none-eabi/lib\libg.a(lib_a-strncpy.o)
                              ManagerPrinter.thumb.o (strncpy)
c:/devkitpro/devkitarm/bin/../lib/gcc/arm-none-eabi/7.1.0/../../../../arm-none-eabi/lib\libg.a(lib_a-freer.o)
                              c:/devkitpro/devkitarm/bin/../lib/gcc/arm-none-eabi/7.1.0/../../../../arm-none-eabi/lib\libg.a(lib_a-malloc.o) (_free_r)
c:/devkitpro/devkitarm/bin/../lib/gcc/arm-none-eabi/7.1.0/../../../../arm-none-eabi/lib\libsysbase.a(sbrk.o)
                              c:/devkitpro/devkitarm/bin/../lib/gcc/arm-none-eabi/7.1.0/../../../../arm-none-eabi/lib\libg.a(lib_a-mallocr.o) (_sbrk_r)
c:/devkitpro/devkitarm/bin/../lib/gcc/arm-none-eabi/7.1.0/../../../../arm-none-eabi/lib\libsysbase.a(malloc_vars.o)
                              c:/devkitpro/devkitarm/bin/../lib/gcc/arm-none-eabi/7.1.0/../../../../arm-none-eabi/lib\libsysbase.a(sbrk.o) (fake_heap_start)
c:/devkitpro/devkitarm/bin/../lib/gcc/arm-none-eabi/7.1.0/../../../../arm-none-eabi/lib\libsysbase.a(syscall_support.o)
                              c:/devkitpro/devkitarm/bin/../lib/gcc/arm-none-eabi/7.1.0/../../../../arm-none-eabi/lib\libg.a(lib_a-mlock.o) (__libc_lock_acquire_recursive)
c:/devkitpro/devkitarm/bin/../lib/gcc/arm-none-eabi/7.1.0/../../../../arm-none-eabi/lib\libsysbase.a(getreent.o)
                              c:/devkitpro/devkitarm/bin/../lib/gcc/arm-none-eabi/7.1.0/../../../../arm-none-eabi/lib\libg.a(lib_a-malloc.o) (__getreent)
c:/devkitpro/devkitarm/bin/../lib/gcc/arm-none-eabi/7.1.0/../../../../arm-none-eabi/lib\libg.a(lib_a-impure.o)
                              c:/devkitpro/devkitarm/bin/../lib/gcc/arm-none-eabi/7.1.0/../../../../arm-none-eabi/lib\libsysbase.a(getreent.o) (_impure_ptr)

Allocating common symbols
Common symbol       size              file

soundChannels       0x78              ManagerSound.thumb.o
soundBuffer         0xc               ManagerSound.thumb.o
mprinter_textEntry  0x800             ManagerPrinter.thumb.o
listCopyImg         0x3c              ManagerImageCopy.thumb.o
paletteIdCollection
                    0x3c              ManagerVram.thumb.o
idCollection        0x3c              ManagerVram.thumb.o

Discarded input sections

 .text          0x00000000        0x0 c:/devkitpro/devkitarm/bin/../lib/gcc/arm-none-eabi/7.1.0/../../../../arm-none-eabi/lib/gba_crt0.o
 .data          0x00000000        0x0 c:/devkitpro/devkitarm/bin/../lib/gcc/arm-none-eabi/7.1.0/../../../../arm-none-eabi/lib/gba_crt0.o
 .bss           0x00000000        0x0 c:/devkitpro/devkitarm/bin/../lib/gcc/arm-none-eabi/7.1.0/../../../../arm-none-eabi/lib/gba_crt0.o
 .text          0x00000000        0x0 c:/devkitpro/devkitarm/bin/../lib/gcc/arm-none-eabi/7.1.0/crti.o
 .data          0x00000000        0x0 c:/devkitpro/devkitarm/bin/../lib/gcc/arm-none-eabi/7.1.0/crti.o
 .bss           0x00000000        0x0 c:/devkitpro/devkitarm/bin/../lib/gcc/arm-none-eabi/7.1.0/crti.o
 .text          0x00000000        0x0 c:/devkitpro/devkitarm/bin/../lib/gcc/arm-none-eabi/7.1.0/crtbegin.o
 .data          0x00000000        0x0 c:/devkitpro/devkitarm/bin/../lib/gcc/arm-none-eabi/7.1.0/crtbegin.o
 .bss           0x00000000        0x0 c:/devkitpro/devkitarm/bin/../lib/gcc/arm-none-eabi/7.1.0/crtbegin.o
 .data.__dso_handle
                0x00000000        0x4 c:/devkitpro/devkitarm/bin/../lib/gcc/arm-none-eabi/7.1.0/crtbegin.o
 .data          0x00000000        0x0 ActionRpg.thumb.o
 .bss           0x00000000        0x0 ActionRpg.thumb.o
 COMMON         0x00000000        0x0 ActionRpg.thumb.o
 .data          0x00000000        0x0 CharacterAlisa.thumb.o
 .bss           0x00000000        0x0 CharacterAlisa.thumb.o
 .data          0x00000000       0x10 CharacterAlisaController.thumb.o
 .bss           0x00000000        0x0 CharacterAlisaController.thumb.o
 .text          0x00000000        0x0 CharacterBoy.thumb.o
 .data          0x00000000        0x0 CharacterBoy.thumb.o
 .bss           0x00000000        0x0 CharacterBoy.thumb.o
 .text          0x00000000        0x0 CharacterBoyController.thumb.o
 .data          0x00000000        0x0 CharacterBoyController.thumb.o
 .bss           0x00000000        0x0 CharacterBoyController.thumb.o
 .data          0x00000000        0x0 CharacterCommon.thumb.o
 .bss           0x00000000        0x0 CharacterCommon.thumb.o
 .bss           0x00000000        0x0 CharacterCrow.thumb.o
 .rodata        0x00000000        0x6 CharacterCrow.thumb.o
 .data          0x00000000        0x0 CharacterCrowController.thumb.o
 .bss           0x00000000        0x0 CharacterCrowController.thumb.o
 .data          0x00000000        0x0 CharacterGhostMan.thumb.o
 .bss           0x00000000        0x0 CharacterGhostMan.thumb.o
 .data          0x00000000        0x0 CharacterGhostlyHand.thumb.o
 .bss           0x00000000        0x0 CharacterGhostlyHand.thumb.o
 .data          0x00000000        0x0 CharacterGhostlyHandController.thumb.o
 .bss           0x00000000        0x0 CharacterGhostlyHandController.thumb.o
 .data          0x00000000        0x0 CharacterGhostmanController.thumb.o
 .bss           0x00000000        0x0 CharacterGhostmanController.thumb.o
 .text          0x00000000      0x254 CharacterNameless.thumb.o
 .data          0x00000000        0x0 CharacterNameless.thumb.o
 .bss           0x00000000        0x0 CharacterNameless.thumb.o
 .rodata        0x00000000        0xe CharacterNameless.thumb.o
 COMMON         0x00000000        0x0 CharacterNameless.thumb.o
 .text          0x00000000       0x38 CharacterNamelessController.thumb.o
 .data          0x00000000        0x0 CharacterNamelessController.thumb.o
 .bss           0x00000000        0x0 CharacterNamelessController.thumb.o
 .text          0x00000000        0x0 CharacterType.thumb.o
 .data          0x00000000        0x0 CharacterType.thumb.o
 .bss           0x00000000        0x0 CharacterType.thumb.o
 .bss           0x00000000        0x0 CharacterWerewolf.thumb.o
 .data          0x00000000        0x0 CharacterWerewolfController.thumb.o
 .bss           0x00000000        0x0 CharacterWerewolfController.thumb.o
 .bss           0x00000000        0x0 CharacterZombie.thumb.o
 .data          0x00000000        0x0 CharacterZombieController.thumb.o
 .bss           0x00000000        0x0 CharacterZombieController.thumb.o
 .data          0x00000000        0x0 GBATimer.thumb.o
 .bss           0x00000000        0x0 GBATimer.thumb.o
 .data          0x00000000        0x0 ManagerBG.thumb.o
 .bss           0x00000000        0x0 ManagerBG.thumb.o
 .data          0x00000000        0x0 ManagerCharacters.thumb.o
 .data          0x00000000        0x0 ManagerCharactersActionEvents.thumb.o
 .bss           0x00000000        0x0 ManagerCharactersActionEvents.thumb.o
 .rodata        0x00000000       0x34 ManagerCharactersActionEvents.thumb.o
 .text          0x00000000        0x0 ManagerCollision.thumb.o
 .data          0x00000000        0x0 ManagerCollision.thumb.o
 .bss           0x00000000        0x0 ManagerCollision.thumb.o
 .text          0x00000000        0x8 ManagerEvents.thumb.o
 .data          0x00000000        0x0 ManagerEvents.thumb.o
 .bss           0x00000000        0x0 ManagerEvents.thumb.o
 .data          0x00000000        0x0 ManagerGame.thumb.o
 .bss           0x00000000        0x0 ManagerGame.thumb.o
 .text          0x00000000       0x2c ManagerImageCopy.thumb.o
 .data          0x00000000        0x0 ManagerImageCopy.thumb.o
 .bss           0x00000000        0x4 ManagerImageCopy.thumb.o
 COMMON         0x00000000       0x3c ManagerImageCopy.thumb.o
 .data          0x00000000        0x0 ManagerOAM.thumb.o
 .data          0x00000000        0x0 ManagerPrinter.thumb.o
 .data          0x00000000        0x0 ManagerScrDisplay.thumb.o
 .data          0x00000000        0x0 ManagerSound.thumb.o
 .bss           0x00000000        0x0 ManagerSound.thumb.o
 .data          0x00000000        0x0 ManagerVram.thumb.o
 .text          0x00000000        0x0 ManagerWindow.thumb.o
 .data          0x00000000        0x0 ManagerWindow.thumb.o
 .bss           0x00000000        0x0 ManagerWindow.thumb.o
 .data          0x00000000        0x1 MapCommon.thumb.o
 .text          0x00000000        0x0 MapForest.o
 .data          0x00000000       0x28 MapForest.o
 .bss           0x00000000        0x0 MapForest.o
 .rodata        0x00000000     0x29d8 MapForest.o
 .text          0x00000000        0x0 MapGraveyard.thumb.o
 .data          0x00000000       0x14 MapGraveyard.thumb.o
 .bss           0x00000000        0x0 MapGraveyard.thumb.o
 .rodata        0x00000000     0x288c MapGraveyard.thumb.o
 .text          0x00000000        0x0 MapSnowField.o
 .data          0x00000000       0x40 MapSnowField.o
 .bss           0x00000000        0x0 MapSnowField.o
 .rodata        0x00000000     0x50b4 MapSnowField.o
 .text          0x00000000        0x8 MapTest.thumb.o
 .data          0x00000000       0x18 MapTest.thumb.o
 .bss           0x00000000        0x0 MapTest.thumb.o
 .rodata        0x00000000       0xa8 MapTest.thumb.o
 .text          0x00000000        0x0 SpritePlayer.thumb.o
 .data          0x00000000        0x0 SpritePlayer.thumb.o
 .bss           0x00000000        0x0 SpritePlayer.thumb.o
 .rodata        0x00000000     0x6ef4 SpritePlayer.thumb.o
 .text          0x00000000        0x0 SpriteSetAlisa.thumb.o
 .bss           0x00000000        0x0 SpriteSetAlisa.thumb.o
 .text          0x00000000        0x0 SpriteSetBoy.thumb.o
 .bss           0x00000000        0x0 SpriteSetBoy.thumb.o
 COMMON         0x00000000        0x0 SpriteSetBoy.thumb.o
 .text          0x00000000        0x0 SpriteSetGhostMan.thumb.o
 .data          0x00000000        0x0 SpriteSetGhostMan.thumb.o
 .bss           0x00000000        0x0 SpriteSetGhostMan.thumb.o
 .text          0x00000000        0x0 SpriteSetWerewolf.thumb.o
 .bss           0x00000000        0x0 SpriteSetWerewolf.thumb.o
 .text          0x00000000        0x0 SpriteSetZombie.thumb.o
 .bss           0x00000000        0x0 SpriteSetZombie.thumb.o
 .data          0x00000000        0x0 UpdateGameStatus.arm.o
 .bss           0x00000000        0x0 UpdateGameStatus.arm.o
 .text          0x00000000        0x0 UtilCommonValues.thumb.o
 .data          0x00000000        0x0 UtilCommonValues.thumb.o
 .bss           0x00000000        0x8 UtilCommonValues.thumb.o
 .data          0x00000000        0x0 UtilLzssDecompress.thumb.o
 .bss           0x00000000        0x0 UtilLzssDecompress.thumb.o
 .text          0x00000000        0x0 genericBG.thumb.o
 .data          0x00000000        0x0 genericBG.thumb.o
 .bss           0x00000000        0x0 genericBG.thumb.o
 .rodata        0x00000000     0x2d48 genericBG.thumb.o
 .text          0x00000000        0x0 genericBG2.thumb.o
 .data          0x00000000        0x0 genericBG2.thumb.o
 .bss           0x00000000        0x0 genericBG2.thumb.o
 .rodata        0x00000000     0x6448 genericBG2.thumb.o
 .text          0x00000000        0x0 map_graveyard.o
 .bss           0x00000000        0x0 map_graveyard.o
 .text          0x00000000        0x0 map_night_street.o
 .data          0x00000000       0x30 map_night_street.o
 .bss           0x00000000        0x0 map_night_street.o
 .rodata        0x00000000     0x2874 map_night_street.o
 .text          0x00000000        0x0 map_nobinobi_cabin.o
 .data          0x00000000       0x38 map_nobinobi_cabin.o
 .bss           0x00000000        0x0 map_nobinobi_cabin.o
 .rodata        0x00000000     0x28b0 map_nobinobi_cabin.o
 .text          0x00000000        0x0 map_shrine.o
 .bss           0x00000000        0x0 map_shrine.o
 .text          0x00000000        0x0 sampleMusic.thumb.o
 .data          0x00000000        0x0 sampleMusic.thumb.o
 .bss           0x00000000        0x0 sampleMusic.thumb.o
 .rodata        0x00000000   0x1cd100 sampleMusic.thumb.o
 .text          0x00000000        0x0 sound_crow.o
 .data          0x00000000        0x0 sound_crow.o
 .bss           0x00000000        0x0 sound_crow.o
 .text          0x00000000        0x0 sound_ghost_moan.o
 .data          0x00000000        0x0 sound_ghost_moan.o
 .bss           0x00000000        0x0 sound_ghost_moan.o
 .rodata        0x00000000     0x2232 sound_ghost_moan.o
 .text          0x00000000        0x0 sound_ghost_moan2.o
 .data          0x00000000        0x0 sound_ghost_moan2.o
 .bss           0x00000000        0x0 sound_ghost_moan2.o
 .text          0x00000000        0x0 sound_minamohana.o
 .data          0x00000000        0x0 sound_minamohana.o
 .bss           0x00000000        0x0 sound_minamohana.o
 .rodata        0x00000000   0x1f9e6c sound_minamohana.o
 .text          0x00000000        0x0 sound_slash.o
 .data          0x00000000        0x0 sound_slash.o
 .bss           0x00000000        0x0 sound_slash.o
 .text          0x00000000        0x0 sound_test.o
 .data          0x00000000        0x0 sound_test.o
 .bss           0x00000000        0x0 sound_test.o
 .rodata        0x00000000     0x1ac2 sound_test.o
 .text          0x00000000        0x0 sound_window_hit.o
 .data          0x00000000        0x0 sound_window_hit.o
 .bss           0x00000000        0x0 sound_window_hit.o
 .text          0x00000000        0x0 sprite_alisa_dashbackwardwithsword_down.thumb.o
 .data          0x00000000        0x0 sprite_alisa_dashbackwardwithsword_down.thumb.o
 .bss           0x00000000        0x0 sprite_alisa_dashbackwardwithsword_down.thumb.o
 .text          0x00000000        0x0 sprite_alisa_dashbackwardwithsword_side.thumb.o
 .data          0x00000000        0x0 sprite_alisa_dashbackwardwithsword_side.thumb.o
 .bss           0x00000000        0x0 sprite_alisa_dashbackwardwithsword_side.thumb.o
 .text          0x00000000        0x0 sprite_alisa_dashbackwardwithsword_up.thumb.o
 .data          0x00000000        0x0 sprite_alisa_dashbackwardwithsword_up.thumb.o
 .bss           0x00000000        0x0 sprite_alisa_dashbackwardwithsword_up.thumb.o
 .text          0x00000000        0x0 sprite_alisa_dashforwardwithsword_down.thumb.o
 .data          0x00000000        0x0 sprite_alisa_dashforwardwithsword_down.thumb.o
 .bss           0x00000000        0x0 sprite_alisa_dashforwardwithsword_down.thumb.o
 .rodata        0x00000000      0x498 sprite_alisa_dashforwardwithsword_down.thumb.o
 .text          0x00000000        0x0 sprite_alisa_dashforwardwithsword_side.thumb.o
 .data          0x00000000        0x0 sprite_alisa_dashforwardwithsword_side.thumb.o
 .bss           0x00000000        0x0 sprite_alisa_dashforwardwithsword_side.thumb.o
 .rodata        0x00000000      0x548 sprite_alisa_dashforwardwithsword_side.thumb.o
 .text          0x00000000        0x0 sprite_alisa_dashforwardwithsword_up.thumb.o
 .data          0x00000000        0x0 sprite_alisa_dashforwardwithsword_up.thumb.o
 .bss           0x00000000        0x0 sprite_alisa_dashforwardwithsword_up.thumb.o
 .rodata        0x00000000      0x4a8 sprite_alisa_dashforwardwithsword_up.thumb.o
 .text          0x00000000        0x0 sprite_alisa_run_down.thumb.o
 .data          0x00000000        0x0 sprite_alisa_run_down.thumb.o
 .bss           0x00000000        0x0 sprite_alisa_run_down.thumb.o
 .rodata        0x00000000      0x494 sprite_alisa_run_down.thumb.o
 .text          0x00000000        0x0 sprite_alisa_run_up.thumb.o
 .data          0x00000000        0x0 sprite_alisa_run_up.thumb.o
 .bss           0x00000000        0x0 sprite_alisa_run_up.thumb.o
 .rodata        0x00000000      0x4a8 sprite_alisa_run_up.thumb.o
 .text          0x00000000        0x0 sprite_alisa_runwithsword_down.thumb.o
 .data          0x00000000        0x0 sprite_alisa_runwithsword_down.thumb.o
 .bss           0x00000000        0x0 sprite_alisa_runwithsword_down.thumb.o
 .text          0x00000000        0x0 sprite_alisa_runwithsword_side.thumb.o
 .data          0x00000000        0x0 sprite_alisa_runwithsword_side.thumb.o
 .bss           0x00000000        0x0 sprite_alisa_runwithsword_side.thumb.o
 .text          0x00000000        0x0 sprite_alisa_runwithsword_up.thumb.o
 .data          0x00000000        0x0 sprite_alisa_runwithsword_up.thumb.o
 .bss           0x00000000        0x0 sprite_alisa_runwithsword_up.thumb.o
 .text          0x00000000        0x0 sprite_alisa_standwithsword_down.thumb.o
 .data          0x00000000        0x0 sprite_alisa_standwithsword_down.thumb.o
 .bss           0x00000000        0x0 sprite_alisa_standwithsword_down.thumb.o
 .text          0x00000000        0x0 sprite_alisa_standwithsword_side.thumb.o
 .data          0x00000000        0x0 sprite_alisa_standwithsword_side.thumb.o
 .bss           0x00000000        0x0 sprite_alisa_standwithsword_side.thumb.o
 .text          0x00000000        0x0 sprite_alisa_standwithsword_up.thumb.o
 .data          0x00000000        0x0 sprite_alisa_standwithsword_up.thumb.o
 .bss           0x00000000        0x0 sprite_alisa_standwithsword_up.thumb.o
 .text          0x00000000        0x0 sprite_alisa_stunnedwithsword_down.thumb.o
 .data          0x00000000        0x0 sprite_alisa_stunnedwithsword_down.thumb.o
 .bss           0x00000000        0x0 sprite_alisa_stunnedwithsword_down.thumb.o
 .text          0x00000000        0x0 sprite_alisa_stunnedwithsword_side.thumb.o
 .data          0x00000000        0x0 sprite_alisa_stunnedwithsword_side.thumb.o
 .bss           0x00000000        0x0 sprite_alisa_stunnedwithsword_side.thumb.o
 .text          0x00000000        0x0 sprite_alisa_stunnedwithsword_up.thumb.o
 .data          0x00000000        0x0 sprite_alisa_stunnedwithsword_up.thumb.o
 .bss           0x00000000        0x0 sprite_alisa_stunnedwithsword_up.thumb.o
 .text          0x00000000        0x0 sprite_alisa_swordslash_down.thumb.o
 .data          0x00000000        0x0 sprite_alisa_swordslash_down.thumb.o
 .bss           0x00000000        0x0 sprite_alisa_swordslash_down.thumb.o
 .text          0x00000000        0x0 sprite_alisa_swordslash_side.thumb.o
 .data          0x00000000        0x0 sprite_alisa_swordslash_side.thumb.o
 .bss           0x00000000        0x0 sprite_alisa_swordslash_side.thumb.o
 .text          0x00000000        0x0 sprite_alisa_swordslash_up.thumb.o
 .data          0x00000000        0x0 sprite_alisa_swordslash_up.thumb.o
 .bss           0x00000000        0x0 sprite_alisa_swordslash_up.thumb.o
 .text          0x00000000        0x0 sprite_character.thumb.o
 .data          0x00000000        0x0 sprite_character.thumb.o
 .bss           0x00000000        0x0 sprite_character.thumb.o
 .text          0x00000000        0x0 sprite_crow.thumb.o
 .data          0x00000000        0x0 sprite_crow.thumb.o
 .bss           0x00000000        0x0 sprite_crow.thumb.o
 .text          0x00000000        0x0 sprite_ghostly_hand.thumb.o
 .data          0x00000000        0x0 sprite_ghostly_hand.thumb.o
 .bss           0x00000000        0x0 sprite_ghostly_hand.thumb.o
 .text          0x00000000        0x0 sprite_ghostlyman.thumb.o
 .data          0x00000000        0x0 sprite_ghostlyman.thumb.o
 .bss           0x00000000        0x0 sprite_ghostlyman.thumb.o
 .text          0x00000000        0x0 sprite_ghostlyman_lower_float.thumb.o
 .data          0x00000000        0x0 sprite_ghostlyman_lower_float.thumb.o
 .bss           0x00000000        0x0 sprite_ghostlyman_lower_float.thumb.o
 .text          0x00000000        0x0 sprite_ghostlyman_upper_float.thumb.o
 .data          0x00000000        0x0 sprite_ghostlyman_upper_float.thumb.o
 .bss           0x00000000        0x0 sprite_ghostlyman_upper_float.thumb.o
 .text          0x00000000        0x0 sprite_maincharacterlower_stand.thumb.o
 .data          0x00000000        0x0 sprite_maincharacterlower_stand.thumb.o
 .bss           0x00000000        0x0 sprite_maincharacterlower_stand.thumb.o
 .rodata        0x00000000       0xcc sprite_maincharacterlower_stand.thumb.o
 .text          0x00000000        0x0 sprite_maincharacterlower_walk.thumb.o
 .data          0x00000000        0x0 sprite_maincharacterlower_walk.thumb.o
 .bss           0x00000000        0x0 sprite_maincharacterlower_walk.thumb.o
 .rodata        0x00000000      0x500 sprite_maincharacterlower_walk.thumb.o
 .text          0x00000000        0x0 sprite_maincharacterupper_stand.thumb.o
 .data          0x00000000        0x0 sprite_maincharacterupper_stand.thumb.o
 .bss           0x00000000        0x0 sprite_maincharacterupper_stand.thumb.o
 .rodata        0x00000000       0xac sprite_maincharacterupper_stand.thumb.o
 .text          0x00000000        0x0 sprite_maincharacterupper_walk.thumb.o
 .data          0x00000000        0x0 sprite_maincharacterupper_walk.thumb.o
 .bss           0x00000000        0x0 sprite_maincharacterupper_walk.thumb.o
 .rodata        0x00000000      0x320 sprite_maincharacterupper_walk.thumb.o
 .text          0x00000000        0x0 sprite_sword_side.thumb.o
 .data          0x00000000        0x0 sprite_sword_side.thumb.o
 .bss           0x00000000        0x0 sprite_sword_side.thumb.o
 .text          0x00000000        0x0 sprite_sword_vertical.thumb.o
 .data          0x00000000        0x0 sprite_sword_vertical.thumb.o
 .bss           0x00000000        0x0 sprite_sword_vertical.thumb.o
 .text          0x00000000        0x0 sprite_werewolfarm_down.thumb.o
 .data          0x00000000        0x0 sprite_werewolfarm_down.thumb.o
 .bss           0x00000000        0x0 sprite_werewolfarm_down.thumb.o
 .text          0x00000000        0x0 sprite_werewolfarm_side.thumb.o
 .data          0x00000000        0x0 sprite_werewolfarm_side.thumb.o
 .bss           0x00000000        0x0 sprite_werewolfarm_side.thumb.o
 .text          0x00000000        0x0 sprite_werewolfarm_up.thumb.o
 .data          0x00000000        0x0 sprite_werewolfarm_up.thumb.o
 .bss           0x00000000        0x0 sprite_werewolfarm_up.thumb.o
 .text          0x00000000        0x0 sprite_werewolffeet_run_down.thumb.o
 .data          0x00000000        0x0 sprite_werewolffeet_run_down.thumb.o
 .bss           0x00000000        0x0 sprite_werewolffeet_run_down.thumb.o
 .text          0x00000000        0x0 sprite_werewolffeet_run_side.thumb.o
 .data          0x00000000        0x0 sprite_werewolffeet_run_side.thumb.o
 .bss           0x00000000        0x0 sprite_werewolffeet_run_side.thumb.o
 .text          0x00000000        0x0 sprite_werewolffeet_run_up.thumb.o
 .data          0x00000000        0x0 sprite_werewolffeet_run_up.thumb.o
 .bss           0x00000000        0x0 sprite_werewolffeet_run_up.thumb.o
 .text          0x00000000        0x0 sprite_werewolftail_side.thumb.o
 .data          0x00000000        0x0 sprite_werewolftail_side.thumb.o
 .bss           0x00000000        0x0 sprite_werewolftail_side.thumb.o
 .text          0x00000000        0x0 sprite_werewolfupperbody_run_down.thumb.o
 .data          0x00000000        0x0 sprite_werewolfupperbody_run_down.thumb.o
 .bss           0x00000000        0x0 sprite_werewolfupperbody_run_down.thumb.o
 .text          0x00000000        0x0 sprite_werewolfupperbody_run_side.thumb.o
 .data          0x00000000        0x0 sprite_werewolfupperbody_run_side.thumb.o
 .bss           0x00000000        0x0 sprite_werewolfupperbody_run_side.thumb.o
 .text          0x00000000        0x0 sprite_werewolfupperbody_run_up.thumb.o
 .data          0x00000000        0x0 sprite_werewolfupperbody_run_up.thumb.o
 .bss           0x00000000        0x0 sprite_werewolfupperbody_run_up.thumb.o
 .text          0x00000000        0x0 sprite_zombie_attack_down.thumb.o
 .data          0x00000000        0x0 sprite_zombie_attack_down.thumb.o
 .bss           0x00000000        0x0 sprite_zombie_attack_down.thumb.o
 .text          0x00000000        0x0 sprite_zombie_attack_side.thumb.o
 .data          0x00000000        0x0 sprite_zombie_attack_side.thumb.o
 .bss           0x00000000        0x0 sprite_zombie_attack_side.thumb.o
 .text          0x00000000        0x0 sprite_zombie_attack_up.thumb.o
 .data          0x00000000        0x0 sprite_zombie_attack_up.thumb.o
 .bss           0x00000000        0x0 sprite_zombie_attack_up.thumb.o
 .text          0x00000000        0x0 sprite_zombie_stunned_down.thumb.o
 .data          0x00000000        0x0 sprite_zombie_stunned_down.thumb.o
 .bss           0x00000000        0x0 sprite_zombie_stunned_down.thumb.o
 .text          0x00000000        0x0 sprite_zombie_stunned_side.thumb.o
 .data          0x00000000        0x0 sprite_zombie_stunned_side.thumb.o
 .bss           0x00000000        0x0 sprite_zombie_stunned_side.thumb.o
 .text          0x00000000        0x0 sprite_zombie_stunned_up.thumb.o
 .data          0x00000000        0x0 sprite_zombie_stunned_up.thumb.o
 .bss           0x00000000        0x0 sprite_zombie_stunned_up.thumb.o
 .text          0x00000000        0x0 sprite_zombie_walk_down.thumb.o
 .data          0x00000000        0x0 sprite_zombie_walk_down.thumb.o
 .bss           0x00000000        0x0 sprite_zombie_walk_down.thumb.o
 .text          0x00000000        0x0 sprite_zombie_walk_side.thumb.o
 .data          0x00000000        0x0 sprite_zombie_walk_side.thumb.o
 .bss           0x00000000        0x0 sprite_zombie_walk_side.thumb.o
 .text          0x00000000        0x0 sprite_zombie_walk_up.thumb.o
 .data          0x00000000        0x0 sprite_zombie_walk_up.thumb.o
 .bss           0x00000000        0x0 sprite_zombie_walk_up.thumb.o
 .text          0x00000000        0x0 spriteset_alisa_dashbackwardwithsword_down.thumb.o
 .data          0x00000000        0x0 spriteset_alisa_dashbackwardwithsword_down.thumb.o
 .bss           0x00000000        0x0 spriteset_alisa_dashbackwardwithsword_down.thumb.o
 .text          0x00000000        0x0 spriteset_alisa_dashbackwardwithsword_left.thumb.o
 .data          0x00000000        0x0 spriteset_alisa_dashbackwardwithsword_left.thumb.o
 .bss           0x00000000        0x0 spriteset_alisa_dashbackwardwithsword_left.thumb.o
 .text          0x00000000        0x0 spriteset_alisa_dashbackwardwithsword_right.thumb.o
 .data          0x00000000        0x0 spriteset_alisa_dashbackwardwithsword_right.thumb.o
 .bss           0x00000000        0x0 spriteset_alisa_dashbackwardwithsword_right.thumb.o
 .text          0x00000000        0x0 spriteset_alisa_dashbackwardwithsword_up.thumb.o
 .data          0x00000000        0x0 spriteset_alisa_dashbackwardwithsword_up.thumb.o
 .bss           0x00000000        0x0 spriteset_alisa_dashbackwardwithsword_up.thumb.o
 .text          0x00000000        0x0 spriteset_alisa_dashforwardwithsword_down.thumb.o
 .data          0x00000000        0x0 spriteset_alisa_dashforwardwithsword_down.thumb.o
 .bss           0x00000000        0x0 spriteset_alisa_dashforwardwithsword_down.thumb.o
 .text          0x00000000        0x0 spriteset_alisa_dashforwardwithsword_left.thumb.o
 .data          0x00000000        0x0 spriteset_alisa_dashforwardwithsword_left.thumb.o
 .bss           0x00000000        0x0 spriteset_alisa_dashforwardwithsword_left.thumb.o
 .text          0x00000000        0x0 spriteset_alisa_dashforwardwithsword_right.thumb.o
 .data          0x00000000        0x0 spriteset_alisa_dashforwardwithsword_right.thumb.o
 .bss           0x00000000        0x0 spriteset_alisa_dashforwardwithsword_right.thumb.o
 .text          0x00000000        0x0 spriteset_alisa_dashforwardwithsword_up.thumb.o
 .data          0x00000000        0x0 spriteset_alisa_dashforwardwithsword_up.thumb.o
 .bss           0x00000000        0x0 spriteset_alisa_dashforwardwithsword_up.thumb.o
 .text          0x00000000        0x0 spriteset_alisa_preparedash_down.thumb.o
 .data          0x00000000        0x0 spriteset_alisa_preparedash_down.thumb.o
 .bss           0x00000000        0x0 spriteset_alisa_preparedash_down.thumb.o
 .text          0x00000000        0x0 spriteset_alisa_preparedash_left.thumb.o
 .data          0x00000000        0x0 spriteset_alisa_preparedash_left.thumb.o
 .bss           0x00000000        0x0 spriteset_alisa_preparedash_left.thumb.o
 .text          0x00000000        0x0 spriteset_alisa_preparedash_right.thumb.o
 .data          0x00000000        0x0 spriteset_alisa_preparedash_right.thumb.o
 .bss           0x00000000        0x0 spriteset_alisa_preparedash_right.thumb.o
 .text          0x00000000        0x0 spriteset_alisa_preparedash_up.thumb.o
 .data          0x00000000        0x0 spriteset_alisa_preparedash_up.thumb.o
 .bss           0x00000000        0x0 spriteset_alisa_preparedash_up.thumb.o
 .text          0x00000000        0x0 spriteset_alisa_runwithsword_down.thumb.o
 .data          0x00000000        0x0 spriteset_alisa_runwithsword_down.thumb.o
 .bss           0x00000000        0x0 spriteset_alisa_runwithsword_down.thumb.o
 .text          0x00000000        0x0 spriteset_alisa_runwithsword_left.thumb.o
 .data          0x00000000        0x0 spriteset_alisa_runwithsword_left.thumb.o
 .bss           0x00000000        0x0 spriteset_alisa_runwithsword_left.thumb.o
 .text          0x00000000        0x0 spriteset_alisa_runwithsword_right.thumb.o
 .data          0x00000000        0x0 spriteset_alisa_runwithsword_right.thumb.o
 .bss           0x00000000        0x0 spriteset_alisa_runwithsword_right.thumb.o
 .text          0x00000000        0x0 spriteset_alisa_runwithsword_up.thumb.o
 .data          0x00000000        0x0 spriteset_alisa_runwithsword_up.thumb.o
 .bss           0x00000000        0x0 spriteset_alisa_runwithsword_up.thumb.o
 .text          0x00000000        0x0 spriteset_alisa_standwithsword_down.thumb.o
 .data          0x00000000        0x0 spriteset_alisa_standwithsword_down.thumb.o
 .bss           0x00000000        0x0 spriteset_alisa_standwithsword_down.thumb.o
 .text          0x00000000        0x0 spriteset_alisa_standwithsword_left.thumb.o
 .data          0x00000000        0x0 spriteset_alisa_standwithsword_left.thumb.o
 .bss           0x00000000        0x0 spriteset_alisa_standwithsword_left.thumb.o
 .text          0x00000000        0x0 spriteset_alisa_standwithsword_right.thumb.o
 .data          0x00000000        0x0 spriteset_alisa_standwithsword_right.thumb.o
 .bss           0x00000000        0x0 spriteset_alisa_standwithsword_right.thumb.o
 .text          0x00000000        0x0 spriteset_alisa_standwithsword_up.thumb.o
 .data          0x00000000        0x0 spriteset_alisa_standwithsword_up.thumb.o
 .bss           0x00000000        0x0 spriteset_alisa_standwithsword_up.thumb.o
 .text          0x00000000        0x0 spriteset_alisa_stunnedwithsword_down.thumb.o
 .data          0x00000000        0x0 spriteset_alisa_stunnedwithsword_down.thumb.o
 .bss           0x00000000        0x0 spriteset_alisa_stunnedwithsword_down.thumb.o
 .text          0x00000000        0x0 spriteset_alisa_stunnedwithsword_left.thumb.o
 .data          0x00000000        0x0 spriteset_alisa_stunnedwithsword_left.thumb.o
 .bss           0x00000000        0x0 spriteset_alisa_stunnedwithsword_left.thumb.o
 .text          0x00000000        0x0 spriteset_alisa_stunnedwithsword_right.thumb.o
 .data          0x00000000        0x0 spriteset_alisa_stunnedwithsword_right.thumb.o
 .bss           0x00000000        0x0 spriteset_alisa_stunnedwithsword_right.thumb.o
 .text          0x00000000        0x0 spriteset_alisa_stunnedwithsword_up.thumb.o
 .data          0x00000000        0x0 spriteset_alisa_stunnedwithsword_up.thumb.o
 .bss           0x00000000        0x0 spriteset_alisa_stunnedwithsword_up.thumb.o
 .text          0x00000000        0x0 spriteset_alisa_swordslash_down.thumb.o
 .data          0x00000000        0x0 spriteset_alisa_swordslash_down.thumb.o
 .bss           0x00000000        0x0 spriteset_alisa_swordslash_down.thumb.o
 .text          0x00000000        0x0 spriteset_alisa_swordslash_left.thumb.o
 .data          0x00000000        0x0 spriteset_alisa_swordslash_left.thumb.o
 .bss           0x00000000        0x0 spriteset_alisa_swordslash_left.thumb.o
 .text          0x00000000        0x0 spriteset_alisa_swordslash_right.thumb.o
 .data          0x00000000        0x0 spriteset_alisa_swordslash_right.thumb.o
 .bss           0x00000000        0x0 spriteset_alisa_swordslash_right.thumb.o
 .text          0x00000000        0x0 spriteset_alisa_swordslash_up.thumb.o
 .data          0x00000000        0x0 spriteset_alisa_swordslash_up.thumb.o
 .bss           0x00000000        0x0 spriteset_alisa_swordslash_up.thumb.o
 .text          0x00000000        0x0 spriteset_character_stand_left.thumb.o
 .data          0x00000000        0x0 spriteset_character_stand_left.thumb.o
 .bss           0x00000000        0x0 spriteset_character_stand_left.thumb.o
 .text          0x00000000        0x0 spriteset_character_stand_right.thumb.o
 .data          0x00000000        0x0 spriteset_character_stand_right.thumb.o
 .bss           0x00000000        0x0 spriteset_character_stand_right.thumb.o
 .text          0x00000000        0x0 spriteset_character_walk_left.thumb.o
 .data          0x00000000        0x0 spriteset_character_walk_left.thumb.o
 .bss           0x00000000        0x0 spriteset_character_walk_left.thumb.o
 .text          0x00000000        0x0 spriteset_character_walk_right.thumb.o
 .data          0x00000000        0x0 spriteset_character_walk_right.thumb.o
 .bss           0x00000000        0x0 spriteset_character_walk_right.thumb.o
 .text          0x00000000        0x0 spriteset_crow.thumb.o
 .data          0x00000000        0x0 spriteset_crow.thumb.o
 .bss           0x00000000        0x0 spriteset_crow.thumb.o
 .text          0x00000000        0x0 spriteset_ghosltyman.thumb.o
 .data          0x00000000        0x0 spriteset_ghosltyman.thumb.o
 .bss           0x00000000        0x0 spriteset_ghosltyman.thumb.o
 .text          0x00000000        0x0 spriteset_ghosthand_appear.thumb.o
 .data          0x00000000        0x0 spriteset_ghosthand_appear.thumb.o
 .bss           0x00000000        0x0 spriteset_ghosthand_appear.thumb.o
 .text          0x00000000        0x0 spriteset_ghosthand_hidden.thumb.o
 .data          0x00000000        0x0 spriteset_ghosthand_hidden.thumb.o
 .bss           0x00000000        0x0 spriteset_ghosthand_hidden.thumb.o
 .text          0x00000000        0x0 spriteset_ghostlyman_floating.thumb.o
 .data          0x00000000        0x0 spriteset_ghostlyman_floating.thumb.o
 .bss           0x00000000        0x0 spriteset_ghostlyman_floating.thumb.o
 .text          0x00000000        0x0 spriteset_maincharacter_stand.thumb.o
 .data          0x00000000        0x0 spriteset_maincharacter_stand.thumb.o
 .bss           0x00000000        0x0 spriteset_maincharacter_stand.thumb.o
 .rodata        0x00000000       0x20 spriteset_maincharacter_stand.thumb.o
 .text          0x00000000        0x0 spriteset_maincharacter_walk.thumb.o
 .data          0x00000000        0x0 spriteset_maincharacter_walk.thumb.o
 .bss           0x00000000        0x0 spriteset_maincharacter_walk.thumb.o
 .rodata        0x00000000       0x98 spriteset_maincharacter_walk.thumb.o
 .text          0x00000000        0x0 spriteset_werewolf_run_down.thumb.o
 .data          0x00000000        0x0 spriteset_werewolf_run_down.thumb.o
 .bss           0x00000000        0x0 spriteset_werewolf_run_down.thumb.o
 .text          0x00000000        0x0 spriteset_werewolf_run_left.thumb.o
 .data          0x00000000        0x0 spriteset_werewolf_run_left.thumb.o
 .bss           0x00000000        0x0 spriteset_werewolf_run_left.thumb.o
 .text          0x00000000        0x0 spriteset_werewolf_run_right.thumb.o
 .data          0x00000000        0x0 spriteset_werewolf_run_right.thumb.o
 .bss           0x00000000        0x0 spriteset_werewolf_run_right.thumb.o
 .text          0x00000000        0x0 spriteset_werewolf_run_up.thumb.o
 .data          0x00000000        0x0 spriteset_werewolf_run_up.thumb.o
 .bss           0x00000000        0x0 spriteset_werewolf_run_up.thumb.o
 .text          0x00000000        0x0 spriteset_werewolf_stand_down.thumb.o
 .data          0x00000000        0x0 spriteset_werewolf_stand_down.thumb.o
 .bss           0x00000000        0x0 spriteset_werewolf_stand_down.thumb.o
 .text          0x00000000        0x0 spriteset_werewolf_stand_left.thumb.o
 .data          0x00000000        0x0 spriteset_werewolf_stand_left.thumb.o
 .bss           0x00000000        0x0 spriteset_werewolf_stand_left.thumb.o
 .text          0x00000000        0x0 spriteset_werewolf_stand_right.thumb.o
 .data          0x00000000        0x0 spriteset_werewolf_stand_right.thumb.o
 .bss           0x00000000        0x0 spriteset_werewolf_stand_right.thumb.o
 .text          0x00000000        0x0 spriteset_werewolf_stand_up.thumb.o
 .data          0x00000000        0x0 spriteset_werewolf_stand_up.thumb.o
 .bss           0x00000000        0x0 spriteset_werewolf_stand_up.thumb.o
 .text          0x00000000        0x0 spriteset_zombie_attack_down.thumb.o
 .data          0x00000000        0x0 spriteset_zombie_attack_down.thumb.o
 .bss           0x00000000        0x0 spriteset_zombie_attack_down.thumb.o
 .text          0x00000000        0x0 spriteset_zombie_attack_left.thumb.o
 .data          0x00000000        0x0 spriteset_zombie_attack_left.thumb.o
 .bss           0x00000000        0x0 spriteset_zombie_attack_left.thumb.o
 .text          0x00000000        0x0 spriteset_zombie_attack_right.thumb.o
 .data          0x00000000        0x0 spriteset_zombie_attack_right.thumb.o
 .bss           0x00000000        0x0 spriteset_zombie_attack_right.thumb.o
 .text          0x00000000        0x0 spriteset_zombie_attack_up.thumb.o
 .data          0x00000000        0x0 spriteset_zombie_attack_up.thumb.o
 .bss           0x00000000        0x0 spriteset_zombie_attack_up.thumb.o
 .text          0x00000000        0x0 spriteset_zombie_chase_down.thumb.o
 .data          0x00000000        0x0 spriteset_zombie_chase_down.thumb.o
 .bss           0x00000000        0x0 spriteset_zombie_chase_down.thumb.o
 .text          0x00000000        0x0 spriteset_zombie_chase_left.thumb.o
 .data          0x00000000        0x0 spriteset_zombie_chase_left.thumb.o
 .bss           0x00000000        0x0 spriteset_zombie_chase_left.thumb.o
 .text          0x00000000        0x0 spriteset_zombie_chase_right.thumb.o
 .data          0x00000000        0x0 spriteset_zombie_chase_right.thumb.o
 .bss           0x00000000        0x0 spriteset_zombie_chase_right.thumb.o
 .text          0x00000000        0x0 spriteset_zombie_chase_up.thumb.o
 .data          0x00000000        0x0 spriteset_zombie_chase_up.thumb.o
 .bss           0x00000000        0x0 spriteset_zombie_chase_up.thumb.o
 .text          0x00000000        0x0 spriteset_zombie_stunned_down.thumb.o
 .data          0x00000000        0x0 spriteset_zombie_stunned_down.thumb.o
 .bss           0x00000000        0x0 spriteset_zombie_stunned_down.thumb.o
 .text          0x00000000        0x0 spriteset_zombie_stunned_left.thumb.o
 .data          0x00000000        0x0 spriteset_zombie_stunned_left.thumb.o
 .bss           0x00000000        0x0 spriteset_zombie_stunned_left.thumb.o
 .text          0x00000000        0x0 spriteset_zombie_stunned_right.thumb.o
 .data          0x00000000        0x0 spriteset_zombie_stunned_right.thumb.o
 .bss           0x00000000        0x0 spriteset_zombie_stunned_right.thumb.o
 .text          0x00000000        0x0 spriteset_zombie_stunned_up.thumb.o
 .data          0x00000000        0x0 spriteset_zombie_stunned_up.thumb.o
 .bss           0x00000000        0x0 spriteset_zombie_stunned_up.thumb.o
 .text          0x00000000        0x0 spriteset_zombie_walk_down.thumb.o
 .data          0x00000000        0x0 spriteset_zombie_walk_down.thumb.o
 .bss           0x00000000        0x0 spriteset_zombie_walk_down.thumb.o
 .text          0x00000000        0x0 spriteset_zombie_walk_left.thumb.o
 .data          0x00000000        0x0 spriteset_zombie_walk_left.thumb.o
 .bss           0x00000000        0x0 spriteset_zombie_walk_left.thumb.o
 .text          0x00000000        0x0 spriteset_zombie_walk_right.thumb.o
 .data          0x00000000        0x0 spriteset_zombie_walk_right.thumb.o
 .bss           0x00000000        0x0 spriteset_zombie_walk_right.thumb.o
 .text          0x00000000        0x0 spriteset_zombie_walk_up.thumb.o
 .data          0x00000000        0x0 spriteset_zombie_walk_up.thumb.o
 .bss           0x00000000        0x0 spriteset_zombie_walk_up.thumb.o
 .text          0x00000000      0x12c testmap.thumb.o
 .data          0x00000000        0x0 testmap.thumb.o
 .bss           0x00000000        0x0 testmap.thumb.o
 .rodata        0x00000000     0x4d68 testmap.thumb.o
 .text          0x00000000        0x0 tile_map_graveyard.o
 .data          0x00000000        0x0 tile_map_graveyard.o
 .bss           0x00000000        0x0 tile_map_graveyard.o
 .text          0x00000000        0x0 tile_map_night_street.o
 .data          0x00000000        0x0 tile_map_night_street.o
 .bss           0x00000000        0x0 tile_map_night_street.o
 .rodata        0x00000000      0xf40 tile_map_night_street.o
 .text          0x00000000        0x0 tile_map_nobinobi_cabin.o
 .data          0x00000000        0x0 tile_map_nobinobi_cabin.o
 .bss           0x00000000        0x0 tile_map_nobinobi_cabin.o
 .rodata        0x00000000     0x1680 tile_map_nobinobi_cabin.o
 .text          0x00000000        0x0 tile_map_shrine.o
 .data          0x00000000        0x0 tile_map_shrine.o
 .bss           0x00000000        0x0 tile_map_shrine.o
 .text          0x00000000        0x0 tile_mapforest.o
 .data          0x00000000        0x0 tile_mapforest.o
 .bss           0x00000000        0x0 tile_mapforest.o
 .rodata        0x00000000      0x800 tile_mapforest.o
 .text          0x00000000        0x0 tile_mapgraveyard.o
 .data          0x00000000        0x0 tile_mapgraveyard.o
 .bss           0x00000000        0x0 tile_mapgraveyard.o
 .rodata        0x00000000      0x420 tile_mapgraveyard.o
 .text          0x00000000        0x0 tile_mapsnowfield.o
 .data          0x00000000        0x0 tile_mapsnowfield.o
 .bss           0x00000000        0x0 tile_mapsnowfield.o
 .rodata        0x00000000     0x1340 tile_mapsnowfield.o
 .data          0x00000000        0x0 c:/devkitpro/devkitarm/bin/../lib/gcc/arm-none-eabi/7.1.0\libgcc.a(_divsi3.o)
 .bss           0x00000000        0x0 c:/devkitpro/devkitarm/bin/../lib/gcc/arm-none-eabi/7.1.0\libgcc.a(_divsi3.o)
 .data          0x00000000        0x0 c:/devkitpro/devkitarm/bin/../lib/gcc/arm-none-eabi/7.1.0\libgcc.a(_dvmd_tls.o)
 .bss           0x00000000        0x0 c:/devkitpro/devkitarm/bin/../lib/gcc/arm-none-eabi/7.1.0\libgcc.a(_dvmd_tls.o)
 .text          0x00000000        0x0 c:/devkitpro/devkitarm/bin/../lib/gcc/arm-none-eabi/7.1.0/../../../../arm-none-eabi/lib\libg.a(lib_a-init.o)
 .data          0x00000000        0x0 c:/devkitpro/devkitarm/bin/../lib/gcc/arm-none-eabi/7.1.0/../../../../arm-none-eabi/lib\libg.a(lib_a-init.o)
 .bss           0x00000000        0x0 c:/devkitpro/devkitarm/bin/../lib/gcc/arm-none-eabi/7.1.0/../../../../arm-none-eabi/lib\libg.a(lib_a-init.o)
 .text          0x00000000        0x0 c:/devkitpro/devkitarm/bin/../lib/gcc/arm-none-eabi/7.1.0/../../../../arm-none-eabi/lib\libg.a(lib_a-malloc.o)
 .data          0x00000000        0x0 c:/devkitpro/devkitarm/bin/../lib/gcc/arm-none-eabi/7.1.0/../../../../arm-none-eabi/lib\libg.a(lib_a-malloc.o)
 .bss           0x00000000        0x0 c:/devkitpro/devkitarm/bin/../lib/gcc/arm-none-eabi/7.1.0/../../../../arm-none-eabi/lib\libg.a(lib_a-malloc.o)
 .text.free     0x00000000       0x1c c:/devkitpro/devkitarm/bin/../lib/gcc/arm-none-eabi/7.1.0/../../../../arm-none-eabi/lib\libg.a(lib_a-malloc.o)
 .text          0x00000000        0x0 c:/devkitpro/devkitarm/bin/../lib/gcc/arm-none-eabi/7.1.0/../../../../arm-none-eabi/lib\libg.a(lib_a-mallocr.o)
 .data          0x00000000        0x0 c:/devkitpro/devkitarm/bin/../lib/gcc/arm-none-eabi/7.1.0/../../../../arm-none-eabi/lib\libg.a(lib_a-mallocr.o)
 .bss           0x00000000        0x0 c:/devkitpro/devkitarm/bin/../lib/gcc/arm-none-eabi/7.1.0/../../../../arm-none-eabi/lib\libg.a(lib_a-mallocr.o)
 .text          0x00000000        0x0 c:/devkitpro/devkitarm/bin/../lib/gcc/arm-none-eabi/7.1.0/../../../../arm-none-eabi/lib\libg.a(lib_a-memcpy-stub.o)
 .data          0x00000000        0x0 c:/devkitpro/devkitarm/bin/../lib/gcc/arm-none-eabi/7.1.0/../../../../arm-none-eabi/lib\libg.a(lib_a-memcpy-stub.o)
 .bss           0x00000000        0x0 c:/devkitpro/devkitarm/bin/../lib/gcc/arm-none-eabi/7.1.0/../../../../arm-none-eabi/lib\libg.a(lib_a-memcpy-stub.o)
 .text          0x00000000        0x0 c:/devkitpro/devkitarm/bin/../lib/gcc/arm-none-eabi/7.1.0/../../../../arm-none-eabi/lib\libg.a(lib_a-memset.o)
 .data          0x00000000        0x0 c:/devkitpro/devkitarm/bin/../lib/gcc/arm-none-eabi/7.1.0/../../../../arm-none-eabi/lib\libg.a(lib_a-memset.o)
 .bss           0x00000000        0x0 c:/devkitpro/devkitarm/bin/../lib/gcc/arm-none-eabi/7.1.0/../../../../arm-none-eabi/lib\libg.a(lib_a-memset.o)
 .text          0x00000000        0x0 c:/devkitpro/devkitarm/bin/../lib/gcc/arm-none-eabi/7.1.0/../../../../arm-none-eabi/lib\libg.a(lib_a-mlock.o)
 .data          0x00000000        0x0 c:/devkitpro/devkitarm/bin/../lib/gcc/arm-none-eabi/7.1.0/../../../../arm-none-eabi/lib\libg.a(lib_a-mlock.o)
 .bss           0x00000000        0x0 c:/devkitpro/devkitarm/bin/../lib/gcc/arm-none-eabi/7.1.0/../../../../arm-none-eabi/lib\libg.a(lib_a-mlock.o)
 .text          0x00000000        0x0 c:/devkitpro/devkitarm/bin/../lib/gcc/arm-none-eabi/7.1.0/../../../../arm-none-eabi/lib\libg.a(lib_a-rand.o)
 .data          0x00000000        0x0 c:/devkitpro/devkitarm/bin/../lib/gcc/arm-none-eabi/7.1.0/../../../../arm-none-eabi/lib\libg.a(lib_a-rand.o)
 .bss           0x00000000        0x0 c:/devkitpro/devkitarm/bin/../lib/gcc/arm-none-eabi/7.1.0/../../../../arm-none-eabi/lib\libg.a(lib_a-rand.o)
 .text.srand    0x00000000       0x20 c:/devkitpro/devkitarm/bin/../lib/gcc/arm-none-eabi/7.1.0/../../../../arm-none-eabi/lib\libg.a(lib_a-rand.o)
 .text          0x00000000        0x0 c:/devkitpro/devkitarm/bin/../lib/gcc/arm-none-eabi/7.1.0/../../../../arm-none-eabi/lib\libg.a(lib_a-strncpy.o)
 .data          0x00000000        0x0 c:/devkitpro/devkitarm/bin/../lib/gcc/arm-none-eabi/7.1.0/../../../../arm-none-eabi/lib\libg.a(lib_a-strncpy.o)
 .bss           0x00000000        0x0 c:/devkitpro/devkitarm/bin/../lib/gcc/arm-none-eabi/7.1.0/../../../../arm-none-eabi/lib\libg.a(lib_a-strncpy.o)
 .text          0x00000000        0x0 c:/devkitpro/devkitarm/bin/../lib/gcc/arm-none-eabi/7.1.0/../../../../arm-none-eabi/lib\libg.a(lib_a-freer.o)
 .data          0x00000000        0x0 c:/devkitpro/devkitarm/bin/../lib/gcc/arm-none-eabi/7.1.0/../../../../arm-none-eabi/lib\libg.a(lib_a-freer.o)
 .bss           0x00000000        0x0 c:/devkitpro/devkitarm/bin/../lib/gcc/arm-none-eabi/7.1.0/../../../../arm-none-eabi/lib\libg.a(lib_a-freer.o)
 .text          0x00000000        0x0 c:/devkitpro/devkitarm/bin/../lib/gcc/arm-none-eabi/7.1.0/../../../../arm-none-eabi/lib\libsysbase.a(sbrk.o)
 .data          0x00000000        0x0 c:/devkitpro/devkitarm/bin/../lib/gcc/arm-none-eabi/7.1.0/../../../../arm-none-eabi/lib\libsysbase.a(sbrk.o)
 .bss           0x00000000        0x0 c:/devkitpro/devkitarm/bin/../lib/gcc/arm-none-eabi/7.1.0/../../../../arm-none-eabi/lib\libsysbase.a(sbrk.o)
 .text          0x00000000        0x0 c:/devkitpro/devkitarm/bin/../lib/gcc/arm-none-eabi/7.1.0/../../../../arm-none-eabi/lib\libsysbase.a(malloc_vars.o)
 .data          0x00000000        0x0 c:/devkitpro/devkitarm/bin/../lib/gcc/arm-none-eabi/7.1.0/../../../../arm-none-eabi/lib\libsysbase.a(malloc_vars.o)
 .bss           0x00000000        0x0 c:/devkitpro/devkitarm/bin/../lib/gcc/arm-none-eabi/7.1.0/../../../../arm-none-eabi/lib\libsysbase.a(malloc_vars.o)
 .text          0x00000000        0x0 c:/devkitpro/devkitarm/bin/../lib/gcc/arm-none-eabi/7.1.0/../../../../arm-none-eabi/lib\libsysbase.a(syscall_support.o)
 .data          0x00000000        0x0 c:/devkitpro/devkitarm/bin/../lib/gcc/arm-none-eabi/7.1.0/../../../../arm-none-eabi/lib\libsysbase.a(syscall_support.o)
 .bss           0x00000000        0x0 c:/devkitpro/devkitarm/bin/../lib/gcc/arm-none-eabi/7.1.0/../../../../arm-none-eabi/lib\libsysbase.a(syscall_support.o)
 .text.__libc_lock_init
                0x00000000       0x18 c:/devkitpro/devkitarm/bin/../lib/gcc/arm-none-eabi/7.1.0/../../../../arm-none-eabi/lib\libsysbase.a(syscall_support.o)
 .text.__libc_lock_acquire
                0x00000000       0x18 c:/devkitpro/devkitarm/bin/../lib/gcc/arm-none-eabi/7.1.0/../../../../arm-none-eabi/lib\libsysbase.a(syscall_support.o)
 .text.__libc_lock_try_acquire
                0x00000000       0x20 c:/devkitpro/devkitarm/bin/../lib/gcc/arm-none-eabi/7.1.0/../../../../arm-none-eabi/lib\libsysbase.a(syscall_support.o)
 .text.__libc_lock_release
                0x00000000       0x18 c:/devkitpro/devkitarm/bin/../lib/gcc/arm-none-eabi/7.1.0/../../../../arm-none-eabi/lib\libsysbase.a(syscall_support.o)
 .text.__libc_lock_close
                0x00000000       0x18 c:/devkitpro/devkitarm/bin/../lib/gcc/arm-none-eabi/7.1.0/../../../../arm-none-eabi/lib\libsysbase.a(syscall_support.o)
 .text.__libc_lock_init_recursive
                0x00000000       0x18 c:/devkitpro/devkitarm/bin/../lib/gcc/arm-none-eabi/7.1.0/../../../../arm-none-eabi/lib\libsysbase.a(syscall_support.o)
 .text.__libc_lock_try_acquire_recursive
                0x00000000       0x20 c:/devkitpro/devkitarm/bin/../lib/gcc/arm-none-eabi/7.1.0/../../../../arm-none-eabi/lib\libsysbase.a(syscall_support.o)
 .text.__libc_lock_close_recursive
                0x00000000       0x18 c:/devkitpro/devkitarm/bin/../lib/gcc/arm-none-eabi/7.1.0/../../../../arm-none-eabi/lib\libsysbase.a(syscall_support.o)
 .text          0x00000000        0x0 c:/devkitpro/devkitarm/bin/../lib/gcc/arm-none-eabi/7.1.0/../../../../arm-none-eabi/lib\libsysbase.a(getreent.o)
 .data          0x00000000        0x0 c:/devkitpro/devkitarm/bin/../lib/gcc/arm-none-eabi/7.1.0/../../../../arm-none-eabi/lib\libsysbase.a(getreent.o)
 .bss           0x00000000        0x0 c:/devkitpro/devkitarm/bin/../lib/gcc/arm-none-eabi/7.1.0/../../../../arm-none-eabi/lib\libsysbase.a(getreent.o)
 .text          0x00000000        0x0 c:/devkitpro/devkitarm/bin/../lib/gcc/arm-none-eabi/7.1.0/../../../../arm-none-eabi/lib\libg.a(lib_a-impure.o)
 .data          0x00000000        0x0 c:/devkitpro/devkitarm/bin/../lib/gcc/arm-none-eabi/7.1.0/../../../../arm-none-eabi/lib\libg.a(lib_a-impure.o)
 .bss           0x00000000        0x0 c:/devkitpro/devkitarm/bin/../lib/gcc/arm-none-eabi/7.1.0/../../../../arm-none-eabi/lib\libg.a(lib_a-impure.o)
 .rodata._global_impure_ptr
                0x00000000        0x4 c:/devkitpro/devkitarm/bin/../lib/gcc/arm-none-eabi/7.1.0/../../../../arm-none-eabi/lib\libg.a(lib_a-impure.o)
 .text          0x00000000        0x0 c:/devkitpro/devkitarm/bin/../lib/gcc/arm-none-eabi/7.1.0/crtend.o
 .data          0x00000000        0x0 c:/devkitpro/devkitarm/bin/../lib/gcc/arm-none-eabi/7.1.0/crtend.o
 .bss           0x00000000        0x0 c:/devkitpro/devkitarm/bin/../lib/gcc/arm-none-eabi/7.1.0/crtend.o
 .text          0x00000000        0x0 c:/devkitpro/devkitarm/bin/../lib/gcc/arm-none-eabi/7.1.0/crtn.o
 .data          0x00000000        0x0 c:/devkitpro/devkitarm/bin/../lib/gcc/arm-none-eabi/7.1.0/crtn.o
 .bss           0x00000000        0x0 c:/devkitpro/devkitarm/bin/../lib/gcc/arm-none-eabi/7.1.0/crtn.o

Memory Configuration

Name             Origin             Length             Attributes
rom              0x08000000         0x02000000
iwram            0x03000000         0x00008000
ewram            0x02000000         0x00040000
*default*        0x00000000         0xffffffff

Linker script and memory map

                0x08000000                __text_start = ORIGIN (rom)
                0x02040000                __eheap_end = (ORIGIN (ewram) + LENGTH (ewram))
                0x03000000                __iwram_start = ORIGIN (iwram)
                0x03008000                __iwram_top = (ORIGIN (iwram) + LENGTH (iwram))
                0x03007fa0                __sp_irq = (__iwram_top - 0x60)
                0x03007f00                __sp_usr = (__sp_irq - 0xa0)
                0x03007ff8                __irq_flags = 0x3007ff8
                0x08000000                . = __text_start

.crt0           0x08000000      0x210
 *(.crt0)
 .crt0          0x08000000      0x210 c:/devkitpro/devkitarm/bin/../lib/gcc/arm-none-eabi/7.1.0/../../../../arm-none-eabi/lib/gba_crt0.o
                0x08000000                _start
                0x080000c4                __boot_method
                0x080000c5                __slave_number
                0x080000e0                start_vector
                0x08000210                . = ALIGN (0x4)

.init           0x08000210       0x18
 *(SORT(.init))
 .init          0x08000210        0xc c:/devkitpro/devkitarm/bin/../lib/gcc/arm-none-eabi/7.1.0/crti.o
                0x08000210                _init
 .init          0x0800021c        0xc c:/devkitpro/devkitarm/bin/../lib/gcc/arm-none-eabi/7.1.0/crtn.o

.plt            0x08000228        0x0
 *(.plt)
                0x08000228                . = ALIGN (0x4)

.text           0x08000228     0x9de0
 *(EXCLUDE_FILE(*.iwram*) .text)
 .text          0x08000228       0xac ActionRpg.thumb.o
                0x08000228                gameloop
 .text          0x080002d4      0x798 CharacterAlisa.thumb.o
                0x080002d4                alisa_getBoundingBoxStanding
                0x08000310                alisa_doAction
                0x08000340                alisa_setPosition
                0x08000394                alisa_actionStand
                0x080003f8                alisa_actionRun
                0x080004b4                alisa_actionDashForward
                0x08000584                alisa_actionDashBackward
                0x08000650                alisa_actionStunned
                0x080006a8                alisa_actionSlash
                0x08000764                alisa_actionPrepareDash
                0x080007d0                alisa_checkMapCollision
                0x08000804                alisa_checkCollision
                0x08000868                alisa_checkActionEventCollision
                0x08000910                alisa_init
                0x08000a28                alisa_getBoundingBoxMoving
 .text          0x08000a6c      0x958 CharacterAlisaController.thumb.o
                0x08000a6c                alisa_stunnedController
                0x08000ab8                alisa_dashForwardController
                0x08000b3c                alisa_controller
                0x08000cdc                alisa_slashController
                0x08000e20                alisa_dashBackwardController
                0x08001068                controlButtonCheck
                0x08001134                controlButtonHold
                0x080011a0                alisa_setCharacter
                0x080011ac                alisa_prepareDashController
 .text          0x080013c4     0x323c CharacterCommon.thumb.o
                0x080013c4                commonDummy
                0x080013c8                common_noMovement
                0x080013cc                commonMovingUpMapCollision
                0x080014d0                commonMovingDownMapCollision
                0x080015d0                commonMovingRightMapCollision
                0x080016d0                commonMovingLeftMapCollision
                0x080017d4                commonMovingRightUpMapCollision
                0x080018e0                commonMovingLeftDownMapCollision
                0x080019ec                commonMovingRightDownMapCollision
                0x08001af8                commonMovingLeftUpMapCollision
                0x08001c04                commonDoCharacterEvent
                0x08001c7c                common_mapMovingDown
                0x08001e10                common_mapMovingUp
                0x08001fb0                common_mapMovingLeft
                0x08002120                common_mapMovingRight
                0x080022a0                common_movingDown
                0x08002434                common_movingRight
                0x080025d0                common_movingLeft
                0x08002770                common_movingUp
                0x08002910                common_mapMovingRightDownOffset
                0x08002ad0                common_mapMovingLeftDownOffset
                0x08002c84                common_mapMovingRightUpOffset
                0x08002e34                common_mapMovingLeftUpOffset
                0x08002fec                common_movingRightDownOffset
                0x08003230                common_movingLeftDownOffset
                0x08003478                common_movingRightUpOffset
                0x080036c0                common_movingLeftUpOffset
                0x0800390c                commonRemoveCharacter
                0x08003950                commonCharacterSetPosition
                0x0800397c                commonCharacterInit
                0x080039b0                commonCharacterMapEdgeCheck
                0x08003a24                commonSetToOamBuffer
                0x08003b2c                commonDrawDisplay
                0x08003bb8                commonInitializeAction
                0x08003bec                commonUpdateAnimation
                0x08003c70                commonGetNextFrame
                0x08003ce8                commonIsInScreen
                0x08003d90                common_checkNext
                0x08003dc0                hasCollision
                0x08003e78                commonPositionInBounds
                0x08003ec4                commonGetBoundsFromMap
                0x08003f48                commonSetCharacterEvent
                0x08003fac                commonTriggerCharacterEvent
                0x08004134                commonDoActionOneCycle
                0x080041dc                commonDoActionByFrames
                0x080041e0                transferToBoundingBox
                0x08004204                commonCheckForEvents
                0x08004338                commonGetCurrentAnimationFrame
                0x08004344                commonGetCurrentScreenFrame
                0x0800434c                commonDoNextAction
                0x080043b8                commonDoIntializeActions
                0x08004448                commonFindCharTypeInBoundingBox
                0x08004520                commonFindCharTypePositionByDistance
                0x080045e4                commonIsFoundPosition
 .text          0x08004600      0x208 CharacterCrow.thumb.o
                0x08004600                crow_doAction
                0x08004638                crow_getBoundingBox
                0x08004654                crow_checkMapCollision
                0x08004658                crow_checkCollision
                0x0800465c                crow_actionStand
                0x08004700                crow_setPosition
                0x08004754                crow_init
 .text          0x08004808       0x38 CharacterCrowController.thumb.o
                0x08004808                crow_controller
                0x08004834                crow_setCharacter
 .text          0x08004840      0x2d4 CharacterGhostMan.thumb.o
                0x08004840                ghostMan_doAction
                0x08004860                ghostMan_getBoundingBox
                0x08004864                ghostMan_checkCollision
                0x08004868                ghostMan_checkMapCollision
                0x0800486c                ghostMan_doSit
                0x080048bc                ghostMan_doFollow
                0x08004968                ghostMan_doTransitionToFollow
                0x08004a10                ghostMan_setPosition
                0x08004a64                ghostMan_init
 .text          0x08004b14      0x214 CharacterGhostlyHand.thumb.o
                0x08004b14                ghostlyHand_doAction
                0x08004b34                ghostlyHand_getBoundingBox
                0x08004b38                ghostlyHand_checkCollision
                0x08004b3c                ghostlyHand_checkMapCollision
                0x08004b40                ghostlyHand_setPosition
                0x08004b94                ghostlyHand_doHide
                0x08004bec                ghostlyHand_doAppear
                0x08004c78                ghostlyHand_init
 .text          0x08004d28       0x1c CharacterGhostlyHandController.thumb.o
                0x08004d28                ghostlyHand_controller
                0x08004d38                ghostlyHand_setCharacter
 .text          0x08004d44       0xdc CharacterGhostmanController.thumb.o
                0x08004d44                ghostMan_followController
                0x08004d54                ghostMan_controller
                0x08004dcc                ghostMan_transistionToFollowController
                0x08004e10                ghostMan_setCharacter
 .text          0x08004e20      0x58c CharacterWerewolf.thumb.o
                0x08004e20                werewolf_doAction
                0x08004e40                werewolf_getBoundingBoxStanding
                0x08004e80                werewolf_actionWalk
                0x08004fbc                werewolf_actionFindTarget
                0x08005074                werewolf_checkMapCollision
                0x080050a0                werewolf_checkCollision
                0x08005104                werewolf_setPosition
                0x080051c8                werewolf_checkActionEventCollision
                0x08005268                werewolf_init
                0x08005340                werewolf_getBounds
                0x08005364                werewolf_getBoundingBoxMoving
 .text          0x080053ac      0x2c8 CharacterWerewolfController.thumb.o
                0x080053ac                werewolf_scanSurroundingsController
                0x08005574                werewolf_goAroundObstacleController
                0x08005650                werewolf_setCharacter
                0x0800565c                werewolf_huntTargetController
                0x08005660                werewolf_remove
 .text          0x08005674      0x804 CharacterZombie.thumb.o
                0x08005674                zombie_doAction
                0x08005694                zombie_getBoundingBoxMoving
                0x080056d8                zombie_actionStunned
                0x08005730                zombie_actionWalk
                0x080058c8                zombie_actionChaseTarget
                0x08005a1c                zombie_actionAttack
                0x08005b38                zombie_checkMapCollision
                0x08005b68                zombie_checkCollision
                0x08005bcc                zombie_checkActionEventCollision
                0x08005c88                zombie_setPosition
                0x08005d4c                zombie_init
                0x08005e34                zombie_getBoundingBoxStanding
 .text          0x08005e78      0x6d4 CharacterZombieController.thumb.o
                0x08005e78                zombie_huntController
                0x08006140                zombie_isStunnedController
                0x080061dc                zombie_walkAroundController
                0x08006494                zombie_setCharacter
                0x080064a0                changeDirection
                0x080064d0                resetBlockedDirection
                0x080064dc                findAttackDirection
 .text          0x0800654c       0x84 GBATimer.thumb.o
                0x0800654c                gbatimer_profileStart
                0x0800658c                gbatimer_profileStop
                0x080065b4                gbatimer_set
 .text          0x080065d0      0x484 ManagerBG.thumb.o
                0x080065d0                mbg_initializeMapOnScreen
                0x0800666c                mbg_initializeCharacters
                0x08006728                mbg_init
                0x0800688c                mbg_setVerticalTiles
                0x08006958                mbg_setHorizontalTiles
                0x08006a00                mbg_checkBoundary
                0x08006a48                mbg_checkCollision
                0x08006a4c                mbg_collisionAtPosition
 .text          0x08006a54      0x524 ManagerCharacters.thumb.o
                0x08006a54                mchar_setDraw
                0x08006a60                mchar_draw
                0x08006ab4                mchar_init
                0x08006b0c                mchar_getPlayerCharacter
                0x08006b38                mchar_reinit
                0x08006b9c                mchar_action
                0x08006bf0                mchar_resolveAction
                0x08006dd4                mchar_checkCollisionAbove
                0x08006dd8                mchar_checkCollisionBelow
                0x08006ddc                mchar_setPosition
                0x08006e58                mchar_findCharacterType
                0x08006e90                mchar_resetControlType
                0x08006edc                mchar_initControlType
                0x08006f3c                mchar_getControlType
 .text          0x08006f78       0xec ManagerCharactersActionEvents.thumb.o
                0x08006f78                mchar_actione_init
                0x08006fb4                mchar_actione_reinit
                0x08006fe4                mchar_actione_add
 .text          0x08007064       0x30 ManagerGame.thumb.o
                0x08007064                mgame_setUpdater
 .text          0x08007094       0x68 ManagerOAM.thumb.o
                0x08007094                moam_initBuffer
                0x080070c0                moam_setUpdate
                0x080070cc                moam_update
 .text          0x080070fc      0x5e8 ManagerPrinter.thumb.o
                0x080070fc                mprinter_init
                0x08007158                mprinter_clear
                0x08007184                mprinter_string
                0x080071f0                mprinter_convertIntToString
                0x08007238                mprinter_number
                0x08007320                mprinter_printf
                0x080076c0                mprinter_print
 .text          0x080076e4      0x448 ManagerScrDisplay.thumb.o
                0x080076e4                mscr_moveScr
                0x08007884                initDisplay2BG
                0x08007890                mscr_initCharMoveRef
                0x08007914                mscr_adjustScreenToMapLimits
                0x08007954                mscr_initPosMoveRef
                0x0800795c                mscr_checkMoveLeft
                0x08007990                mscr_checkMoveRight
                0x080079c8                mscr_checkMoveUp
                0x080079fc                mscr_checkMoveDown
                0x08007a34                mscr_setHorizontalMove
                0x08007a70                mscr_setVerticalMove
                0x08007aac                mscr_setDraw
                0x08007ab8                mscr_draw
                0x08007af4                initWindowObj
                0x08007b14                removeWindowObj
 .text          0x08007b2c      0x634 ManagerSound.thumb.o
                0x08007b2c                msound_init
                0x08007b74                msound_setUpMono
                0x08007bd8                msound_setUpStereo
                0x08007c54                getOpenChannel
                0x08007ca0                msound_setChannel3d
                0x08007d84                msound_setChannel
                0x08007e14                msound_mixMono
                0x08007f14                msound_mixStereo
                0x080080e4                msound_mixStereoASMR
                0x080080f0                msound_changeBuf
                0x08008130                msound_process3dSound
 .text          0x08008160      0x774 ManagerVram.thumb.o
                0x08008160                sprite_vram_init
                0x0800821c                sprite_vram_findId
                0x080082dc                sprite_vram_freeId
                0x08008388                sprite_vram_copy32_ID
                0x080083b4                sprite_getID
                0x080083d4                sprite_vram_reset
                0x080083e0                sprite_palette_init
                0x080084e0                sprite_palette_findId
                0x080087b4                sprite_palette_copy32
                0x080087ec                sprite_palette_copy32_ID
                0x08008810                sprite_palette_getID
                0x0800881c                sprite_palette_reset
                0x08008828                tiles_vram_copy32
                0x08008860                map_vram_copy32
                0x08008898                getBGMemoryCurrent
                0x080088a4                memFill16
                0x080088c4                sprite_get_palette_ID
 .text          0x080088d4      0x1b4 MapCommon.thumb.o
                0x080088d4                returnToScreen
                0x08008910                mapCommon_defaultEffect
                0x08008914                mapCommon_returnToNormal
                0x08008950                mapCommon_goDark
                0x0800898c                mapCommon_transferToMap
                0x08008a30                map_nofunction
                0x08008a34                fadeToBlack
                0x08008a74                mapCommon_initFlashScreen
 .text          0x08008a88       0x48 UpdateGameStatus.arm.o
                0x08008a88                updateGameStatus
 .text          0x08008ad0      0x14c UtilLzssDecompress.thumb.o
                0x08008ad0                lzssDecompress
                0x08008bf4                lzss2vram
                0x08008c10                LZSSUncomp
 .text          0x08008c1c      0x148 c:/devkitpro/devkitarm/bin/../lib/gcc/arm-none-eabi/7.1.0\libgcc.a(_divsi3.o)
                0x08008c1c                __divsi3
                0x08008c1c                __aeabi_idiv
                0x08008d44                __aeabi_idivmod
 .text          0x08008d64        0x4 c:/devkitpro/devkitarm/bin/../lib/gcc/arm-none-eabi/7.1.0\libgcc.a(_dvmd_tls.o)
                0x08008d64                __aeabi_idiv0
                0x08008d64                __aeabi_ldiv0
 *(.text .stub .text.* .gnu.linkonce.t.*)
 .text.deregister_tm_clones
                0x08008d68       0x2c c:/devkitpro/devkitarm/bin/../lib/gcc/arm-none-eabi/7.1.0/crtbegin.o
 .text.register_tm_clones
                0x08008d94       0x38 c:/devkitpro/devkitarm/bin/../lib/gcc/arm-none-eabi/7.1.0/crtbegin.o
 .text.__do_global_dtors_aux
                0x08008dcc       0x44 c:/devkitpro/devkitarm/bin/../lib/gcc/arm-none-eabi/7.1.0/crtbegin.o
 .text.frame_dummy
                0x08008e10       0x34 c:/devkitpro/devkitarm/bin/../lib/gcc/arm-none-eabi/7.1.0/crtbegin.o
 .text.startup  0x08008e44       0xc4 ActionRpg.thumb.o
                0x08008e44                main
 .text.__libc_init_array
                0x08008f08       0x88 c:/devkitpro/devkitarm/bin/../lib/gcc/arm-none-eabi/7.1.0/../../../../arm-none-eabi/lib\libg.a(lib_a-init.o)
                0x08008f08                __libc_init_array
 .text.malloc   0x08008f90       0x1c c:/devkitpro/devkitarm/bin/../lib/gcc/arm-none-eabi/7.1.0/../../../../arm-none-eabi/lib\libg.a(lib_a-malloc.o)
                0x08008f90                malloc
 .text._malloc_r
                0x08008fac      0x7ac c:/devkitpro/devkitarm/bin/../lib/gcc/arm-none-eabi/7.1.0/../../../../arm-none-eabi/lib\libg.a(lib_a-mallocr.o)
                0x08008fac                _malloc_r
 .text.memcpy   0x08009758      0x110 c:/devkitpro/devkitarm/bin/../lib/gcc/arm-none-eabi/7.1.0/../../../../arm-none-eabi/lib\libg.a(lib_a-memcpy-stub.o)
                0x08009758                memcpy
 .text.memset   0x08009868      0x114 c:/devkitpro/devkitarm/bin/../lib/gcc/arm-none-eabi/7.1.0/../../../../arm-none-eabi/lib\libg.a(lib_a-memset.o)
                0x08009868                memset
 .text.__malloc_lock
                0x0800997c       0x18 c:/devkitpro/devkitarm/bin/../lib/gcc/arm-none-eabi/7.1.0/../../../../arm-none-eabi/lib\libg.a(lib_a-mlock.o)
                0x0800997c                __malloc_lock
 .text.__malloc_unlock
                0x08009994       0x18 c:/devkitpro/devkitarm/bin/../lib/gcc/arm-none-eabi/7.1.0/../../../../arm-none-eabi/lib\libg.a(lib_a-mlock.o)
                0x08009994                __malloc_unlock
 .text.rand     0x080099ac       0x4c c:/devkitpro/devkitarm/bin/../lib/gcc/arm-none-eabi/7.1.0/../../../../arm-none-eabi/lib\libg.a(lib_a-rand.o)
                0x080099ac                rand
 .text.strncpy  0x080099f8       0xe0 c:/devkitpro/devkitarm/bin/../lib/gcc/arm-none-eabi/7.1.0/../../../../arm-none-eabi/lib\libg.a(lib_a-strncpy.o)
                0x080099f8                strncpy
 .text._malloc_trim_r
                0x08009ad8      0x100 c:/devkitpro/devkitarm/bin/../lib/gcc/arm-none-eabi/7.1.0/../../../../arm-none-eabi/lib\libg.a(lib_a-freer.o)
                0x08009ad8                _malloc_trim_r
 .text._free_r  0x08009bd8      0x2dc c:/devkitpro/devkitarm/bin/../lib/gcc/arm-none-eabi/7.1.0/../../../../arm-none-eabi/lib\libg.a(lib_a-freer.o)
                0x08009bd8                _free_r
 .text._sbrk_r  0x08009eb4       0x74 c:/devkitpro/devkitarm/bin/../lib/gcc/arm-none-eabi/7.1.0/../../../../arm-none-eabi/lib\libsysbase.a(sbrk.o)
                0x08009eb4                _sbrk_r
 .text.__libc_lock_acquire_recursive
                0x08009f28       0x18 c:/devkitpro/devkitarm/bin/../lib/gcc/arm-none-eabi/7.1.0/../../../../arm-none-eabi/lib\libsysbase.a(syscall_support.o)
                0x08009f28                __libc_lock_acquire_recursive
 .text.__libc_lock_release_recursive
                0x08009f40       0x18 c:/devkitpro/devkitarm/bin/../lib/gcc/arm-none-eabi/7.1.0/../../../../arm-none-eabi/lib\libsysbase.a(syscall_support.o)
                0x08009f40                __libc_lock_release_recursive
 .text.__getreent
                0x08009f58       0x24 c:/devkitpro/devkitarm/bin/../lib/gcc/arm-none-eabi/7.1.0/../../../../arm-none-eabi/lib\libsysbase.a(getreent.o)
                0x08009f58                __getreent
 *fill*         0x08009f7c        0x4 ff
 .text.__getreent.__stub
                0x08009f80       0x74 linker stubs
 *(.text.*personality*)
 *(.gnu.warning)
 *(.glue_7t)
 .glue_7t       0x0800a008        0x0 linker stubs
 *(.glue_7)
 .glue_7        0x0800a008        0x0 linker stubs
 *(.vfp11_veneer)
 .vfp11_veneer  0x0800a008        0x0 linker stubs
                0x0800a008                . = ALIGN (0x4)
                0x0800a008                __text_end = .

.v4_bx          0x0800a008        0x0
 .v4_bx         0x0800a008        0x0 linker stubs

.iplt           0x0800a008        0x0
 .iplt          0x0800a008        0x0 c:/devkitpro/devkitarm/bin/../lib/gcc/arm-none-eabi/7.1.0/../../../../arm-none-eabi/lib/gba_crt0.o

.fini           0x0800a008       0x18
 *(.fini)
 .fini          0x0800a008        0xc c:/devkitpro/devkitarm/bin/../lib/gcc/arm-none-eabi/7.1.0/crti.o
                0x0800a008                _fini
 .fini          0x0800a014        0xc c:/devkitpro/devkitarm/bin/../lib/gcc/arm-none-eabi/7.1.0/crtn.o
                0x0800a020                . = ALIGN (0x4)

.rodata         0x0800a020    0x19df0
 *(.rodata)
 .rodata        0x0800a020      0x328 CharacterAlisa.thumb.o
                0x0800a020                alisa_actions
                0x0800a040                slash_offsetValues
                0x0800a080                alisa_mapCollisionReactions
                0x0800a0a0                alisa_mapCollision
                0x0800a0c0                alisa_collisionReactions
                0x0800a100                alisa_boundingBoxMeasurements
                0x0800a104                alisa_scrConversionMeasurements
                0x0800a108                alisa_dashOffsetY
                0x0800a188                alisa_dashOffsetX
                0x0800a208                alisa_runOffsetY
                0x0800a2a8                alisa_runOffsetX
 .rodata        0x0800a348        0x8 CharacterAlisaController.thumb.o
                0x0800a348                DEFAULT_DIRECTIONMAP
 .rodata        0x0800a350      0x10c CharacterCommon.thumb.o
                0x0800a350                uncompressedCopySize
                0x0800a380                NOT_FOUND_POSITION
                0x0800a388                openSlot
                0x0800a3dc                common_mapCollision
                0x0800a3fc                common_mapCollisionReactions
                0x0800a41c                common_collisionReactions
 .rodata        0x0800a45c       0x12 CharacterGhostMan.thumb.o
                0x0800a45c                ghostMan_actions
                0x0800a468                ghostMan_boundingBoxMeasurements
                0x0800a46c                ghostMan_scrConversionMeasurements
 *fill*         0x0800a46e        0x2 ff
 .rodata        0x0800a470        0xe CharacterGhostlyHand.thumb.o
                0x0800a470                ghostlyHand_actions
                0x0800a478                ghostlyHand_boundingBoxMeasurements
                0x0800a47c                ghostlyHand_scrConversionMeasurements
 *fill*         0x0800a47e        0x2 ff
 .rodata        0x0800a480       0x40 CharacterType.thumb.o
                0x0800a480                characterSet
                0x0800a4a0                chacterInit
 .rodata        0x0800a4c0      0x2c6 CharacterWerewolf.thumb.o
                0x0800a4c0                werewolf_scanSurroundingOffset
                0x0800a500                werewolf_mapCollisionReactions
                0x0800a520                werewolf_mapCollision
                0x0800a540                werewolf_collisionReactions
                0x0800a580                werewolf_runOffsetY
                0x0800a680                werewolf_runOffsetX
                0x0800a780                werewolf_boundingBoxMeasurements
                0x0800a784                werewolf_scrConversionMeasurements
 *fill*         0x0800a786        0x2 ff
 .rodata        0x0800a788        0x8 CharacterWerewolfController.thumb.o
                0x0800a788                werewolf_patrolDirections
 .rodata        0x0800a790      0x1ca CharacterZombie.thumb.o
                0x0800a790                zombie_scanSurroundingOffset
                0x0800a7d0                zombie_strike_offsetValues
                0x0800a810                zombie_scanLastKnownPosition
                0x0800a814                zombie_walkOffsetY
                0x0800a8b4                zombie_walkOffsetX
                0x0800a954                zombie_boundingBoxMeasurements
                0x0800a958                zombie_scrConversionMeasurements
 *fill*         0x0800a95a        0x2 ff
 .rodata        0x0800a95c       0x3d CharacterZombieController.thumb.o
                0x0800a95c                FAR_TARGET
                0x0800a978                zombie_walkDirections
                0x0800a980                NEAR_TARGET
 *fill*         0x0800a999        0x3 ff
 .rodata        0x0800a99c        0x8 ManagerOAM.thumb.o
                0x0800a99c                moam_removeObj
 .rodata        0x0800a9a4     0x17a0 ManagerPrinter.thumb.o
                0x0800a9a4                character_pal
                0x0800a9c4                character_tiles
 .rodata        0x0800c144        0x8 ManagerScrDisplay.thumb.o
                0x0800c144                default_scrBoundingBox
 .rodata        0x0800c14c      0x108 ManagerSound.thumb.o
                0x0800c14c                freeChannel
                0x0800c164                distanceAttenuation
                0x0800c1a4                sound_zero
 .rodata        0x0800c254       0x88 UtilCommonValues.thumb.o
                0x0800c254                h_flipOnDirection
                0x0800c274                directions
                0x0800c27c                MAXBITSHIFT
                0x0800c280                dir_from_key
                0x0800c290                ASYMMETRICDIR
                0x0800c294                SYMMETRICDIR
                0x0800c298                SCREENEDGEBOTTOM
                0x0800c29c                SCREENEDGETOP
                0x0800c2a0                SCREENEDGERIGHT
                0x0800c2a4                SCREENEDGELEFT
                0x0800c2a8                OBJONSCRYMAX
                0x0800c2ac                OBJONSCRXMAX
                0x0800c2b0                TILEHEIGHT
                0x0800c2b4                TILEWIDTH
                0x0800c2b8                QUARTERMAPBLOCK
                0x0800c2bc                HALFMAPBLOCK
                0x0800c2c0                MAPBLOCKCHK
                0x0800c2c4                MAPBLOCK
                0x0800c2c8                TOLERANCE_MOVE
                0x0800c2cc                TOLERANCE_TB
                0x0800c2d0                TOLERANCE_LR
                0x0800c2d4                GBASCREENHEIGHT
                0x0800c2d8                GBASCREENWIDTH
 .rodata        0x0800c2dc      0x800 UtilLzssDecompress.thumb.o
                0x0800c2dc                addShift
                0x0800c6dc                addUncompressedLength
 .rodata        0x0800cadc     0x2868 map_graveyard.o
                0x0800cadc                startat_map_graveyard
                0x0800caec                map_graveyard
                0x0800cb1c                transfer_map_graveyard
                0x0800cb2c                tileset_stonelantern
                0x0800cb2c                actors_map_graveyard
                0x0800cb34                tileset_shrine_walkway
                0x0800cb3c                tileset_gravestone
                0x0800cb44                collision_map_graveyard
                0x0800d344                mapentry_map_graveyard
 .rodata        0x0800f344     0x2868 map_shrine.o
                0x0800f344                map_shrine
                0x0800f374                transfer_map_shrine
                0x0800f384                actors_map_shrine
                0x0800f384                tileset_shrine_roof
                0x0800f38c                tileset_shrine_wall
                0x0800f394                tileset_shrine_flloorsupport
                0x0800f39c                tileset_shrine_flloor
                0x0800f3a4                tileset_shrine_stairs
                0x0800f3ac                collision_map_shrine
                0x0800fbac                mapentry_map_shrine
 .rodata        0x08011bac     0x1489 sound_crow.o
                0x08011bac                soundeffect_crow
                0x08011bb8                sound_crow
 *fill*         0x08013035        0x3 ff
 .rodata        0x08013038     0x820e sound_ghost_moan2.o
                0x08013038                soundeffect_ghost_moan4
                0x08013044                sound_ghost_moan4
                0x080161cc                soundeffect_ghost_moan3
                0x080161d8                sound_ghost_moan3
                0x080195b4                soundeffect_ghost_moan2
                0x080195c0                sound_ghost_moan2
 *fill*         0x0801b246        0x2 ff
 .rodata        0x0801b248      0x943 sound_slash.o
                0x0801b248                soundeffect_slash
                0x0801b254                slash
 *fill*         0x0801bb8b        0x1 ff
 .rodata        0x0801bb8c      0x397 sound_window_hit.o
                0x0801bb8c                soundeffect_window_hit
                0x0801bb98                sound_window_hit
 *fill*         0x0801bf23        0x1 ff
 .rodata        0x0801bf24      0x1c4 sprite_alisa_dashbackwardwithsword_down.thumb.o
                0x0801bf24                alisa_dashbackwardwithsword_down_image1
                0x0801bff8                alisa_dashbackwardwithsword_down_image0
                0x0801c0c8                alisa_dashbackwardwithsword_down_pal
 .rodata        0x0801c0e8      0x29c sprite_alisa_dashbackwardwithsword_side.thumb.o
                0x0801c0e8                alisa_dashbackwardwithsword_side_image2
                0x0801c1b4                alisa_dashbackwardwithsword_side_image1
                0x0801c28c                alisa_dashbackwardwithsword_side_image0
                0x0801c364                alisa_dashbackwardwithsword_side_pal
 .rodata        0x0801c384      0x1cc sprite_alisa_dashbackwardwithsword_up.thumb.o
                0x0801c384                alisa_dashbackwardwithsword_up_image1
                0x0801c460                alisa_dashbackwardwithsword_up_image0
                0x0801c530                alisa_dashbackwardwithsword_up_pal
 .rodata        0x0801c550      0x4f4 sprite_alisa_runwithsword_down.thumb.o
                0x0801c550                alisa_runwithsword_down_image5
                0x0801c618                alisa_runwithsword_down_image4
                0x0801c6dc                alisa_runwithsword_down_image3
                0x0801c7b8                alisa_runwithsword_down_image2
                0x0801c888                alisa_runwithsword_down_image1
                0x0801c950                alisa_runwithsword_down_image0
                0x0801ca24                alisa_runwithsword_down_pal
 .rodata        0x0801ca44      0x550 sprite_alisa_runwithsword_side.thumb.o
                0x0801ca44                alisa_runwithsword_side_image5
                0x0801cb24                alisa_runwithsword_side_image4
                0x0801cc08                alisa_runwithsword_side_image3
                0x0801cce4                alisa_runwithsword_side_image2
                0x0801cdc8                alisa_runwithsword_side_image1
                0x0801cea4                alisa_runwithsword_side_image0
                0x0801cf74                alisa_runwithsword_side_pal
 .rodata        0x0801cf94      0x4e0 sprite_alisa_runwithsword_up.thumb.o
                0x0801cf94                alisa_runwithsword_up_image5
                0x0801d054                alisa_runwithsword_up_image4
                0x0801d120                alisa_runwithsword_up_image3
                0x0801d1f4                alisa_runwithsword_up_image2
                0x0801d2b8                alisa_runwithsword_up_image1
                0x0801d384                alisa_runwithsword_up_image0
                0x0801d454                alisa_runwithsword_up_pal
 .rodata        0x0801d474      0x100 sprite_alisa_standwithsword_down.thumb.o
                0x0801d474                alisa_standwithsword_down_image0
                0x0801d554                alisa_standwithsword_down_pal
 .rodata        0x0801d574      0x104 sprite_alisa_standwithsword_side.thumb.o
                0x0801d574                alisa_standwithsword_side_image0
                0x0801d658                alisa_standwithsword_side_pal
 .rodata        0x0801d678      0x1dc sprite_alisa_standwithsword_up.thumb.o
                0x0801d678                alisa_standwithsword_up_image1
                0x0801d758                alisa_standwithsword_up_image0
                0x0801d834                alisa_standwithsword_up_pal
 .rodata        0x0801d854      0x1e4 sprite_alisa_stunnedwithsword_down.thumb.o
                0x0801d854                alisa_stunnedwithsword_down_image1
                0x0801d93c                alisa_stunnedwithsword_down_image0
                0x0801da18                alisa_stunnedwithsword_down_pal
 .rodata        0x0801da38      0x1e8 sprite_alisa_stunnedwithsword_side.thumb.o
                0x0801da38                alisa_stunnedwithsword_side_image1
                0x0801db1c                alisa_stunnedwithsword_side_image0
                0x0801dc00                alisa_stunnedwithsword_side_pal
 .rodata        0x0801dc20      0x1d0 sprite_alisa_stunnedwithsword_up.thumb.o
                0x0801dc20                alisa_stunnedwithsword_up_image1
                0x0801dcfc                alisa_stunnedwithsword_up_image0
                0x0801ddd0                alisa_stunnedwithsword_up_pal
 .rodata        0x0801ddf0      0x38c sprite_alisa_swordslash_down.thumb.o
                0x0801ddf0                alisa_swordslash_down_image3
                0x0801dec8                alisa_swordslash_down_image2
                0x0801dfa4                alisa_swordslash_down_image1
                0x0801e080                alisa_swordslash_down_image0
                0x0801e15c                alisa_swordslash_down_pal
 .rodata        0x0801e17c      0x380 sprite_alisa_swordslash_side.thumb.o
                0x0801e17c                alisa_swordslash_side_image3
                0x0801e248                alisa_swordslash_side_image2
                0x0801e320                alisa_swordslash_side_image1
                0x0801e400                alisa_swordslash_side_image0
                0x0801e4dc                alisa_swordslash_side_pal
 .rodata        0x0801e4fc      0x390 sprite_alisa_swordslash_up.thumb.o
                0x0801e4fc                alisa_swordslash_up_image3
                0x0801e5d8                alisa_swordslash_up_image2
                0x0801e6b4                alisa_swordslash_up_image1
                0x0801e790                alisa_swordslash_up_image0
                0x0801e86c                alisa_swordslash_up_pal
 .rodata        0x0801e88c      0x308 sprite_character.thumb.o
                0x0801e88c                character_image3
                0x0801e958                character_image2
                0x0801ea1c                character_image1
                0x0801ead4                character_image0
                0x0801eb74                characterboy_pal
 .rodata        0x0801eb94       0xa8 sprite_crow.thumb.o
                0x0801eb94                crow_image0
                0x0801ec1c                crow_pal
 .rodata        0x0801ec3c      0x120 sprite_ghostly_hand.thumb.o
                0x0801ec3c                ghostly_hand_image3
                0x0801ec9c                ghostly_hand_image2
                0x0801ece0                ghostly_hand_image1
                0x0801ed24                ghostly_hand_image0
                0x0801ed3c                ghostly_hand_pal
 .rodata        0x0801ed5c      0x12c sprite_ghostlyman.thumb.o
                0x0801ed5c                ghostlyman_image0
                0x0801ee68                ghostlyman_pal
 .rodata        0x0801ee88       0xa0 sprite_ghostlyman_lower_float.thumb.o
                0x0801ee88                ghostlyman_lower_float_image0
                0x0801ef08                ghostlyman_lower_float_pal
 .rodata        0x0801ef28       0xe4 sprite_ghostlyman_upper_float.thumb.o
                0x0801ef28                ghostlyman_upper_float_image0
                0x0801efec                ghostlyman_upper_float_pal
 .rodata        0x0801f00c       0xfc sprite_sword_side.thumb.o
                0x0801f00c                sword_side_image3
                0x0801f044                sword_side_image2
                0x0801f07c                sword_side_image1
                0x0801f0b0                sword_side_image0
                0x0801f0e8                sword_side_pal
 .rodata        0x0801f108       0xf4 sprite_sword_vertical.thumb.o
                0x0801f108                sword_vertical_image2
                0x0801f150                sword_vertical_image1
                0x0801f194                sword_vertical_image0
                0x0801f1dc                sword_vertical_pal
 .rodata        0x0801f1fc       0x68 sprite_werewolfarm_down.thumb.o
                0x0801f1fc                werewolfarm_down_image0
                0x0801f244                werewolfarm_down_pal
 .rodata        0x0801f264       0x68 sprite_werewolfarm_side.thumb.o
                0x0801f264                werewolfarm_side_image0
                0x0801f2ac                werewolfarm_side_pal
 .rodata        0x0801f2cc       0x68 sprite_werewolfarm_up.thumb.o
                0x0801f2cc                werewolfarm_up_image0
                0x0801f314                werewolfarm_up_pal
 .rodata        0x0801f334      0x180 sprite_werewolffeet_run_down.thumb.o
                0x0801f334                werewolffeet_run_down_image2
                0x0801f3ac                werewolffeet_run_down_image1
                0x0801f42c                werewolffeet_run_down_image0
                0x0801f494                werewolffeet_run_down_pal
 .rodata        0x0801f4b4      0x25c sprite_werewolffeet_run_side.thumb.o
                0x0801f4b4                werewolffeet_run_side_image4
                0x0801f514                werewolffeet_run_side_image3
                0x0801f58c                werewolffeet_run_side_image2
                0x0801f600                werewolffeet_run_side_image1
                0x0801f670                werewolffeet_run_side_image0
                0x0801f6f0                werewolffeet_run_side_pal
 .rodata        0x0801f710      0x17c sprite_werewolffeet_run_up.thumb.o
                0x0801f710                werewolffeet_run_up_image2
                0x0801f788                werewolffeet_run_up_image1
                0x0801f808                werewolffeet_run_up_image0
                0x0801f86c                werewolffeet_run_up_pal
 .rodata        0x0801f88c       0x64 sprite_werewolftail_side.thumb.o
                0x0801f88c                werewolftail_side_image0
                0x0801f8d0                werewolftail_side_pal
 .rodata        0x0801f8f0      0x138 sprite_werewolfupperbody_run_down.thumb.o
                0x0801f8f0                werewolfupperbody_run_down_image1
                0x0801f97c                werewolfupperbody_run_down_image0
                0x0801fa08                werewolfupperbody_run_down_pal
 .rodata        0x0801fa28      0x188 sprite_werewolfupperbody_run_side.thumb.o
                0x0801fa28                werewolfupperbody_run_side_image2
                0x0801faa0                werewolfupperbody_run_side_image1
                0x0801fb18                werewolfupperbody_run_side_image0
                0x0801fb90                werewolfupperbody_run_side_pal
 .rodata        0x0801fbb0      0x1c0 sprite_werewolfupperbody_run_up.thumb.o
                0x0801fbb0                werewolfupperbody_run_up_image2
                0x0801fc38                werewolfupperbody_run_up_image1
                0x0801fcc4                werewolfupperbody_run_up_image0
                0x0801fd50                werewolfupperbody_run_up_pal
 .rodata        0x0801fd70      0x4ec sprite_zombie_attack_down.thumb.o
                0x0801fd70                zombie_attack_down_image4
                0x0801fe5c                zombie_attack_down_image3
                0x0801ff54                zombie_attack_down_image2
                0x0802004c                zombie_attack_down_image1
                0x08020144                zombie_attack_down_image0
                0x0802023c                zombie_attack_down_pal
 .rodata        0x0802025c      0x474 sprite_zombie_attack_side.thumb.o
                0x0802025c                zombie_attack_side_image4
                0x08020348                zombie_attack_side_image3
                0x08020428                zombie_attack_side_image2
                0x080204f4                zombie_attack_side_image1
                0x080205cc                zombie_attack_side_image0
                0x080206b0                zombie_attack_side_pal
 .rodata        0x080206d0      0x4dc sprite_zombie_attack_up.thumb.o
                0x080206d0                zombie_attack_up_image4
                0x080207bc                zombie_attack_up_image3
                0x080208b4                zombie_attack_up_image2
                0x0802099c                zombie_attack_up_image1
                0x08020a94                zombie_attack_up_image0
                0x08020b8c                zombie_attack_up_pal
 .rodata        0x08020bac      0x10c sprite_zombie_stunned_down.thumb.o
                0x08020bac                zombie_stunned_down_image0
                0x08020c98                zombie_stunned_down_pal
 .rodata        0x08020cb8       0xe8 sprite_zombie_stunned_side.thumb.o
                0x08020cb8                zombie_stunned_side_image0
                0x08020d80                zombie_stunned_side_pal
 .rodata        0x08020da0      0x110 sprite_zombie_stunned_up.thumb.o
                0x08020da0                zombie_stunned_up_image0
                0x08020e90                zombie_stunned_up_pal
 .rodata        0x08020eb0      0x408 sprite_zombie_walk_down.thumb.o
                0x08020eb0                zombie_walk_down_image3
                0x08020fac                zombie_walk_down_image2
                0x080210ac                zombie_walk_down_image1
                0x080211a0                zombie_walk_down_image0
                0x08021298                zombie_walk_down_pal
 .rodata        0x080212b8      0x3bc sprite_zombie_walk_side.thumb.o
                0x080212b8                zombie_walk_side_image3
                0x080213a0                zombie_walk_side_image2
                0x08021484                zombie_walk_side_image1
                0x08021568                zombie_walk_side_image0
                0x08021654                zombie_walk_side_pal
 .rodata        0x08021674      0x3ec sprite_zombie_walk_up.thumb.o
                0x08021674                zombie_walk_up_image3
                0x08021760                zombie_walk_up_image2
                0x0802185c                zombie_walk_up_image1
                0x08021948                zombie_walk_up_image0
                0x08021a40                zombie_walk_up_pal
 .rodata        0x08021a60       0x38 spriteset_alisa_dashbackwardwithsword_down.thumb.o
                0x08021a60                alisa_dashbackwardwithsword_down
                0x08021a68                alisa_dashbackwardwithsword_down_layerSet
                0x08021a78                alisa_dashbackwardwithsword_down_layerSet1
                0x08021a88                alisa_dashbackwardwithsword_down_layerSet0
 .rodata        0x08021a98       0x38 spriteset_alisa_dashbackwardwithsword_left.thumb.o
                0x08021a98                alisa_dashbackwardwithsword_left
                0x08021aa0                alisa_dashbackwardwithsword_left_layerSet
                0x08021ab0                alisa_dashbackwardwithsword_left_layerSet1
                0x08021ac0                alisa_dashbackwardwithsword_left_layerSet0
 .rodata        0x08021ad0       0x38 spriteset_alisa_dashbackwardwithsword_right.thumb.o
                0x08021ad0                alisa_dashbackwardwithsword_right
                0x08021ad8                alisa_dashbackwardwithsword_right_layerSet
                0x08021ae8                alisa_dashbackwardwithsword_right_layerSet1
                0x08021af8                alisa_dashbackwardwithsword_right_layerSet0
 .rodata        0x08021b08       0x38 spriteset_alisa_dashbackwardwithsword_up.thumb.o
                0x08021b08                alisa_dashbackwardwithsword_up
                0x08021b10                alisa_dashbackwardwithsword_up_layerSet
                0x08021b20                alisa_dashbackwardwithsword_up_layerSet1
                0x08021b30                alisa_dashbackwardwithsword_up_layerSet0
 .rodata        0x08021b40       0x68 spriteset_alisa_dashforwardwithsword_down.thumb.o
                0x08021b40                alisa_dashforwardwithsword_down
                0x08021b48                alisa_dashforwardwithsword_down_layerSet
                0x08021b68                alisa_dashforwardwithsword_down_layerSet3
                0x08021b78                alisa_dashforwardwithsword_down_layerSet2
                0x08021b88                alisa_dashforwardwithsword_down_layerSet1
                0x08021b98                alisa_dashforwardwithsword_down_layerSet0
 .rodata        0x08021ba8       0x68 spriteset_alisa_dashforwardwithsword_left.thumb.o
                0x08021ba8                alisa_dashforwardwithsword_left
                0x08021bb0                alisa_dashforwardwithsword_left_layerSet
                0x08021bd0                alisa_dashforwardwithsword_left_layerSet3
                0x08021be0                alisa_dashforwardwithsword_left_layerSet2
                0x08021bf0                alisa_dashforwardwithsword_left_layerSet1
                0x08021c00                alisa_dashforwardwithsword_left_layerSet0
 .rodata        0x08021c10       0x68 spriteset_alisa_dashforwardwithsword_right.thumb.o
                0x08021c10                alisa_dashforwardwithsword_right
                0x08021c18                alisa_dashforwardwithsword_right_layerSet
                0x08021c38                alisa_dashforwardwithsword_right_layerSet3
                0x08021c48                alisa_dashforwardwithsword_right_layerSet2
                0x08021c58                alisa_dashforwardwithsword_right_layerSet1
                0x08021c68                alisa_dashforwardwithsword_right_layerSet0
 .rodata        0x08021c78       0x68 spriteset_alisa_dashforwardwithsword_up.thumb.o
                0x08021c78                alisa_dashforwardwithsword_up
                0x08021c80                alisa_dashforwardwithsword_up_layerSet
                0x08021ca0                alisa_dashforwardwithsword_up_layerSet3
                0x08021cb0                alisa_dashforwardwithsword_up_layerSet2
                0x08021cc0                alisa_dashforwardwithsword_up_layerSet1
                0x08021cd0                alisa_dashforwardwithsword_up_layerSet0
 .rodata        0x08021ce0       0x20 spriteset_alisa_preparedash_down.thumb.o
                0x08021ce0                alisa_preparedash_down
                0x08021ce8                alisa_preparedash_down_layerSet
                0x08021cf0                alisa_preparedash_down_layerSet0
 .rodata        0x08021d00       0x20 spriteset_alisa_preparedash_left.thumb.o
                0x08021d00                alisa_preparedash_left
                0x08021d08                alisa_preparedash_left_layerSet
                0x08021d10                alisa_preparedash_left_layerSet0
 .rodata        0x08021d20       0x20 spriteset_alisa_preparedash_right.thumb.o
                0x08021d20                alisa_preparedash_right
                0x08021d28                alisa_preparedash_right_layerSet
                0x08021d30                alisa_preparedash_right_layerSet0
 .rodata        0x08021d40       0x20 spriteset_alisa_preparedash_up.thumb.o
                0x08021d40                alisa_preparedash_up
                0x08021d48                alisa_preparedash_up_layerSet
                0x08021d50                alisa_preparedash_up_layerSet0
 .rodata        0x08021d60       0x98 spriteset_alisa_runwithsword_down.thumb.o
                0x08021d60                alisa_runwithsword_down
                0x08021d68                alisa_runwithsword_down_layerSet
                0x08021d98                alisa_runwithsword_down_layerSet5
                0x08021da8                alisa_runwithsword_down_layerSet4
                0x08021db8                alisa_runwithsword_down_layerSet3
                0x08021dc8                alisa_runwithsword_down_layerSet2
                0x08021dd8                alisa_runwithsword_down_layerSet1
                0x08021de8                alisa_runwithsword_down_layerSet0
 .rodata        0x08021df8       0x98 spriteset_alisa_runwithsword_left.thumb.o
                0x08021df8                alisa_runwithsword_left
                0x08021e00                alisa_runwithsword_left_layerSet
                0x08021e30                alisa_runwithsword_left_layerSet5
                0x08021e40                alisa_runwithsword_left_layerSet4
                0x08021e50                alisa_runwithsword_left_layerSet3
                0x08021e60                alisa_runwithsword_left_layerSet2
                0x08021e70                alisa_runwithsword_left_layerSet1
                0x08021e80                alisa_runwithsword_left_layerSet0
 .rodata        0x08021e90       0x98 spriteset_alisa_runwithsword_right.thumb.o
                0x08021e90                alisa_runwithsword_right
                0x08021e98                alisa_runwithsword_right_layerSet
                0x08021ec8                alisa_runwithsword_right_layerSet5
                0x08021ed8                alisa_runwithsword_right_layerSet4
                0x08021ee8                alisa_runwithsword_right_layerSet3
                0x08021ef8                alisa_runwithsword_right_layerSet2
                0x08021f08                alisa_runwithsword_right_layerSet1
                0x08021f18                alisa_runwithsword_right_layerSet0
 .rodata        0x08021f28       0x98 spriteset_alisa_runwithsword_up.thumb.o
                0x08021f28                alisa_runwithsword_up
                0x08021f30                alisa_runwithsword_up_layerSet
                0x08021f60                alisa_runwithsword_up_layerSet5
                0x08021f70                alisa_runwithsword_up_layerSet4
                0x08021f80                alisa_runwithsword_up_layerSet3
                0x08021f90                alisa_runwithsword_up_layerSet2
                0x08021fa0                alisa_runwithsword_up_layerSet1
                0x08021fb0                alisa_runwithsword_up_layerSet0
 .rodata        0x08021fc0       0x20 spriteset_alisa_standwithsword_down.thumb.o
                0x08021fc0                alisa_standwithsword_down
                0x08021fc8                alisa_standwithsword_down_layerSet
                0x08021fd0                alisa_standwithsword_down_layerSet0
 .rodata        0x08021fe0       0x20 spriteset_alisa_standwithsword_left.thumb.o
                0x08021fe0                alisa_standwithsword_left
                0x08021fe8                alisa_standwithsword_left_layerSet
                0x08021ff0                alisa_standwithsword_left_layerSet0
 .rodata        0x08022000       0x20 spriteset_alisa_standwithsword_right.thumb.o
                0x08022000                alisa_standwithsword_right
                0x08022008                alisa_standwithsword_right_layerSet
                0x08022010                alisa_standwithsword_right_layerSet0
 .rodata        0x08022020       0x20 spriteset_alisa_standwithsword_up.thumb.o
                0x08022020                alisa_standwithsword_up
                0x08022028                alisa_standwithsword_up_layerSet
                0x08022030                alisa_standwithsword_up_layerSet0
 .rodata        0x08022040       0x18 spriteset_alisa_stunnedwithsword_down.thumb.o
                0x08022040                alisa_stunnedwithsword_down
                0x08022048                alisa_stunnedwithsword_down_layerSet
                0x08022050                alisa_stunnedwithsword_down_layerSet0
 .rodata        0x08022058       0x18 spriteset_alisa_stunnedwithsword_left.thumb.o
                0x08022058                alisa_stunnedwithsword_left
                0x08022060                alisa_stunnedwithsword_left_layerSet
                0x08022068                alisa_stunnedwithsword_left_layerSet0
 .rodata        0x08022070       0x18 spriteset_alisa_stunnedwithsword_right.thumb.o
                0x08022070                alisa_stunnedwithsword_right
                0x08022078                alisa_stunnedwithsword_right_layerSet
                0x08022080                alisa_stunnedwithsword_right_layerSet0
 .rodata        0x08022088       0x18 spriteset_alisa_stunnedwithsword_up.thumb.o
                0x08022088                alisa_stunnedwithsword_up
                0x08022090                alisa_stunnedwithsword_up_layerSet
                0x08022098                alisa_stunnedwithsword_up_layerSet0
 .rodata        0x080220a0       0x68 spriteset_alisa_swordslash_down.thumb.o
                0x080220a0                alisa_swordslash_down
                0x080220a8                alisa_swordslash_down_layerSet
                0x080220c8                alisa_swordslash_down_layerSet3
                0x080220d8                alisa_swordslash_down_layerSet2
                0x080220e8                alisa_swordslash_down_layerSet1
                0x080220f8                alisa_swordslash_down_layerSet0
 .rodata        0x08022108       0x68 spriteset_alisa_swordslash_left.thumb.o
                0x08022108                alisa_swordslash_left
                0x08022110                alisa_swordslash_left_layerSet
                0x08022130                alisa_swordslash_left_layerSet3
                0x08022140                alisa_swordslash_left_layerSet2
                0x08022150                alisa_swordslash_left_layerSet1
                0x08022160                alisa_swordslash_left_layerSet0
 .rodata        0x08022170       0x68 spriteset_alisa_swordslash_right.thumb.o
                0x08022170                alisa_swordslash_right
                0x08022178                alisa_swordslash_right_layerSet
                0x08022198                alisa_swordslash_right_layerSet3
                0x080221a8                alisa_swordslash_right_layerSet2
                0x080221b8                alisa_swordslash_right_layerSet1
                0x080221c8                alisa_swordslash_right_layerSet0
 .rodata        0x080221d8       0x68 spriteset_alisa_swordslash_up.thumb.o
                0x080221d8                alisa_swordslash_up
                0x080221e0                alisa_swordslash_up_layerSet
                0x08022200                alisa_swordslash_up_layerSet3
                0x08022210                alisa_swordslash_up_layerSet2
                0x08022220                alisa_swordslash_up_layerSet1
                0x08022230                alisa_swordslash_up_layerSet0
 .rodata        0x08022240       0x18 spriteset_character_stand_left.thumb.o
                0x08022240                character_stand_left
                0x08022248                character_stand_left_layerSet
                0x08022250                character_stand_left_layerSet0
 .rodata        0x08022258       0x18 spriteset_character_stand_right.thumb.o
                0x08022258                character_stand_right
                0x08022260                character_stand_right_layerSet
                0x08022268                character_stand_right_layerSet0
 .rodata        0x08022270       0x48 spriteset_character_walk_left.thumb.o
                0x08022270                character_walk_left
                0x08022278                character_walk_left_layerSet
                0x08022298                character_walk_left_layerSet3
                0x080222a0                character_walk_left_layerSet2
                0x080222a8                character_walk_left_layerSet1
                0x080222b0                character_walk_left_layerSet0
 .rodata        0x080222b8       0x48 spriteset_character_walk_right.thumb.o
                0x080222b8                character_walk_right
                0x080222c0                character_walk_right_layerSet
                0x080222e0                character_walk_right_layerSet3
                0x080222e8                character_walk_right_layerSet2
                0x080222f0                character_walk_right_layerSet1
                0x080222f8                character_walk_right_layerSet0
 .rodata        0x08022300       0x18 spriteset_crow.thumb.o
                0x08022300                crow_standing
                0x08022308                crow_layerSet
                0x08022310                crow_layerSet0
 .rodata        0x08022318       0x28 spriteset_ghosltyman.thumb.o
                0x08022318                ghosltymantransition
                0x08022320                ghosltyman
                0x08022328                ghosltymantransition_layerSet
                0x08022330                ghosltyman_layerSet
                0x08022338                ghosltyman_layerSet0
 .rodata        0x08022340       0x88 spriteset_ghosthand_appear.thumb.o
                0x08022340                ghosthand_appear
                0x08022348                ghosthand_appear_layerSet
                0x08022378                ghosthand_appear_layerSet5
                0x08022380                ghosthand_appear_layerSet4
                0x080223a0                ghosthand_appear_layerSet3
                0x080223b0                ghosthand_appear_layerSet2
                0x080223b8                ghosthand_appear_layerSet1
                0x080223c0                ghosthand_appear_layerSet0
 .rodata        0x080223c8       0x18 spriteset_ghosthand_hidden.thumb.o
                0x080223c8                ghosthand_hidden
                0x080223d0                ghosthand_hidden_layerSet
                0x080223d8                ghosthand_hidden_layerSet0
 .rodata        0x080223e0       0x20 spriteset_ghostlyman_floating.thumb.o
                0x080223e0                ghostlyman_floating
                0x080223e8                ghostlyman_floating_layerSet
                0x080223f0                ghostlyman_floating_layerSet0
 .rodata        0x08022400      0x148 spriteset_werewolf_run_down.thumb.o
                0x08022400                werewolf_run_down
                0x08022408                werewolf_run_down_layerSet
                0x08022448                werewolf_run_down_layerSet7
                0x08022468                werewolf_run_down_layerSet6
                0x08022488                werewolf_run_down_layerSet5
                0x080224a8                werewolf_run_down_layerSet4
                0x080224c8                werewolf_run_down_layerSet3
                0x080224e8                werewolf_run_down_layerSet2
                0x08022508                werewolf_run_down_layerSet1
                0x08022528                werewolf_run_down_layerSet0
 .rodata        0x08022548      0x148 spriteset_werewolf_run_left.thumb.o
                0x08022548                werewolf_run_left
                0x08022550                werewolf_run_left_layerSet
                0x08022590                werewolf_run_left_layerSet7
                0x080225b0                werewolf_run_left_layerSet6
                0x080225d0                werewolf_run_left_layerSet5
                0x080225f0                werewolf_run_left_layerSet4
                0x08022610                werewolf_run_left_layerSet3
                0x08022630                werewolf_run_left_layerSet2
                0x08022650                werewolf_run_left_layerSet1
                0x08022670                werewolf_run_left_layerSet0
 .rodata        0x08022690      0x148 spriteset_werewolf_run_right.thumb.o
                0x08022690                werewolf_run_right
                0x08022698                werewolf_run_right_layerSet
                0x080226d8                werewolf_run_right_layerSet7
                0x080226f8                werewolf_run_right_layerSet6
                0x08022718                werewolf_run_right_layerSet5
                0x08022738                werewolf_run_right_layerSet4
                0x08022758                werewolf_run_right_layerSet3
                0x08022778                werewolf_run_right_layerSet2
                0x08022798                werewolf_run_right_layerSet1
                0x080227b8                werewolf_run_right_layerSet0
 .rodata        0x080227d8      0x148 spriteset_werewolf_run_up.thumb.o
                0x080227d8                werewolf_run_up
                0x080227e0                werewolf_run_up_layerSet
                0x08022820                werewolf_run_up_layerSet7
                0x08022840                werewolf_run_up_layerSet6
                0x08022860                werewolf_run_up_layerSet5
                0x08022880                werewolf_run_up_layerSet4
                0x080228a0                werewolf_run_up_layerSet3
                0x080228c0                werewolf_run_up_layerSet2
                0x080228e0                werewolf_run_up_layerSet1
                0x08022900                werewolf_run_up_layerSet0
 .rodata        0x08022920       0xa8 spriteset_werewolf_stand_down.thumb.o
                0x08022920                werewolf_stand_down
                0x08022928                werewolf_stand_down_layerSet
                0x08022948                werewolf_stand_down_layerSet3
                0x08022968                werewolf_stand_down_layerSet2
                0x08022988                werewolf_stand_down_layerSet1
                0x080229a8                werewolf_stand_down_layerSet0
 .rodata        0x080229c8       0xa8 spriteset_werewolf_stand_left.thumb.o
                0x080229c8                werewolf_stand_left
                0x080229d0                werewolf_stand_left_layerSet
                0x080229f0                werewolf_stand_left_layerSet3
                0x08022a10                werewolf_stand_left_layerSet2
                0x08022a30                werewolf_stand_left_layerSet1
                0x08022a50                werewolf_stand_left_layerSet0
 .rodata        0x08022a70       0xa8 spriteset_werewolf_stand_right.thumb.o
                0x08022a70                werewolf_stand_right
                0x08022a78                werewolf_stand_right_layerSet
                0x08022a98                werewolf_stand_right_layerSet3
                0x08022ab8                werewolf_stand_right_layerSet2
                0x08022ad8                werewolf_stand_right_layerSet1
                0x08022af8                werewolf_stand_right_layerSet0
 .rodata        0x08022b18       0xa8 spriteset_werewolf_stand_up.thumb.o
                0x08022b18                werewolf_stand_up
                0x08022b20                werewolf_stand_up_layerSet
                0x08022b40                werewolf_stand_up_layerSet3
                0x08022b60                werewolf_stand_up_layerSet2
                0x08022b80                werewolf_stand_up_layerSet1
                0x08022ba0                werewolf_stand_up_layerSet0
 .rodata        0x08022bc0       0x68 spriteset_zombie_attack_down.thumb.o
                0x08022bc0                zombie_attack_down
                0x08022bc8                zombie_attack_down_layerSet
                0x08022bf8                zombie_attack_down_layerSet5
                0x08022c00                zombie_attack_down_layerSet4
                0x08022c08                zombie_attack_down_layerSet3
                0x08022c10                zombie_attack_down_layerSet2
                0x08022c18                zombie_attack_down_layerSet1
                0x08022c20                zombie_attack_down_layerSet0
 .rodata        0x08022c28       0x68 spriteset_zombie_attack_left.thumb.o
                0x08022c28                zombie_attack_left
                0x08022c30                zombie_attack_left_layerSet
                0x08022c60                zombie_attack_left_layerSet5
                0x08022c68                zombie_attack_left_layerSet4
                0x08022c70                zombie_attack_left_layerSet3
                0x08022c78                zombie_attack_left_layerSet2
                0x08022c80                zombie_attack_left_layerSet1
                0x08022c88                zombie_attack_left_layerSet0
 .rodata        0x08022c90       0x68 spriteset_zombie_attack_right.thumb.o
                0x08022c90                zombie_attack_right
                0x08022c98                zombie_attack_right_layerSet
                0x08022cc8                zombie_attack_right_layerSet5
                0x08022cd0                zombie_attack_right_layerSet4
                0x08022cd8                zombie_attack_right_layerSet3
                0x08022ce0                zombie_attack_right_layerSet2
                0x08022ce8                zombie_attack_right_layerSet1
                0x08022cf0                zombie_attack_right_layerSet0
 .rodata        0x08022cf8       0x68 spriteset_zombie_attack_up.thumb.o
                0x08022cf8                zombie_attack_up
                0x08022d00                zombie_attack_up_layerSet
                0x08022d30                zombie_attack_up_layerSet5
                0x08022d38                zombie_attack_up_layerSet4
                0x08022d40                zombie_attack_up_layerSet3
                0x08022d48                zombie_attack_up_layerSet2
                0x08022d50                zombie_attack_up_layerSet1
                0x08022d58                zombie_attack_up_layerSet0
 .rodata        0x08022d60       0x48 spriteset_zombie_chase_down.thumb.o
                0x08022d60                zombie_chase_down
                0x08022d68                zombie_chase_down_layerSet
                0x08022d88                zombie_chase_down_layerSet3
                0x08022d90                zombie_chase_down_layerSet2
                0x08022d98                zombie_chase_down_layerSet1
                0x08022da0                zombie_chase_down_layerSet0
 .rodata        0x08022da8       0x48 spriteset_zombie_chase_left.thumb.o
                0x08022da8                zombie_chase_left
                0x08022db0                zombie_chase_left_layerSet
                0x08022dd0                zombie_chase_left_layerSet3
                0x08022dd8                zombie_chase_left_layerSet2
                0x08022de0                zombie_chase_left_layerSet1
                0x08022de8                zombie_chase_left_layerSet0
 .rodata        0x08022df0       0x48 spriteset_zombie_chase_right.thumb.o
                0x08022df0                zombie_chase_right
                0x08022df8                zombie_chase_right_layerSet
                0x08022e18                zombie_chase_right_layerSet3
                0x08022e20                zombie_chase_right_layerSet2
                0x08022e28                zombie_chase_right_layerSet1
                0x08022e30                zombie_chase_right_layerSet0
 .rodata        0x08022e38       0x48 spriteset_zombie_chase_up.thumb.o
                0x08022e38                zombie_chase_up
                0x08022e40                zombie_chase_up_layerSet
                0x08022e60                zombie_chase_up_layerSet3
                0x08022e68                zombie_chase_up_layerSet2
                0x08022e70                zombie_chase_up_layerSet1
                0x08022e78                zombie_chase_up_layerSet0
 .rodata        0x08022e80       0x18 spriteset_zombie_stunned_down.thumb.o
                0x08022e80                zombie_stunned_down
                0x08022e88                zombie_stunned_down_layerSet
                0x08022e90                zombie_stunned_down_layerSet0
 .rodata        0x08022e98       0x18 spriteset_zombie_stunned_left.thumb.o
                0x08022e98                zombie_stunned_left
                0x08022ea0                zombie_stunned_left_layerSet
                0x08022ea8                zombie_stunned_left_layerSet0
 .rodata        0x08022eb0       0x18 spriteset_zombie_stunned_right.thumb.o
                0x08022eb0                zombie_stunned_right
                0x08022eb8                zombie_stunned_right_layerSet
                0x08022ec0                zombie_stunned_right_layerSet0
 .rodata        0x08022ec8       0x18 spriteset_zombie_stunned_up.thumb.o
                0x08022ec8                zombie_stunned_up
                0x08022ed0                zombie_stunned_up_layerSet
                0x08022ed8                zombie_stunned_up_layerSet0
 .rodata        0x08022ee0       0x48 spriteset_zombie_walk_down.thumb.o
                0x08022ee0                zombie_walk_down
                0x08022ee8                zombie_walk_down_layerSet
                0x08022f08                zombie_walk_down_layerSet3
                0x08022f10                zombie_walk_down_layerSet2
                0x08022f18                zombie_walk_down_layerSet1
                0x08022f20                zombie_walk_down_layerSet0
 .rodata        0x08022f28       0x48 spriteset_zombie_walk_left.thumb.o
                0x08022f28                zombie_walk_left
                0x08022f30                zombie_walk_left_layerSet
                0x08022f50                zombie_walk_left_layerSet3
                0x08022f58                zombie_walk_left_layerSet2
                0x08022f60                zombie_walk_left_layerSet1
                0x08022f68                zombie_walk_left_layerSet0
 .rodata        0x08022f70       0x48 spriteset_zombie_walk_right.thumb.o
                0x08022f70                zombie_walk_right
                0x08022f78                zombie_walk_right_layerSet
                0x08022f98                zombie_walk_right_layerSet3
                0x08022fa0                zombie_walk_right_layerSet2
                0x08022fa8                zombie_walk_right_layerSet1
                0x08022fb0                zombie_walk_right_layerSet0
 .rodata        0x08022fb8       0x48 spriteset_zombie_walk_up.thumb.o
                0x08022fb8                zombie_walk_up
                0x08022fc0                zombie_walk_up_layerSet
                0x08022fe0                zombie_walk_up_layerSet3
                0x08022fe8                zombie_walk_up_layerSet2
                0x08022ff0                zombie_walk_up_layerSet1
                0x08022ff8                zombie_walk_up_layerSet0
 .rodata        0x08023000      0x520 tile_map_graveyard.o
                0x08023000                tile_stonelantern
                0x08023100                tile_shrine_walkway
                0x08023300                tile_gravestone
                0x080234c0                pallette_stonelantern
                0x080234e0                pallette_shrine_walkway
                0x08023500                pallette_gravestone
 .rodata        0x08023520      0x880 tile_map_shrine.o
                0x08023520                tile_shrine_roof
                0x080235a0                tile_shrine_wall
                0x080239a0                tile_shrine_flloorsupport
                0x08023aa0                tile_shrine_flloor
                0x08023ca0                tile_shrine_stairs
                0x08023d20                pallette_shrine_wall
                0x08023d40                pallette_shrine_flloorsupport
                0x08023d60                pallette_shrine_flloor
                0x08023d80                pallette_shrine_stairs
 *all.rodata*(*)
 *(.roda)
 *(.rodata.*)
 .rodata.str1.4
                0x08023da0       0x15 CharacterAlisa.thumb.o
 *fill*         0x08023db5        0x3 ff
 .rodata.str1.4
                0x08023db8       0x31 CharacterAlisaController.thumb.o
 *fill*         0x08023de9        0x3 ff
 .rodata.str1.4
                0x08023dec        0x8 CharacterWerewolfController.thumb.o
 .rodata.str1.4
                0x08023df4        0xe CharacterZombieController.thumb.o
 *fill*         0x08023e02        0x2 ff
 .rodata.str1.4
                0x08023e04        0xc ManagerBG.thumb.o
                                  0xb (size before relaxing)
 *(.gnu.linkonce.r*)
                0x08023e10                . = ALIGN (0x4)

.ARM.extab
 *(.ARM.extab* .gnu.linkonce.armextab.*)
                0x08023e10                __exidx_start = .

.ARM.exidx
 *(.ARM.exidx* .gnu.linkonce.armexidx.*)
                0x08023e10                __exidx_end = .

.ctors          0x08023e10        0x0
 *crtbegin.o(.ctors)
 *(EXCLUDE_FILE(*crtend.o) .ctors)
 *(SORT(.ctors.*))
 *(.ctors)
                0x08023e10                . = ALIGN (0x4)

.dtors          0x08023e10        0x0
 *crtbegin.o(.dtors)
 *(EXCLUDE_FILE(*crtend.o) .dtors)
 *(SORT(.dtors.*))
 *(.dtors)
                0x08023e10                . = ALIGN (0x4)

.eh_frame       0x08023e10        0x4
 *(.eh_frame)
 .eh_frame      0x08023e10        0x0 c:/devkitpro/devkitarm/bin/../lib/gcc/arm-none-eabi/7.1.0/crtbegin.o
 .eh_frame      0x08023e10        0x4 c:/devkitpro/devkitarm/bin/../lib/gcc/arm-none-eabi/7.1.0/crtend.o
                0x08023e14                . = ALIGN (0x4)

.rel.dyn        0x08023e14        0x0
 .rel.iplt      0x08023e14        0x0 c:/devkitpro/devkitarm/bin/../lib/gcc/arm-none-eabi/7.1.0/../../../../arm-none-eabi/lib/gba_crt0.o

.gcc_except_table
                0x08023e14        0x0
 *(.gcc_except_table)
                0x08023e14                . = ALIGN (0x4)
                0x08023e14                __iwram_lma = .

.iwram          0x03000000        0x0 load address 0x08023e14
                0x03000000                __iwram_start__ = ABSOLUTE (.)
 *(.iwram)
 *iwram.*(.text)
                0x03000000                . = ALIGN (0x4)
                0x03000000                __iwram_end__ = ABSOLUTE (.)
                0x08023e14                __data_lma = (__iwram_lma + SIZEOF (.iwram))

.bss            0x03000000      0x9bc
                0x03000000                __bss_start = ABSOLUTE (.)
                0x03000000                __bss_start__ = ABSOLUTE (.)
 *(.dynbss)
 *(.gnu.linkonce.b*)
 *(.bss*)
 .bss.completed.6484
                0x03000000        0x1 c:/devkitpro/devkitarm/bin/../lib/gcc/arm-none-eabi/7.1.0/crtbegin.o
 *fill*         0x03000001        0x3 
 .bss.object.6489
                0x03000004       0x18 c:/devkitpro/devkitarm/bin/../lib/gcc/arm-none-eabi/7.1.0/crtbegin.o
 .bss           0x0300001c        0x4 ManagerCharacters.thumb.o
                0x0300001c                mchar_vreference
 .bss           0x03000020        0x4 ManagerOAM.thumb.o
                0x03000020                moam_vreference
 .bss           0x03000024        0xc ManagerPrinter.thumb.o
                0x03000024                mprinter_lineNumber
                0x03000028                mprinter_lineIndex
                0x0300002c                delay
 .bss           0x03000030        0x4 ManagerScrDisplay.thumb.o
                0x03000030                mscr_vscrRef
 .bss           0x03000034        0xc ManagerVram.thumb.o
                0x03000034                sprite_memory_bank
                0x03000038                palette_memory_bank
                0x0300003c                BG_memory_bank
 .bss           0x03000040        0x8 MapCommon.thumb.o
                0x03000040                current
                0x03000044                blendVal
 .bss.__malloc_current_mallinfo
                0x03000048       0x28 c:/devkitpro/devkitarm/bin/../lib/gcc/arm-none-eabi/7.1.0/../../../../arm-none-eabi/lib\libg.a(lib_a-mallocr.o)
                0x03000048                __malloc_current_mallinfo
 .bss.__malloc_max_sbrked_mem
                0x03000070        0x4 c:/devkitpro/devkitarm/bin/../lib/gcc/arm-none-eabi/7.1.0/../../../../arm-none-eabi/lib\libg.a(lib_a-mallocr.o)
                0x03000070                __malloc_max_sbrked_mem
 .bss.__malloc_max_total_mem
                0x03000074        0x4 c:/devkitpro/devkitarm/bin/../lib/gcc/arm-none-eabi/7.1.0/../../../../arm-none-eabi/lib\libg.a(lib_a-mallocr.o)
                0x03000074                __malloc_max_total_mem
 .bss.__malloc_top_pad
                0x03000078        0x4 c:/devkitpro/devkitarm/bin/../lib/gcc/arm-none-eabi/7.1.0/../../../../arm-none-eabi/lib\libg.a(lib_a-mallocr.o)
                0x03000078                __malloc_top_pad
 .bss.heap_start.5814
                0x0300007c        0x4 c:/devkitpro/devkitarm/bin/../lib/gcc/arm-none-eabi/7.1.0/../../../../arm-none-eabi/lib\libsysbase.a(sbrk.o)
 .bss.fake_heap_end
                0x03000080        0x4 c:/devkitpro/devkitarm/bin/../lib/gcc/arm-none-eabi/7.1.0/../../../../arm-none-eabi/lib\libsysbase.a(malloc_vars.o)
                0x03000080                fake_heap_end
 .bss.fake_heap_start
                0x03000084        0x4 c:/devkitpro/devkitarm/bin/../lib/gcc/arm-none-eabi/7.1.0/../../../../arm-none-eabi/lib\libsysbase.a(malloc_vars.o)
                0x03000084                fake_heap_start
 .bss.__syscalls
                0x03000088       0x38 c:/devkitpro/devkitarm/bin/../lib/gcc/arm-none-eabi/7.1.0/../../../../arm-none-eabi/lib\libsysbase.a(syscall_support.o)
                0x03000088                __syscalls
 *(COMMON)
 COMMON         0x030000c0      0x800 ManagerPrinter.thumb.o
                0x030000c0                mprinter_textEntry
 COMMON         0x030008c0       0x84 ManagerSound.thumb.o
                0x030008c0                soundChannels
                0x03000938                soundBuffer
 COMMON         0x03000944       0x78 ManagerVram.thumb.o
                0x03000944                paletteIdCollection
                0x03000980                idCollection
                0x030009bc                . = ALIGN (0x4)
                0x030009bc                __bss_end__ = ABSOLUTE (.)

.data           0x030009bc      0xadc load address 0x08023e14
                0x030009bc                __data_start__ = ABSOLUTE (.)
 *(.data)
 .data          0x030009bc        0x4 CharacterCrow.thumb.o
                0x030009bc                crow_actions
 .data          0x030009c0        0xc CharacterWerewolf.thumb.o
                0x030009c0                werewolf_actions
 .data          0x030009cc       0x10 CharacterZombie.thumb.o
                0x030009cc                zombie_actions
 .data          0x030009dc       0xe0 SpriteSetAlisa.thumb.o
                0x030009dc                alisaDashBackwardWithSwordSet
                0x030009fc                alisaPrepareDashSet
                0x03000a1c                alisaDashForwardSet
                0x03000a3c                alisaStunnedSet
                0x03000a5c                alisaSlashSet
                0x03000a7c                alisaRunSet
                0x03000a9c                alisaStandWithSwordSet
 .data          0x03000abc       0x40 SpriteSetBoy.thumb.o
                0x03000abc                boyStandSet
                0x03000adc                boyWalkSet
 .data          0x03000afc       0x40 SpriteSetWerewolf.thumb.o
                0x03000afc                werewolfStand
                0x03000b1c                werewolfRun
 .data          0x03000b3c       0x80 SpriteSetZombie.thumb.o
                0x03000b3c                zombieStunned
                0x03000b5c                zombieChase
                0x03000b7c                zombieAttack
                0x03000b9c                zombieWalk
 .data          0x03000bbc       0x20 map_graveyard.o
                0x03000bbc                mapentryset_map_graveyard
                0x03000bc4                pallette_map_graveyard
                0x03000bd0                tileset_map_graveyard
 .data          0x03000bdc       0x3c map_shrine.o
                0x03000bdc                mapentryset_map_shrine
                0x03000be4                pallette_map_shrine
                0x03000bfc                tileset_map_shrine
 *(.data.*)
 .data.__malloc_av_
                0x03000c18      0x408 c:/devkitpro/devkitarm/bin/../lib/gcc/arm-none-eabi/7.1.0/../../../../arm-none-eabi/lib\libg.a(lib_a-mallocr.o)
                0x03000c18                __malloc_av_
 .data.__malloc_sbrk_base
                0x03001020        0x4 c:/devkitpro/devkitarm/bin/../lib/gcc/arm-none-eabi/7.1.0/../../../../arm-none-eabi/lib\libg.a(lib_a-mallocr.o)
                0x03001020                __malloc_sbrk_base
 .data.__malloc_trim_threshold
                0x03001024        0x4 c:/devkitpro/devkitarm/bin/../lib/gcc/arm-none-eabi/7.1.0/../../../../arm-none-eabi/lib\libg.a(lib_a-mallocr.o)
                0x03001024                __malloc_trim_threshold
 .data.__malloc_lock_object
                0x03001028        0xc c:/devkitpro/devkitarm/bin/../lib/gcc/arm-none-eabi/7.1.0/../../../../arm-none-eabi/lib\libg.a(lib_a-mlock.o)
 .data._impure_ptr
                0x03001034        0x4 c:/devkitpro/devkitarm/bin/../lib/gcc/arm-none-eabi/7.1.0/../../../../arm-none-eabi/lib\libg.a(lib_a-impure.o)
                0x03001034                _impure_ptr
 .data.impure_data
                0x03001038      0x460 c:/devkitpro/devkitarm/bin/../lib/gcc/arm-none-eabi/7.1.0/../../../../arm-none-eabi/lib\libg.a(lib_a-impure.o)
 *(.gnu.linkonce.d*)
                0x03001498                . = ALIGN (0x4)
                0x080248f0                __preinit_lma = (__data_lma + SIZEOF (.data))

.igot.plt       0x03001498        0x0 load address 0x080248f0
 .igot.plt      0x03001498        0x0 c:/devkitpro/devkitarm/bin/../lib/gcc/arm-none-eabi/7.1.0/../../../../arm-none-eabi/lib/gba_crt0.o

.tm_clone_table
                0x03001498        0x0 load address 0x080248f0
 .tm_clone_table
                0x03001498        0x0 c:/devkitpro/devkitarm/bin/../lib/gcc/arm-none-eabi/7.1.0/crtbegin.o
 .tm_clone_table
                0x03001498        0x0 c:/devkitpro/devkitarm/bin/../lib/gcc/arm-none-eabi/7.1.0/crtend.o

.preinit_array  0x03001498        0x0 load address 0x080248f0
                0x03001498                __preinit_array_start = ABSOLUTE (.)
 *(.preinit_array)
                0x03001498                __preinit_array_end = ABSOLUTE (.)
                0x080248f0                __init_lma = (__preinit_lma + SIZEOF (.preinit_array))

.init_array     0x03001498        0x4 load address 0x080248f0
                0x03001498                __init_array_start = ABSOLUTE (.)
 *(SORT(.init_array.*))
 *(.init_array)
 .init_array    0x03001498        0x4 c:/devkitpro/devkitarm/bin/../lib/gcc/arm-none-eabi/7.1.0/crtbegin.o
                0x0300149c                __init_array_end = ABSOLUTE (.)
                0x080248f4                __fini_lma = (__init_lma + SIZEOF (.init_array))

.fini_array     0x0300149c        0x4 load address 0x080248f4
                0x0300149c                __fini_array_start = ABSOLUTE (.)
 *(SORT(.fini_array.*))
 *(.fini_array)
 .fini_array    0x0300149c        0x4 c:/devkitpro/devkitarm/bin/../lib/gcc/arm-none-eabi/7.1.0/crtbegin.o
                0x030014a0                __fini_array_end = ABSOLUTE (.)
                0x080248f8                __jcr_lma = (__fini_lma + SIZEOF (.fini_array))

.jcr            0x030014a0        0x0 load address 0x080248f8
 *(.jcr)
                0x030014a0                __data_end__ = ABSOLUTE (.)
                0x080248f8                __iwram_overlay_lma = (__jcr_lma + SIZEOF (.jcr))
                0x030014a0                __iwram_overlay_start = .

.iwram0         0x030014a0        0x0 load address 0x080248f8
 *(.iwram0)
                0x030014a0                . = ALIGN (0x4)
                0x080248f8                PROVIDE (__load_start_iwram0, LOADADDR (.iwram0))
                0x080248f8                PROVIDE (__load_stop_iwram0, (LOADADDR (.iwram0) + SIZEOF (.iwram0)))

.iwram1         0x030014a0        0x0
 *(.iwram1)
                0x030014a0                . = ALIGN (0x4)
                [!provide]                PROVIDE (__load_start_iwram1, LOADADDR (.iwram1))
                [!provide]                PROVIDE (__load_stop_iwram1, (LOADADDR (.iwram1) + SIZEOF (.iwram1)))

.iwram2         0x030014a0        0x0
 *(.iwram2)
                0x030014a0                . = ALIGN (0x4)
                [!provide]                PROVIDE (__load_start_iwram2, LOADADDR (.iwram2))
                [!provide]                PROVIDE (__load_stop_iwram2, (LOADADDR (.iwram2) + SIZEOF (.iwram2)))

.iwram3         0x030014a0        0x0
 *(.iwram3)
                0x030014a0                . = ALIGN (0x4)
                [!provide]                PROVIDE (__load_start_iwram3, LOADADDR (.iwram3))
                [!provide]                PROVIDE (__load_stop_iwram3, (LOADADDR (.iwram3) + SIZEOF (.iwram3)))

.iwram4         0x030014a0        0x0
 *(.iwram4)
                0x030014a0                . = ALIGN (0x4)
                [!provide]                PROVIDE (__load_start_iwram4, LOADADDR (.iwram4))
                [!provide]                PROVIDE (__load_stop_iwram4, (LOADADDR (.iwram4) + SIZEOF (.iwram4)))

.iwram5         0x030014a0        0x0
 *(.iwram5)
                0x030014a0                . = ALIGN (0x4)
                [!provide]                PROVIDE (__load_start_iwram5, LOADADDR (.iwram5))
                [!provide]                PROVIDE (__load_stop_iwram5, (LOADADDR (.iwram5) + SIZEOF (.iwram5)))

.iwram6         0x030014a0        0x0
 *(.iwram6)
                0x030014a0                . = ALIGN (0x4)
                [!provide]                PROVIDE (__load_start_iwram6, LOADADDR (.iwram6))
                [!provide]                PROVIDE (__load_stop_iwram6, (LOADADDR (.iwram6) + SIZEOF (.iwram6)))

.iwram7         0x030014a0        0x0
 *(.iwram7)
                0x030014a0                . = ALIGN (0x4)
                [!provide]                PROVIDE (__load_start_iwram7, LOADADDR (.iwram7))
                [!provide]                PROVIDE (__load_stop_iwram7, (LOADADDR (.iwram7) + SIZEOF (.iwram7)))

.iwram8         0x030014a0        0x0
 *(.iwram8)
                0x030014a0                . = ALIGN (0x4)
                [!provide]                PROVIDE (__load_start_iwram8, LOADADDR (.iwram8))
                [!provide]                PROVIDE (__load_stop_iwram8, (LOADADDR (.iwram8) + SIZEOF (.iwram8)))

.iwram9         0x030014a0        0x0
 *(.iwram9)
                0x030014a0                . = ALIGN (0x4)
                [!provide]                PROVIDE (__load_start_iwram9, LOADADDR (.iwram9))
                [!provide]                PROVIDE (__load_stop_iwram9, (LOADADDR (.iwram9) + SIZEOF (.iwram9)))
                0x030014a0                __iwram_overlay_end = .
                0x080248f8                __ewram_lma = (__iwram_overlay_lma + (__iwram_overlay_end - __iwram_overlay_start))
                0x030014a0                __iheap_start = .
                0x02000000                __ewram_start = ORIGIN (ewram)

.ewram          0x02000000        0x0 load address 0x080248f8
 *(.ewram)
                0x02000000                . = ALIGN (0x4)
                0x02000000                __ewram_end = ABSOLUTE (.)
                0x080248f8                __pad_lma = (__ewram_lma + SIZEOF (.ewram))

.sbss           0x02000000        0x0
                0x02000000                __sbss_start__ = ABSOLUTE (.)
 *(.sbss)
                0x02000000                . = ALIGN (0x4)
                0x02000000                __sbss_end__ = ABSOLUTE (.)
                0x02000000                __end__ = ABSOLUTE (.)
                0x02000000                __eheap_start = ABSOLUTE (.)

.pad            0x02000000        0x8 load address 0x080248f8
                0x02000000        0x4 LONG 0x52416b64
                0x02000004        0x4 LONG 0x4d
                0x02000008                . = ALIGN (0x4)
                0x08024900                __rom_end__ = (__pad_lma + SIZEOF (.pad))

.stab
 *(.stab)

.stabstr
 *(.stabstr)

.stab.excl
 *(.stab.excl)

.stab.exclstr
 *(.stab.exclstr)

.stab.index
 *(.stab.index)

.stab.indexstr
 *(.stab.indexstr)

.comment        0x00000000       0x22
 *(.comment)
 .comment       0x00000000       0x22 c:/devkitpro/devkitarm/bin/../lib/gcc/arm-none-eabi/7.1.0/crtbegin.o
                                 0x23 (size before relaxing)
 .comment       0x00000022       0x23 ActionRpg.thumb.o
 .comment       0x00000022       0x23 CharacterAlisa.thumb.o
 .comment       0x00000022       0x23 CharacterAlisaController.thumb.o
 .comment       0x00000022       0x23 CharacterBoy.thumb.o
 .comment       0x00000022       0x23 CharacterBoyController.thumb.o
 .comment       0x00000022       0x23 CharacterCommon.thumb.o
 .comment       0x00000022       0x23 CharacterCrow.thumb.o
 .comment       0x00000022       0x23 CharacterCrowController.thumb.o
 .comment       0x00000022       0x23 CharacterGhostMan.thumb.o
 .comment       0x00000022       0x23 CharacterGhostlyHand.thumb.o
 .comment       0x00000022       0x23 CharacterGhostlyHandController.thumb.o
 .comment       0x00000022       0x23 CharacterGhostmanController.thumb.o
 .comment       0x00000022       0x23 CharacterNameless.thumb.o
 .comment       0x00000022       0x23 CharacterNamelessController.thumb.o
 .comment       0x00000022       0x23 CharacterType.thumb.o
 .comment       0x00000022       0x23 CharacterWerewolf.thumb.o
 .comment       0x00000022       0x23 CharacterWerewolfController.thumb.o
 .comment       0x00000022       0x23 CharacterZombie.thumb.o
 .comment       0x00000022       0x23 CharacterZombieController.thumb.o
 .comment       0x00000022       0x23 GBATimer.thumb.o
 .comment       0x00000022       0x23 ManagerBG.thumb.o
 .comment       0x00000022       0x23 ManagerCharacters.thumb.o
 .comment       0x00000022       0x23 ManagerCharactersActionEvents.thumb.o
 .comment       0x00000022       0x23 ManagerCollision.thumb.o
 .comment       0x00000022       0x23 ManagerEvents.thumb.o
 .comment       0x00000022       0x23 ManagerGame.thumb.o
 .comment       0x00000022       0x23 ManagerImageCopy.thumb.o
 .comment       0x00000022       0x23 ManagerOAM.thumb.o
 .comment       0x00000022       0x23 ManagerPrinter.thumb.o
 .comment       0x00000022       0x23 ManagerScrDisplay.thumb.o
 .comment       0x00000022       0x23 ManagerSound.thumb.o
 .comment       0x00000022       0x23 ManagerVram.thumb.o
 .comment       0x00000022       0x23 ManagerWindow.thumb.o
 .comment       0x00000022       0x23 MapCommon.thumb.o
 .comment       0x00000022       0x23 MapForest.o
 .comment       0x00000022       0x23 MapGraveyard.thumb.o
 .comment       0x00000022       0x23 MapSnowField.o
 .comment       0x00000022       0x23 MapTest.thumb.o
 .comment       0x00000022       0x23 SpritePlayer.thumb.o
 .comment       0x00000022       0x23 SpriteSetAlisa.thumb.o
 .comment       0x00000022       0x23 SpriteSetBoy.thumb.o
 .comment       0x00000022       0x23 SpriteSetGhostMan.thumb.o
 .comment       0x00000022       0x23 SpriteSetWerewolf.thumb.o
 .comment       0x00000022       0x23 SpriteSetZombie.thumb.o
 .comment       0x00000022       0x23 UpdateGameStatus.arm.o
 .comment       0x00000022       0x23 UtilCommonValues.thumb.o
 .comment       0x00000022       0x23 UtilLzssDecompress.thumb.o
 .comment       0x00000022       0x23 genericBG.thumb.o
 .comment       0x00000022       0x23 genericBG2.thumb.o
 .comment       0x00000022       0x23 map_graveyard.o
 .comment       0x00000022       0x23 map_night_street.o
 .comment       0x00000022       0x23 map_nobinobi_cabin.o
 .comment       0x00000022       0x23 map_shrine.o
 .comment       0x00000022       0x23 sampleMusic.thumb.o
 .comment       0x00000022       0x23 sound_crow.o
 .comment       0x00000022       0x23 sound_ghost_moan.o
 .comment       0x00000022       0x23 sound_ghost_moan2.o
 .comment       0x00000022       0x23 sound_minamohana.o
 .comment       0x00000022       0x23 sound_slash.o
 .comment       0x00000022       0x23 sound_test.o
 .comment       0x00000022       0x23 sound_window_hit.o
 .comment       0x00000022       0x23 sprite_alisa_dashbackwardwithsword_down.thumb.o
 .comment       0x00000022       0x23 sprite_alisa_dashbackwardwithsword_side.thumb.o
 .comment       0x00000022       0x23 sprite_alisa_dashbackwardwithsword_up.thumb.o
 .comment       0x00000022       0x23 sprite_alisa_dashforwardwithsword_down.thumb.o
 .comment       0x00000022       0x23 sprite_alisa_dashforwardwithsword_side.thumb.o
 .comment       0x00000022       0x23 sprite_alisa_dashforwardwithsword_up.thumb.o
 .comment       0x00000022       0x23 sprite_alisa_run_down.thumb.o
 .comment       0x00000022       0x23 sprite_alisa_run_up.thumb.o
 .comment       0x00000022       0x23 sprite_alisa_runwithsword_down.thumb.o
 .comment       0x00000022       0x23 sprite_alisa_runwithsword_side.thumb.o
 .comment       0x00000022       0x23 sprite_alisa_runwithsword_up.thumb.o
 .comment       0x00000022       0x23 sprite_alisa_standwithsword_down.thumb.o
 .comment       0x00000022       0x23 sprite_alisa_standwithsword_side.thumb.o
 .comment       0x00000022       0x23 sprite_alisa_standwithsword_up.thumb.o
 .comment       0x00000022       0x23 sprite_alisa_stunnedwithsword_down.thumb.o
 .comment       0x00000022       0x23 sprite_alisa_stunnedwithsword_side.thumb.o
 .comment       0x00000022       0x23 sprite_alisa_stunnedwithsword_up.thumb.o
 .comment       0x00000022       0x23 sprite_alisa_swordslash_down.thumb.o
 .comment       0x00000022       0x23 sprite_alisa_swordslash_side.thumb.o
 .comment       0x00000022       0x23 sprite_alisa_swordslash_up.thumb.o
 .comment       0x00000022       0x23 sprite_character.thumb.o
 .comment       0x00000022       0x23 sprite_crow.thumb.o
 .comment       0x00000022       0x23 sprite_ghostly_hand.thumb.o
 .comment       0x00000022       0x23 sprite_ghostlyman.thumb.o
 .comment       0x00000022       0x23 sprite_ghostlyman_lower_float.thumb.o
 .comment       0x00000022       0x23 sprite_ghostlyman_upper_float.thumb.o
 .comment       0x00000022       0x23 sprite_maincharacterlower_stand.thumb.o
 .comment       0x00000022       0x23 sprite_maincharacterlower_walk.thumb.o
 .comment       0x00000022       0x23 sprite_maincharacterupper_stand.thumb.o
 .comment       0x00000022       0x23 sprite_maincharacterupper_walk.thumb.o
 .comment       0x00000022       0x23 sprite_sword_side.thumb.o
 .comment       0x00000022       0x23 sprite_sword_vertical.thumb.o
 .comment       0x00000022       0x23 sprite_werewolfarm_down.thumb.o
 .comment       0x00000022       0x23 sprite_werewolfarm_side.thumb.o
 .comment       0x00000022       0x23 sprite_werewolfarm_up.thumb.o
 .comment       0x00000022       0x23 sprite_werewolffeet_run_down.thumb.o
 .comment       0x00000022       0x23 sprite_werewolffeet_run_side.thumb.o
 .comment       0x00000022       0x23 sprite_werewolffeet_run_up.thumb.o
 .comment       0x00000022       0x23 sprite_werewolftail_side.thumb.o
 .comment       0x00000022       0x23 sprite_werewolfupperbody_run_down.thumb.o
 .comment       0x00000022       0x23 sprite_werewolfupperbody_run_side.thumb.o
 .comment       0x00000022       0x23 sprite_werewolfupperbody_run_up.thumb.o
 .comment       0x00000022       0x23 sprite_zombie_attack_down.thumb.o
 .comment       0x00000022       0x23 sprite_zombie_attack_side.thumb.o
 .comment       0x00000022       0x23 sprite_zombie_attack_up.thumb.o
 .comment       0x00000022       0x23 sprite_zombie_stunned_down.thumb.o
 .comment       0x00000022       0x23 sprite_zombie_stunned_side.thumb.o
 .comment       0x00000022       0x23 sprite_zombie_stunned_up.thumb.o
 .comment       0x00000022       0x23 sprite_zombie_walk_down.thumb.o
 .comment       0x00000022       0x23 sprite_zombie_walk_side.thumb.o
 .comment       0x00000022       0x23 sprite_zombie_walk_up.thumb.o
 .comment       0x00000022       0x23 spriteset_alisa_dashbackwardwithsword_down.thumb.o
 .comment       0x00000022       0x23 spriteset_alisa_dashbackwardwithsword_left.thumb.o
 .comment       0x00000022       0x23 spriteset_alisa_dashbackwardwithsword_right.thumb.o
 .comment       0x00000022       0x23 spriteset_alisa_dashbackwardwithsword_up.thumb.o
 .comment       0x00000022       0x23 spriteset_alisa_dashforwardwithsword_down.thumb.o
 .comment       0x00000022       0x23 spriteset_alisa_dashforwardwithsword_left.thumb.o
 .comment       0x00000022       0x23 spriteset_alisa_dashforwardwithsword_right.thumb.o
 .comment       0x00000022       0x23 spriteset_alisa_dashforwardwithsword_up.thumb.o
 .comment       0x00000022       0x23 spriteset_alisa_preparedash_down.thumb.o
 .comment       0x00000022       0x23 spriteset_alisa_preparedash_left.thumb.o
 .comment       0x00000022       0x23 spriteset_alisa_preparedash_right.thumb.o
 .comment       0x00000022       0x23 spriteset_alisa_preparedash_up.thumb.o
 .comment       0x00000022       0x23 spriteset_alisa_runwithsword_down.thumb.o
 .comment       0x00000022       0x23 spriteset_alisa_runwithsword_left.thumb.o
 .comment       0x00000022       0x23 spriteset_alisa_runwithsword_right.thumb.o
 .comment       0x00000022       0x23 spriteset_alisa_runwithsword_up.thumb.o
 .comment       0x00000022       0x23 spriteset_alisa_standwithsword_down.thumb.o
 .comment       0x00000022       0x23 spriteset_alisa_standwithsword_left.thumb.o
 .comment       0x00000022       0x23 spriteset_alisa_standwithsword_right.thumb.o
 .comment       0x00000022       0x23 spriteset_alisa_standwithsword_up.thumb.o
 .comment       0x00000022       0x23 spriteset_alisa_stunnedwithsword_down.thumb.o
 .comment       0x00000022       0x23 spriteset_alisa_stunnedwithsword_left.thumb.o
 .comment       0x00000022       0x23 spriteset_alisa_stunnedwithsword_right.thumb.o
 .comment       0x00000022       0x23 spriteset_alisa_stunnedwithsword_up.thumb.o
 .comment       0x00000022       0x23 spriteset_alisa_swordslash_down.thumb.o
 .comment       0x00000022       0x23 spriteset_alisa_swordslash_left.thumb.o
 .comment       0x00000022       0x23 spriteset_alisa_swordslash_right.thumb.o
 .comment       0x00000022       0x23 spriteset_alisa_swordslash_up.thumb.o
 .comment       0x00000022       0x23 spriteset_character_stand_left.thumb.o
 .comment       0x00000022       0x23 spriteset_character_stand_right.thumb.o
 .comment       0x00000022       0x23 spriteset_character_walk_left.thumb.o
 .comment       0x00000022       0x23 spriteset_character_walk_right.thumb.o
 .comment       0x00000022       0x23 spriteset_crow.thumb.o
 .comment       0x00000022       0x23 spriteset_ghosltyman.thumb.o
 .comment       0x00000022       0x23 spriteset_ghosthand_appear.thumb.o
 .comment       0x00000022       0x23 spriteset_ghosthand_hidden.thumb.o
 .comment       0x00000022       0x23 spriteset_ghostlyman_floating.thumb.o
 .comment       0x00000022       0x23 spriteset_maincharacter_stand.thumb.o
 .comment       0x00000022       0x23 spriteset_maincharacter_walk.thumb.o
 .comment       0x00000022       0x23 spriteset_werewolf_run_down.thumb.o
 .comment       0x00000022       0x23 spriteset_werewolf_run_left.thumb.o
 .comment       0x00000022       0x23 spriteset_werewolf_run_right.thumb.o
 .comment       0x00000022       0x23 spriteset_werewolf_run_up.thumb.o
 .comment       0x00000022       0x23 spriteset_werewolf_stand_down.thumb.o
 .comment       0x00000022       0x23 spriteset_werewolf_stand_left.thumb.o
 .comment       0x00000022       0x23 spriteset_werewolf_stand_right.thumb.o
 .comment       0x00000022       0x23 spriteset_werewolf_stand_up.thumb.o
 .comment       0x00000022       0x23 spriteset_zombie_attack_down.thumb.o
 .comment       0x00000022       0x23 spriteset_zombie_attack_left.thumb.o
 .comment       0x00000022       0x23 spriteset_zombie_attack_right.thumb.o
 .comment       0x00000022       0x23 spriteset_zombie_attack_up.thumb.o
 .comment       0x00000022       0x23 spriteset_zombie_chase_down.thumb.o
 .comment       0x00000022       0x23 spriteset_zombie_chase_left.thumb.o
 .comment       0x00000022       0x23 spriteset_zombie_chase_right.thumb.o
 .comment       0x00000022       0x23 spriteset_zombie_chase_up.thumb.o
 .comment       0x00000022       0x23 spriteset_zombie_stunned_down.thumb.o
 .comment       0x00000022       0x23 spriteset_zombie_stunned_left.thumb.o
 .comment       0x00000022       0x23 spriteset_zombie_stunned_right.thumb.o
 .comment       0x00000022       0x23 spriteset_zombie_stunned_up.thumb.o
 .comment       0x00000022       0x23 spriteset_zombie_walk_down.thumb.o
 .comment       0x00000022       0x23 spriteset_zombie_walk_left.thumb.o
 .comment       0x00000022       0x23 spriteset_zombie_walk_right.thumb.o
 .comment       0x00000022       0x23 spriteset_zombie_walk_up.thumb.o
 .comment       0x00000022       0x23 testmap.thumb.o
 .comment       0x00000022       0x23 tile_map_graveyard.o
 .comment       0x00000022       0x23 tile_map_night_street.o
 .comment       0x00000022       0x23 tile_map_nobinobi_cabin.o
 .comment       0x00000022       0x23 tile_map_shrine.o
 .comment       0x00000022       0x23 tile_mapforest.o
 .comment       0x00000022       0x23 tile_mapgraveyard.o
 .comment       0x00000022       0x23 tile_mapsnowfield.o
 .comment       0x00000022       0x23 c:/devkitpro/devkitarm/bin/../lib/gcc/arm-none-eabi/7.1.0/../../../../arm-none-eabi/lib\libg.a(lib_a-init.o)
 .comment       0x00000022       0x23 c:/devkitpro/devkitarm/bin/../lib/gcc/arm-none-eabi/7.1.0/../../../../arm-none-eabi/lib\libg.a(lib_a-malloc.o)
 .comment       0x00000022       0x23 c:/devkitpro/devkitarm/bin/../lib/gcc/arm-none-eabi/7.1.0/../../../../arm-none-eabi/lib\libg.a(lib_a-mallocr.o)
 .comment       0x00000022       0x23 c:/devkitpro/devkitarm/bin/../lib/gcc/arm-none-eabi/7.1.0/../../../../arm-none-eabi/lib\libg.a(lib_a-memcpy-stub.o)
 .comment       0x00000022       0x23 c:/devkitpro/devkitarm/bin/../lib/gcc/arm-none-eabi/7.1.0/../../../../arm-none-eabi/lib\libg.a(lib_a-memset.o)
 .comment       0x00000022       0x23 c:/devkitpro/devkitarm/bin/../lib/gcc/arm-none-eabi/7.1.0/../../../../arm-none-eabi/lib\libg.a(lib_a-mlock.o)
 .comment       0x00000022       0x23 c:/devkitpro/devkitarm/bin/../lib/gcc/arm-none-eabi/7.1.0/../../../../arm-none-eabi/lib\libg.a(lib_a-rand.o)
 .comment       0x00000022       0x23 c:/devkitpro/devkitarm/bin/../lib/gcc/arm-none-eabi/7.1.0/../../../../arm-none-eabi/lib\libg.a(lib_a-strncpy.o)
 .comment       0x00000022       0x23 c:/devkitpro/devkitarm/bin/../lib/gcc/arm-none-eabi/7.1.0/../../../../arm-none-eabi/lib\libg.a(lib_a-freer.o)
 .comment       0x00000022       0x23 c:/devkitpro/devkitarm/bin/../lib/gcc/arm-none-eabi/7.1.0/../../../../arm-none-eabi/lib\libsysbase.a(sbrk.o)
 .comment       0x00000022       0x23 c:/devkitpro/devkitarm/bin/../lib/gcc/arm-none-eabi/7.1.0/../../../../arm-none-eabi/lib\libsysbase.a(malloc_vars.o)
 .comment       0x00000022       0x23 c:/devkitpro/devkitarm/bin/../lib/gcc/arm-none-eabi/7.1.0/../../../../arm-none-eabi/lib\libsysbase.a(syscall_support.o)
 .comment       0x00000022       0x23 c:/devkitpro/devkitarm/bin/../lib/gcc/arm-none-eabi/7.1.0/../../../../arm-none-eabi/lib\libsysbase.a(getreent.o)
 .comment       0x00000022       0x23 c:/devkitpro/devkitarm/bin/../lib/gcc/arm-none-eabi/7.1.0/../../../../arm-none-eabi/lib\libg.a(lib_a-impure.o)
 .comment       0x00000022       0x23 c:/devkitpro/devkitarm/bin/../lib/gcc/arm-none-eabi/7.1.0/crtend.o

.debug
 *(.debug)

.line
 *(.line)

.debug_srcinfo
 *(.debug_srcinfo)

.debug_sfnames
 *(.debug_sfnames)

.debug_aranges  0x00000000     0x1208
 *(.debug_aranges)
 .debug_aranges
                0x00000000       0x28 ActionRpg.thumb.o
 .debug_aranges
                0x00000028       0x20 CharacterAlisa.thumb.o
 .debug_aranges
                0x00000048       0x20 CharacterAlisaController.thumb.o
 .debug_aranges
                0x00000068       0x20 CharacterCommon.thumb.o
 .debug_aranges
                0x00000088       0x20 CharacterCrow.thumb.o
 .debug_aranges
                0x000000a8       0x20 CharacterCrowController.thumb.o
 .debug_aranges
                0x000000c8       0x20 CharacterGhostMan.thumb.o
 .debug_aranges
                0x000000e8       0x20 CharacterGhostlyHand.thumb.o
 .debug_aranges
                0x00000108       0x20 CharacterGhostlyHandController.thumb.o
 .debug_aranges
                0x00000128       0x20 CharacterGhostmanController.thumb.o
 .debug_aranges
                0x00000148       0x20 CharacterNameless.thumb.o
 .debug_aranges
                0x00000168       0x20 CharacterNamelessController.thumb.o
 .debug_aranges
                0x00000188       0x18 CharacterType.thumb.o
 .debug_aranges
                0x000001a0       0x20 CharacterWerewolf.thumb.o
 .debug_aranges
                0x000001c0       0x20 CharacterWerewolfController.thumb.o
 .debug_aranges
                0x000001e0       0x20 CharacterZombie.thumb.o
 .debug_aranges
                0x00000200       0x20 CharacterZombieController.thumb.o
 .debug_aranges
                0x00000220       0x20 GBATimer.thumb.o
 .debug_aranges
                0x00000240       0x20 ManagerBG.thumb.o
 .debug_aranges
                0x00000260       0x20 ManagerCharacters.thumb.o
 .debug_aranges
                0x00000280       0x20 ManagerCharactersActionEvents.thumb.o
 .debug_aranges
                0x000002a0       0x18 ManagerCollision.thumb.o
 .debug_aranges
                0x000002b8       0x20 ManagerEvents.thumb.o
 .debug_aranges
                0x000002d8       0x20 ManagerGame.thumb.o
 .debug_aranges
                0x000002f8       0x20 ManagerImageCopy.thumb.o
 .debug_aranges
                0x00000318       0x20 ManagerOAM.thumb.o
 .debug_aranges
                0x00000338       0x20 ManagerPrinter.thumb.o
 .debug_aranges
                0x00000358       0x20 ManagerScrDisplay.thumb.o
 .debug_aranges
                0x00000378       0x20 ManagerSound.thumb.o
 .debug_aranges
                0x00000398       0x20 ManagerVram.thumb.o
 .debug_aranges
                0x000003b8       0x18 ManagerWindow.thumb.o
 .debug_aranges
                0x000003d0       0x20 MapCommon.thumb.o
 .debug_aranges
                0x000003f0       0x18 MapForest.o
 .debug_aranges
                0x00000408       0x18 MapGraveyard.thumb.o
 .debug_aranges
                0x00000420       0x18 MapSnowField.o
 .debug_aranges
                0x00000438       0x20 MapTest.thumb.o
 .debug_aranges
                0x00000458       0x18 SpritePlayer.thumb.o
 .debug_aranges
                0x00000470       0x18 SpriteSetAlisa.thumb.o
 .debug_aranges
                0x00000488       0x18 SpriteSetBoy.thumb.o
 .debug_aranges
                0x000004a0       0x18 SpriteSetGhostMan.thumb.o
 .debug_aranges
                0x000004b8       0x18 SpriteSetWerewolf.thumb.o
 .debug_aranges
                0x000004d0       0x18 SpriteSetZombie.thumb.o
 .debug_aranges
                0x000004e8       0x20 UpdateGameStatus.arm.o
 .debug_aranges
                0x00000508       0x18 UtilCommonValues.thumb.o
 .debug_aranges
                0x00000520       0x20 UtilLzssDecompress.thumb.o
 .debug_aranges
                0x00000540       0x18 genericBG.thumb.o
 .debug_aranges
                0x00000558       0x18 genericBG2.thumb.o
 .debug_aranges
                0x00000570       0x18 map_graveyard.o
 .debug_aranges
                0x00000588       0x18 map_night_street.o
 .debug_aranges
                0x000005a0       0x18 map_nobinobi_cabin.o
 .debug_aranges
                0x000005b8       0x18 map_shrine.o
 .debug_aranges
                0x000005d0       0x18 sampleMusic.thumb.o
 .debug_aranges
                0x000005e8       0x18 sound_crow.o
 .debug_aranges
                0x00000600       0x18 sound_ghost_moan.o
 .debug_aranges
                0x00000618       0x18 sound_ghost_moan2.o
 .debug_aranges
                0x00000630       0x18 sound_minamohana.o
 .debug_aranges
                0x00000648       0x18 sound_slash.o
 .debug_aranges
                0x00000660       0x18 sound_test.o
 .debug_aranges
                0x00000678       0x18 sound_window_hit.o
 .debug_aranges
                0x00000690       0x18 sprite_alisa_dashbackwardwithsword_down.thumb.o
 .debug_aranges
                0x000006a8       0x18 sprite_alisa_dashbackwardwithsword_side.thumb.o
 .debug_aranges
                0x000006c0       0x18 sprite_alisa_dashbackwardwithsword_up.thumb.o
 .debug_aranges
                0x000006d8       0x18 sprite_alisa_dashforwardwithsword_down.thumb.o
 .debug_aranges
                0x000006f0       0x18 sprite_alisa_dashforwardwithsword_side.thumb.o
 .debug_aranges
                0x00000708       0x18 sprite_alisa_dashforwardwithsword_up.thumb.o
 .debug_aranges
                0x00000720       0x18 sprite_alisa_run_down.thumb.o
 .debug_aranges
                0x00000738       0x18 sprite_alisa_run_up.thumb.o
 .debug_aranges
                0x00000750       0x18 sprite_alisa_runwithsword_down.thumb.o
 .debug_aranges
                0x00000768       0x18 sprite_alisa_runwithsword_side.thumb.o
 .debug_aranges
                0x00000780       0x18 sprite_alisa_runwithsword_up.thumb.o
 .debug_aranges
                0x00000798       0x18 sprite_alisa_standwithsword_down.thumb.o
 .debug_aranges
                0x000007b0       0x18 sprite_alisa_standwithsword_side.thumb.o
 .debug_aranges
                0x000007c8       0x18 sprite_alisa_standwithsword_up.thumb.o
 .debug_aranges
                0x000007e0       0x18 sprite_alisa_stunnedwithsword_down.thumb.o
 .debug_aranges
                0x000007f8       0x18 sprite_alisa_stunnedwithsword_side.thumb.o
 .debug_aranges
                0x00000810       0x18 sprite_alisa_stunnedwithsword_up.thumb.o
 .debug_aranges
                0x00000828       0x18 sprite_alisa_swordslash_down.thumb.o
 .debug_aranges
                0x00000840       0x18 sprite_alisa_swordslash_side.thumb.o
 .debug_aranges
                0x00000858       0x18 sprite_alisa_swordslash_up.thumb.o
 .debug_aranges
                0x00000870       0x18 sprite_character.thumb.o
 .debug_aranges
                0x00000888       0x18 sprite_crow.thumb.o
 .debug_aranges
                0x000008a0       0x18 sprite_ghostly_hand.thumb.o
 .debug_aranges
                0x000008b8       0x18 sprite_ghostlyman.thumb.o
 .debug_aranges
                0x000008d0       0x18 sprite_ghostlyman_lower_float.thumb.o
 .debug_aranges
                0x000008e8       0x18 sprite_ghostlyman_upper_float.thumb.o
 .debug_aranges
                0x00000900       0x18 sprite_maincharacterlower_stand.thumb.o
 .debug_aranges
                0x00000918       0x18 sprite_maincharacterlower_walk.thumb.o
 .debug_aranges
                0x00000930       0x18 sprite_maincharacterupper_stand.thumb.o
 .debug_aranges
                0x00000948       0x18 sprite_maincharacterupper_walk.thumb.o
 .debug_aranges
                0x00000960       0x18 sprite_sword_side.thumb.o
 .debug_aranges
                0x00000978       0x18 sprite_sword_vertical.thumb.o
 .debug_aranges
                0x00000990       0x18 sprite_werewolfarm_down.thumb.o
 .debug_aranges
                0x000009a8       0x18 sprite_werewolfarm_side.thumb.o
 .debug_aranges
                0x000009c0       0x18 sprite_werewolfarm_up.thumb.o
 .debug_aranges
                0x000009d8       0x18 sprite_werewolffeet_run_down.thumb.o
 .debug_aranges
                0x000009f0       0x18 sprite_werewolffeet_run_side.thumb.o
 .debug_aranges
                0x00000a08       0x18 sprite_werewolffeet_run_up.thumb.o
 .debug_aranges
                0x00000a20       0x18 sprite_werewolftail_side.thumb.o
 .debug_aranges
                0x00000a38       0x18 sprite_werewolfupperbody_run_down.thumb.o
 .debug_aranges
                0x00000a50       0x18 sprite_werewolfupperbody_run_side.thumb.o
 .debug_aranges
                0x00000a68       0x18 sprite_werewolfupperbody_run_up.thumb.o
 .debug_aranges
                0x00000a80       0x18 sprite_zombie_attack_down.thumb.o
 .debug_aranges
                0x00000a98       0x18 sprite_zombie_attack_side.thumb.o
 .debug_aranges
                0x00000ab0       0x18 sprite_zombie_attack_up.thumb.o
 .debug_aranges
                0x00000ac8       0x18 sprite_zombie_stunned_down.thumb.o
 .debug_aranges
                0x00000ae0       0x18 sprite_zombie_stunned_side.thumb.o
 .debug_aranges
                0x00000af8       0x18 sprite_zombie_stunned_up.thumb.o
 .debug_aranges
                0x00000b10       0x18 sprite_zombie_walk_down.thumb.o
 .debug_aranges
                0x00000b28       0x18 sprite_zombie_walk_side.thumb.o
 .debug_aranges
                0x00000b40       0x18 sprite_zombie_walk_up.thumb.o
 .debug_aranges
                0x00000b58       0x18 spriteset_alisa_dashbackwardwithsword_down.thumb.o
 .debug_aranges
                0x00000b70       0x18 spriteset_alisa_dashbackwardwithsword_left.thumb.o
 .debug_aranges
                0x00000b88       0x18 spriteset_alisa_dashbackwardwithsword_right.thumb.o
 .debug_aranges
                0x00000ba0       0x18 spriteset_alisa_dashbackwardwithsword_up.thumb.o
 .debug_aranges
                0x00000bb8       0x18 spriteset_alisa_dashforwardwithsword_down.thumb.o
 .debug_aranges
                0x00000bd0       0x18 spriteset_alisa_dashforwardwithsword_left.thumb.o
 .debug_aranges
                0x00000be8       0x18 spriteset_alisa_dashforwardwithsword_right.thumb.o
 .debug_aranges
                0x00000c00       0x18 spriteset_alisa_dashforwardwithsword_up.thumb.o
 .debug_aranges
                0x00000c18       0x18 spriteset_alisa_preparedash_down.thumb.o
 .debug_aranges
                0x00000c30       0x18 spriteset_alisa_preparedash_left.thumb.o
 .debug_aranges
                0x00000c48       0x18 spriteset_alisa_preparedash_right.thumb.o
 .debug_aranges
                0x00000c60       0x18 spriteset_alisa_preparedash_up.thumb.o
 .debug_aranges
                0x00000c78       0x18 spriteset_alisa_runwithsword_down.thumb.o
 .debug_aranges
                0x00000c90       0x18 spriteset_alisa_runwithsword_left.thumb.o
 .debug_aranges
                0x00000ca8       0x18 spriteset_alisa_runwithsword_right.thumb.o
 .debug_aranges
                0x00000cc0       0x18 spriteset_alisa_runwithsword_up.thumb.o
 .debug_aranges
                0x00000cd8       0x18 spriteset_alisa_standwithsword_down.thumb.o
 .debug_aranges
                0x00000cf0       0x18 spriteset_alisa_standwithsword_left.thumb.o
 .debug_aranges
                0x00000d08       0x18 spriteset_alisa_standwithsword_right.thumb.o
 .debug_aranges
                0x00000d20       0x18 spriteset_alisa_standwithsword_up.thumb.o
 .debug_aranges
                0x00000d38       0x18 spriteset_alisa_stunnedwithsword_down.thumb.o
 .debug_aranges
                0x00000d50       0x18 spriteset_alisa_stunnedwithsword_left.thumb.o
 .debug_aranges
                0x00000d68       0x18 spriteset_alisa_stunnedwithsword_right.thumb.o
 .debug_aranges
                0x00000d80       0x18 spriteset_alisa_stunnedwithsword_up.thumb.o
 .debug_aranges
                0x00000d98       0x18 spriteset_alisa_swordslash_down.thumb.o
 .debug_aranges
                0x00000db0       0x18 spriteset_alisa_swordslash_left.thumb.o
 .debug_aranges
                0x00000dc8       0x18 spriteset_alisa_swordslash_right.thumb.o
 .debug_aranges
                0x00000de0       0x18 spriteset_alisa_swordslash_up.thumb.o
 .debug_aranges
                0x00000df8       0x18 spriteset_character_stand_left.thumb.o
 .debug_aranges
                0x00000e10       0x18 spriteset_character_stand_right.thumb.o
 .debug_aranges
                0x00000e28       0x18 spriteset_character_walk_left.thumb.o
 .debug_aranges
                0x00000e40       0x18 spriteset_character_walk_right.thumb.o
 .debug_aranges
                0x00000e58       0x18 spriteset_crow.thumb.o
 .debug_aranges
                0x00000e70       0x18 spriteset_ghosltyman.thumb.o
 .debug_aranges
                0x00000e88       0x18 spriteset_ghosthand_appear.thumb.o
 .debug_aranges
                0x00000ea0       0x18 spriteset_ghosthand_hidden.thumb.o
 .debug_aranges
                0x00000eb8       0x18 spriteset_ghostlyman_floating.thumb.o
 .debug_aranges
                0x00000ed0       0x18 spriteset_maincharacter_stand.thumb.o
 .debug_aranges
                0x00000ee8       0x18 spriteset_maincharacter_walk.thumb.o
 .debug_aranges
                0x00000f00       0x18 spriteset_werewolf_run_down.thumb.o
 .debug_aranges
                0x00000f18       0x18 spriteset_werewolf_run_left.thumb.o
 .debug_aranges
                0x00000f30       0x18 spriteset_werewolf_run_right.thumb.o
 .debug_aranges
                0x00000f48       0x18 spriteset_werewolf_run_up.thumb.o
 .debug_aranges
                0x00000f60       0x18 spriteset_werewolf_stand_down.thumb.o
 .debug_aranges
                0x00000f78       0x18 spriteset_werewolf_stand_left.thumb.o
 .debug_aranges
                0x00000f90       0x18 spriteset_werewolf_stand_right.thumb.o
 .debug_aranges
                0x00000fa8       0x18 spriteset_werewolf_stand_up.thumb.o
 .debug_aranges
                0x00000fc0       0x18 spriteset_zombie_attack_down.thumb.o
 .debug_aranges
                0x00000fd8       0x18 spriteset_zombie_attack_left.thumb.o
 .debug_aranges
                0x00000ff0       0x18 spriteset_zombie_attack_right.thumb.o
 .debug_aranges
                0x00001008       0x18 spriteset_zombie_attack_up.thumb.o
 .debug_aranges
                0x00001020       0x18 spriteset_zombie_chase_down.thumb.o
 .debug_aranges
                0x00001038       0x18 spriteset_zombie_chase_left.thumb.o
 .debug_aranges
                0x00001050       0x18 spriteset_zombie_chase_right.thumb.o
 .debug_aranges
                0x00001068       0x18 spriteset_zombie_chase_up.thumb.o
 .debug_aranges
                0x00001080       0x18 spriteset_zombie_stunned_down.thumb.o
 .debug_aranges
                0x00001098       0x18 spriteset_zombie_stunned_left.thumb.o
 .debug_aranges
                0x000010b0       0x18 spriteset_zombie_stunned_right.thumb.o
 .debug_aranges
                0x000010c8       0x18 spriteset_zombie_stunned_up.thumb.o
 .debug_aranges
                0x000010e0       0x18 spriteset_zombie_walk_down.thumb.o
 .debug_aranges
                0x000010f8       0x18 spriteset_zombie_walk_left.thumb.o
 .debug_aranges
                0x00001110       0x18 spriteset_zombie_walk_right.thumb.o
 .debug_aranges
                0x00001128       0x18 spriteset_zombie_walk_up.thumb.o
 .debug_aranges
                0x00001140       0x20 testmap.thumb.o
 .debug_aranges
                0x00001160       0x18 tile_map_graveyard.o
 .debug_aranges
                0x00001178       0x18 tile_map_night_street.o
 .debug_aranges
                0x00001190       0x18 tile_map_nobinobi_cabin.o
 .debug_aranges
                0x000011a8       0x18 tile_map_shrine.o
 .debug_aranges
                0x000011c0       0x18 tile_mapforest.o
 .debug_aranges
                0x000011d8       0x18 tile_mapgraveyard.o
 .debug_aranges
                0x000011f0       0x18 tile_mapsnowfield.o

.debug_pubnames
 *(.debug_pubnames)

.debug_info     0x00000000    0x54cdd
 *(.debug_info)
 .debug_info    0x00000000     0x2382 ActionRpg.thumb.o
 .debug_info    0x00002382     0x27b8 CharacterAlisa.thumb.o
 .debug_info    0x00004b3a     0x23b3 CharacterAlisaController.thumb.o
 .debug_info    0x00006eed     0x5534 CharacterCommon.thumb.o
 .debug_info    0x0000c421     0x2143 CharacterCrow.thumb.o
 .debug_info    0x0000e564      0xfaf CharacterCrowController.thumb.o
 .debug_info    0x0000f513     0x2256 CharacterGhostMan.thumb.o
 .debug_info    0x00011769     0x2131 CharacterGhostlyHand.thumb.o
 .debug_info    0x0001389a      0xeb1 CharacterGhostlyHandController.thumb.o
 .debug_info    0x0001474b     0x118d CharacterGhostmanController.thumb.o
 .debug_info    0x000158d8     0x1fff CharacterNameless.thumb.o
 .debug_info    0x000178d7      0xac4 CharacterNamelessController.thumb.o
 .debug_info    0x0001839b     0x13bb CharacterType.thumb.o
 .debug_info    0x00019756     0x26d6 CharacterWerewolf.thumb.o
 .debug_info    0x0001be2c     0x1167 CharacterWerewolfController.thumb.o
 .debug_info    0x0001cf93     0x2b13 CharacterZombie.thumb.o
 .debug_info    0x0001faa6     0x116e CharacterZombieController.thumb.o
 .debug_info    0x00020c14       0xb6 GBATimer.thumb.o
 .debug_info    0x00020cca     0x1e57 ManagerBG.thumb.o
 .debug_info    0x00022b21     0x2242 ManagerCharacters.thumb.o
 .debug_info    0x00024d63     0x162b ManagerCharactersActionEvents.thumb.o
 .debug_info    0x0002638e      0x38f ManagerCollision.thumb.o
 .debug_info    0x0002671d      0xbb4 ManagerEvents.thumb.o
 .debug_info    0x000272d1      0x316 ManagerGame.thumb.o
 .debug_info    0x000275e7      0xa93 ManagerImageCopy.thumb.o
 .debug_info    0x0002807a      0xc76 ManagerOAM.thumb.o
 .debug_info    0x00028cf0      0x95d ManagerPrinter.thumb.o
 .debug_info    0x0002964d     0x1855 ManagerScrDisplay.thumb.o
 .debug_info    0x0002aea2     0x140f ManagerSound.thumb.o
 .debug_info    0x0002c2b1      0x71f ManagerVram.thumb.o
 .debug_info    0x0002c9d0      0x205 ManagerWindow.thumb.o
 .debug_info    0x0002cbd5     0x1d1d MapCommon.thumb.o
 .debug_info    0x0002e8f2     0x1139 MapForest.o
 .debug_info    0x0002fa2b     0x10b6 MapGraveyard.thumb.o
 .debug_info    0x00030ae1     0x1245 MapSnowField.o
 .debug_info    0x00031d26     0x112e MapTest.thumb.o
 .debug_info    0x00032e54      0x518 SpritePlayer.thumb.o
 .debug_info    0x0003336c      0x360 SpriteSetAlisa.thumb.o
 .debug_info    0x000336cc      0x21b SpriteSetBoy.thumb.o
 .debug_info    0x000338e7      0x1f7 SpriteSetGhostMan.thumb.o
 .debug_info    0x00033ade      0x22f SpriteSetWerewolf.thumb.o
 .debug_info    0x00033d0d      0x2a9 SpriteSetZombie.thumb.o
 .debug_info    0x00033fb6      0x3d6 UpdateGameStatus.arm.o
 .debug_info    0x0003438c      0x2bb UtilCommonValues.thumb.o
 .debug_info    0x00034647      0x591 UtilLzssDecompress.thumb.o
 .debug_info    0x00034bd8      0x2d7 genericBG.thumb.o
 .debug_info    0x00034eaf      0x2d8 genericBG2.thumb.o
 .debug_info    0x00035187     0x112a map_graveyard.o
 .debug_info    0x000362b1     0x110c map_night_street.o
 .debug_info    0x000373bd     0x1201 map_nobinobi_cabin.o
 .debug_info    0x000385be     0x11b3 map_shrine.o
 .debug_info    0x00039771       0x5a sampleMusic.thumb.o
 .debug_info    0x000397cb       0xfa sound_crow.o
 .debug_info    0x000398c5       0xfb sound_ghost_moan.o
 .debug_info    0x000399c0      0x16f sound_ghost_moan2.o
 .debug_info    0x00039b2f       0xff sound_minamohana.o
 .debug_info    0x00039c2e       0xfa sound_slash.o
 .debug_info    0x00039d28       0x58 sound_test.o
 .debug_info    0x00039d80       0xfa sound_window_hit.o
 .debug_info    0x00039e7a       0xa8 sprite_alisa_dashbackwardwithsword_down.thumb.o
 .debug_info    0x00039f22       0xb9 sprite_alisa_dashbackwardwithsword_side.thumb.o
 .debug_info    0x00039fdb       0xa8 sprite_alisa_dashbackwardwithsword_up.thumb.o
 .debug_info    0x0003a083      0x101 sprite_alisa_dashforwardwithsword_down.thumb.o
 .debug_info    0x0003a184      0x12b sprite_alisa_dashforwardwithsword_side.thumb.o
 .debug_info    0x0003a2af      0x101 sprite_alisa_dashforwardwithsword_up.thumb.o
 .debug_info    0x0003a3b0       0xec sprite_alisa_run_down.thumb.o
 .debug_info    0x0003a49c      0x101 sprite_alisa_run_up.thumb.o
 .debug_info    0x0003a59d      0x12b sprite_alisa_runwithsword_down.thumb.o
 .debug_info    0x0003a6c8      0x116 sprite_alisa_runwithsword_side.thumb.o
 .debug_info    0x0003a7de      0x12b sprite_alisa_runwithsword_up.thumb.o
 .debug_info    0x0003a909       0x82 sprite_alisa_standwithsword_down.thumb.o
 .debug_info    0x0003a98b       0x82 sprite_alisa_standwithsword_side.thumb.o
 .debug_info    0x0003aa0d       0xa8 sprite_alisa_standwithsword_up.thumb.o
 .debug_info    0x0003aab5       0xa8 sprite_alisa_stunnedwithsword_down.thumb.o
 .debug_info    0x0003ab5d       0x93 sprite_alisa_stunnedwithsword_side.thumb.o
 .debug_info    0x0003abf0       0xa8 sprite_alisa_stunnedwithsword_up.thumb.o
 .debug_info    0x0003ac98       0xca sprite_alisa_swordslash_down.thumb.o
 .debug_info    0x0003ad62       0xf4 sprite_alisa_swordslash_side.thumb.o
 .debug_info    0x0003ae56       0xb5 sprite_alisa_swordslash_up.thumb.o
 .debug_info    0x0003af0b       0xf4 sprite_character.thumb.o
 .debug_info    0x0003afff       0x82 sprite_crow.thumb.o
 .debug_info    0x0003b081       0xdf sprite_ghostly_hand.thumb.o
 .debug_info    0x0003b160       0x82 sprite_ghostlyman.thumb.o
 .debug_info    0x0003b1e2       0x82 sprite_ghostlyman_lower_float.thumb.o
 .debug_info    0x0003b264       0x82 sprite_ghostlyman_upper_float.thumb.o
 .debug_info    0x0003b2e6       0x82 sprite_maincharacterlower_stand.thumb.o
 .debug_info    0x0003b368      0x12b sprite_maincharacterlower_walk.thumb.o
 .debug_info    0x0003b493       0x82 sprite_maincharacterupper_stand.thumb.o
 .debug_info    0x0003b515       0xd7 sprite_maincharacterupper_walk.thumb.o
 .debug_info    0x0003b5ec       0xca sprite_sword_side.thumb.o
 .debug_info    0x0003b6b6       0xb9 sprite_sword_vertical.thumb.o
 .debug_info    0x0003b76f       0x82 sprite_werewolfarm_down.thumb.o
 .debug_info    0x0003b7f1       0x82 sprite_werewolfarm_side.thumb.o
 .debug_info    0x0003b873       0x82 sprite_werewolfarm_up.thumb.o
 .debug_info    0x0003b8f5       0xce sprite_werewolffeet_run_down.thumb.o
 .debug_info    0x0003b9c3      0x11a sprite_werewolffeet_run_side.thumb.o
 .debug_info    0x0003badd       0xce sprite_werewolffeet_run_up.thumb.o
 .debug_info    0x0003bbab       0x82 sprite_werewolftail_side.thumb.o
 .debug_info    0x0003bc2d       0x93 sprite_werewolfupperbody_run_down.thumb.o
 .debug_info    0x0003bcc0       0xa4 sprite_werewolfupperbody_run_side.thumb.o
 .debug_info    0x0003bd64       0xb9 sprite_werewolfupperbody_run_up.thumb.o
 .debug_info    0x0003be1d       0xdb sprite_zombie_attack_down.thumb.o
 .debug_info    0x0003bef8      0x11a sprite_zombie_attack_side.thumb.o
 .debug_info    0x0003c012       0xf0 sprite_zombie_attack_up.thumb.o
 .debug_info    0x0003c102       0x82 sprite_zombie_stunned_down.thumb.o
 .debug_info    0x0003c184       0x82 sprite_zombie_stunned_side.thumb.o
 .debug_info    0x0003c206       0x82 sprite_zombie_stunned_up.thumb.o
 .debug_info    0x0003c288       0xf4 sprite_zombie_walk_down.thumb.o
 .debug_info    0x0003c37c       0xdf sprite_zombie_walk_side.thumb.o
 .debug_info    0x0003c45b       0xdf sprite_zombie_walk_up.thumb.o
 .debug_info    0x0003c53a      0x80f spriteset_alisa_dashbackwardwithsword_down.thumb.o
 .debug_info    0x0003cd49      0x80f spriteset_alisa_dashbackwardwithsword_left.thumb.o
 .debug_info    0x0003d558      0x80f spriteset_alisa_dashbackwardwithsword_right.thumb.o
 .debug_info    0x0003dd67      0x80f spriteset_alisa_dashbackwardwithsword_up.thumb.o
 .debug_info    0x0003e576      0x831 spriteset_alisa_dashforwardwithsword_down.thumb.o
 .debug_info    0x0003eda7      0x831 spriteset_alisa_dashforwardwithsword_left.thumb.o
 .debug_info    0x0003f5d8      0x831 spriteset_alisa_dashforwardwithsword_right.thumb.o
 .debug_info    0x0003fe09      0x831 spriteset_alisa_dashforwardwithsword_up.thumb.o
 .debug_info    0x0004063a      0x7fe spriteset_alisa_preparedash_down.thumb.o
 .debug_info    0x00040e38      0x7fe spriteset_alisa_preparedash_left.thumb.o
 .debug_info    0x00041636      0x7fe spriteset_alisa_preparedash_right.thumb.o
 .debug_info    0x00041e34      0x7fe spriteset_alisa_preparedash_up.thumb.o
 .debug_info    0x00042632      0x853 spriteset_alisa_runwithsword_down.thumb.o
 .debug_info    0x00042e85      0x853 spriteset_alisa_runwithsword_left.thumb.o
 .debug_info    0x000436d8      0x853 spriteset_alisa_runwithsword_right.thumb.o
 .debug_info    0x00043f2b      0x853 spriteset_alisa_runwithsword_up.thumb.o
 .debug_info    0x0004477e      0x7fe spriteset_alisa_standwithsword_down.thumb.o
 .debug_info    0x00044f7c      0x7fe spriteset_alisa_standwithsword_left.thumb.o
 .debug_info    0x0004577a      0x7fe spriteset_alisa_standwithsword_right.thumb.o
 .debug_info    0x00045f78      0x7fe spriteset_alisa_standwithsword_up.thumb.o
 .debug_info    0x00046776      0x7fe spriteset_alisa_stunnedwithsword_down.thumb.o
 .debug_info    0x00046f74      0x7fe spriteset_alisa_stunnedwithsword_left.thumb.o
 .debug_info    0x00047772      0x7fe spriteset_alisa_stunnedwithsword_right.thumb.o
 .debug_info    0x00047f70      0x7fe spriteset_alisa_stunnedwithsword_up.thumb.o
 .debug_info    0x0004876e      0x80b spriteset_alisa_swordslash_down.thumb.o
 .debug_info    0x00048f79      0x831 spriteset_alisa_swordslash_left.thumb.o
 .debug_info    0x000497aa      0x831 spriteset_alisa_swordslash_right.thumb.o
 .debug_info    0x00049fdb      0x80b spriteset_alisa_swordslash_up.thumb.o
 .debug_info    0x0004a7e6      0x31d spriteset_character_stand_left.thumb.o
 .debug_info    0x0004ab03      0x31d spriteset_character_stand_right.thumb.o
 .debug_info    0x0004ae20      0x350 spriteset_character_walk_left.thumb.o
 .debug_info    0x0004b170      0x350 spriteset_character_walk_right.thumb.o
 .debug_info    0x0004b4c0      0x2fc spriteset_crow.thumb.o
 .debug_info    0x0004b7bc      0x31e spriteset_ghosltyman.thumb.o
 .debug_info    0x0004bada      0x39e spriteset_ghosthand_appear.thumb.o
 .debug_info    0x0004be78      0x31d spriteset_ghosthand_hidden.thumb.o
 .debug_info    0x0004c195      0x312 spriteset_ghostlyman_floating.thumb.o
 .debug_info    0x0004c4a7      0x312 spriteset_maincharacter_stand.thumb.o
 .debug_info    0x0004c7b9      0x3d5 spriteset_maincharacter_walk.thumb.o
 .debug_info    0x0004cb8e      0x4c8 spriteset_werewolf_run_down.thumb.o
 .debug_info    0x0004d056      0x4c8 spriteset_werewolf_run_left.thumb.o
 .debug_info    0x0004d51e      0x4c8 spriteset_werewolf_run_right.thumb.o
 .debug_info    0x0004d9e6      0x4c8 spriteset_werewolf_run_up.thumb.o
 .debug_info    0x0004deae      0x484 spriteset_werewolf_stand_down.thumb.o
 .debug_info    0x0004e332      0x484 spriteset_werewolf_stand_left.thumb.o
 .debug_info    0x0004e7b6      0x484 spriteset_werewolf_stand_right.thumb.o
 .debug_info    0x0004ec3a      0x484 spriteset_werewolf_stand_up.thumb.o
 .debug_info    0x0004f0be      0x4e8 spriteset_zombie_attack_down.thumb.o
 .debug_info    0x0004f5a6      0x4e8 spriteset_zombie_attack_left.thumb.o
 .debug_info    0x0004fa8e      0x4e8 spriteset_zombie_attack_right.thumb.o
 .debug_info    0x0004ff76      0x4e8 spriteset_zombie_attack_up.thumb.o
 .debug_info    0x0005045e      0x4c6 spriteset_zombie_chase_down.thumb.o
 .debug_info    0x00050924      0x4c6 spriteset_zombie_chase_left.thumb.o
 .debug_info    0x00050dea      0x4c6 spriteset_zombie_chase_right.thumb.o
 .debug_info    0x000512b0      0x4c6 spriteset_zombie_chase_up.thumb.o
 .debug_info    0x00051776      0x493 spriteset_zombie_stunned_down.thumb.o
 .debug_info    0x00051c09      0x493 spriteset_zombie_stunned_left.thumb.o
 .debug_info    0x0005209c      0x493 spriteset_zombie_stunned_right.thumb.o
 .debug_info    0x0005252f      0x493 spriteset_zombie_stunned_up.thumb.o
 .debug_info    0x000529c2      0x4c6 spriteset_zombie_walk_down.thumb.o
 .debug_info    0x00052e88      0x4c6 spriteset_zombie_walk_left.thumb.o
 .debug_info    0x0005334e      0x4c6 spriteset_zombie_walk_right.thumb.o
 .debug_info    0x00053814      0x4c6 spriteset_zombie_walk_up.thumb.o
 .debug_info    0x00053cda      0x78f testmap.thumb.o
 .debug_info    0x00054469       0xf0 tile_map_graveyard.o
 .debug_info    0x00054559      0x134 tile_map_night_street.o
 .debug_info    0x0005468d      0x16b tile_map_nobinobi_cabin.o
 .debug_info    0x000547f8      0x174 tile_map_shrine.o
 .debug_info    0x0005496c      0x112 tile_mapforest.o
 .debug_info    0x00054a7e       0x93 tile_mapgraveyard.o
 .debug_info    0x00054b11      0x1cc tile_mapsnowfield.o

.debug_abbrev   0x00000000     0xd13b
 *(.debug_abbrev)
 .debug_abbrev  0x00000000      0x3bc ActionRpg.thumb.o
 .debug_abbrev  0x000003bc      0x3b7 CharacterAlisa.thumb.o
 .debug_abbrev  0x00000773      0x492 CharacterAlisaController.thumb.o
 .debug_abbrev  0x00000c05      0x5bd CharacterCommon.thumb.o
 .debug_abbrev  0x000011c2      0x39b CharacterCrow.thumb.o
 .debug_abbrev  0x0000155d      0x218 CharacterCrowController.thumb.o
 .debug_abbrev  0x00001775      0x385 CharacterGhostMan.thumb.o
 .debug_abbrev  0x00001afa      0x36f CharacterGhostlyHand.thumb.o
 .debug_abbrev  0x00001e69      0x1dc CharacterGhostlyHandController.thumb.o
 .debug_abbrev  0x00002045      0x2c0 CharacterGhostmanController.thumb.o
 .debug_abbrev  0x00002305      0x344 CharacterNameless.thumb.o
 .debug_abbrev  0x00002649      0x1cc CharacterNamelessController.thumb.o
 .debug_abbrev  0x00002815      0x25a CharacterType.thumb.o
 .debug_abbrev  0x00002a6f      0x47f CharacterWerewolf.thumb.o
 .debug_abbrev  0x00002eee      0x273 CharacterWerewolfController.thumb.o
 .debug_abbrev  0x00003161      0x47b CharacterZombie.thumb.o
 .debug_abbrev  0x000035dc      0x347 CharacterZombieController.thumb.o
 .debug_abbrev  0x00003923       0xa2 GBATimer.thumb.o
 .debug_abbrev  0x000039c5      0x415 ManagerBG.thumb.o
 .debug_abbrev  0x00003dda      0x45f ManagerCharacters.thumb.o
 .debug_abbrev  0x00004239      0x308 ManagerCharactersActionEvents.thumb.o
 .debug_abbrev  0x00004541       0xed ManagerCollision.thumb.o
 .debug_abbrev  0x0000462e      0x18f ManagerEvents.thumb.o
 .debug_abbrev  0x000047bd      0x13c ManagerGame.thumb.o
 .debug_abbrev  0x000048f9      0x1c5 ManagerImageCopy.thumb.o
 .debug_abbrev  0x00004abe      0x290 ManagerOAM.thumb.o
 .debug_abbrev  0x00004d4e      0x3b0 ManagerPrinter.thumb.o
 .debug_abbrev  0x000050fe      0x3f1 ManagerScrDisplay.thumb.o
 .debug_abbrev  0x000054ef      0x456 ManagerSound.thumb.o
 .debug_abbrev  0x00005945      0x2ce ManagerVram.thumb.o
 .debug_abbrev  0x00005c13       0x98 ManagerWindow.thumb.o
 .debug_abbrev  0x00005cab      0x3eb MapCommon.thumb.o
 .debug_abbrev  0x00006096      0x24f MapForest.o
 .debug_abbrev  0x000062e5      0x24f MapGraveyard.thumb.o
 .debug_abbrev  0x00006534      0x260 MapSnowField.o
 .debug_abbrev  0x00006794      0x292 MapTest.thumb.o
 .debug_abbrev  0x00006a26       0x77 SpritePlayer.thumb.o
 .debug_abbrev  0x00006a9d       0xcc SpriteSetAlisa.thumb.o
 .debug_abbrev  0x00006b69       0xbb SpriteSetBoy.thumb.o
 .debug_abbrev  0x00006c24       0xba SpriteSetGhostMan.thumb.o
 .debug_abbrev  0x00006cde       0xcc SpriteSetWerewolf.thumb.o
 .debug_abbrev  0x00006daa       0xcc SpriteSetZombie.thumb.o
 .debug_abbrev  0x00006e76      0x12f UpdateGameStatus.arm.o
 .debug_abbrev  0x00006fa5       0x98 UtilCommonValues.thumb.o
 .debug_abbrev  0x0000703d      0x227 UtilLzssDecompress.thumb.o
 .debug_abbrev  0x00007264       0xb2 genericBG.thumb.o
 .debug_abbrev  0x00007316       0xb2 genericBG2.thumb.o
 .debug_abbrev  0x000073c8      0x258 map_graveyard.o
 .debug_abbrev  0x00007620      0x24f map_night_street.o
 .debug_abbrev  0x0000786f      0x24f map_nobinobi_cabin.o
 .debug_abbrev  0x00007abe      0x258 map_shrine.o
 .debug_abbrev  0x00007d16       0x45 sampleMusic.thumb.o
 .debug_abbrev  0x00007d5b       0xb1 sound_crow.o
 .debug_abbrev  0x00007e0c       0xc2 sound_ghost_moan.o
 .debug_abbrev  0x00007ece       0xc2 sound_ghost_moan2.o
 .debug_abbrev  0x00007f90       0xc2 sound_minamohana.o
 .debug_abbrev  0x00008052       0xb1 sound_slash.o
 .debug_abbrev  0x00008103       0x45 sound_test.o
 .debug_abbrev  0x00008148       0xb1 sound_window_hit.o
 .debug_abbrev  0x000081f9       0x45 sprite_alisa_dashbackwardwithsword_down.thumb.o
 .debug_abbrev  0x0000823e       0x45 sprite_alisa_dashbackwardwithsword_side.thumb.o
 .debug_abbrev  0x00008283       0x45 sprite_alisa_dashbackwardwithsword_up.thumb.o
 .debug_abbrev  0x000082c8       0x45 sprite_alisa_dashforwardwithsword_down.thumb.o
 .debug_abbrev  0x0000830d       0x45 sprite_alisa_dashforwardwithsword_side.thumb.o
 .debug_abbrev  0x00008352       0x45 sprite_alisa_dashforwardwithsword_up.thumb.o
 .debug_abbrev  0x00008397       0x45 sprite_alisa_run_down.thumb.o
 .debug_abbrev  0x000083dc       0x45 sprite_alisa_run_up.thumb.o
 .debug_abbrev  0x00008421       0x45 sprite_alisa_runwithsword_down.thumb.o
 .debug_abbrev  0x00008466       0x45 sprite_alisa_runwithsword_side.thumb.o
 .debug_abbrev  0x000084ab       0x45 sprite_alisa_runwithsword_up.thumb.o
 .debug_abbrev  0x000084f0       0x45 sprite_alisa_standwithsword_down.thumb.o
 .debug_abbrev  0x00008535       0x45 sprite_alisa_standwithsword_side.thumb.o
 .debug_abbrev  0x0000857a       0x45 sprite_alisa_standwithsword_up.thumb.o
 .debug_abbrev  0x000085bf       0x45 sprite_alisa_stunnedwithsword_down.thumb.o
 .debug_abbrev  0x00008604       0x45 sprite_alisa_stunnedwithsword_side.thumb.o
 .debug_abbrev  0x00008649       0x45 sprite_alisa_stunnedwithsword_up.thumb.o
 .debug_abbrev  0x0000868e       0x45 sprite_alisa_swordslash_down.thumb.o
 .debug_abbrev  0x000086d3       0x45 sprite_alisa_swordslash_side.thumb.o
 .debug_abbrev  0x00008718       0x45 sprite_alisa_swordslash_up.thumb.o
 .debug_abbrev  0x0000875d       0x45 sprite_character.thumb.o
 .debug_abbrev  0x000087a2       0x45 sprite_crow.thumb.o
 .debug_abbrev  0x000087e7       0x45 sprite_ghostly_hand.thumb.o
 .debug_abbrev  0x0000882c       0x45 sprite_ghostlyman.thumb.o
 .debug_abbrev  0x00008871       0x45 sprite_ghostlyman_lower_float.thumb.o
 .debug_abbrev  0x000088b6       0x45 sprite_ghostlyman_upper_float.thumb.o
 .debug_abbrev  0x000088fb       0x45 sprite_maincharacterlower_stand.thumb.o
 .debug_abbrev  0x00008940       0x45 sprite_maincharacterlower_walk.thumb.o
 .debug_abbrev  0x00008985       0x45 sprite_maincharacterupper_stand.thumb.o
 .debug_abbrev  0x000089ca       0x45 sprite_maincharacterupper_walk.thumb.o
 .debug_abbrev  0x00008a0f       0x45 sprite_sword_side.thumb.o
 .debug_abbrev  0x00008a54       0x45 sprite_sword_vertical.thumb.o
 .debug_abbrev  0x00008a99       0x45 sprite_werewolfarm_down.thumb.o
 .debug_abbrev  0x00008ade       0x45 sprite_werewolfarm_side.thumb.o
 .debug_abbrev  0x00008b23       0x45 sprite_werewolfarm_up.thumb.o
 .debug_abbrev  0x00008b68       0x45 sprite_werewolffeet_run_down.thumb.o
 .debug_abbrev  0x00008bad       0x45 sprite_werewolffeet_run_side.thumb.o
 .debug_abbrev  0x00008bf2       0x45 sprite_werewolffeet_run_up.thumb.o
 .debug_abbrev  0x00008c37       0x45 sprite_werewolftail_side.thumb.o
 .debug_abbrev  0x00008c7c       0x45 sprite_werewolfupperbody_run_down.thumb.o
 .debug_abbrev  0x00008cc1       0x45 sprite_werewolfupperbody_run_side.thumb.o
 .debug_abbrev  0x00008d06       0x45 sprite_werewolfupperbody_run_up.thumb.o
 .debug_abbrev  0x00008d4b       0x45 sprite_zombie_attack_down.thumb.o
 .debug_abbrev  0x00008d90       0x45 sprite_zombie_attack_side.thumb.o
 .debug_abbrev  0x00008dd5       0x45 sprite_zombie_attack_up.thumb.o
 .debug_abbrev  0x00008e1a       0x45 sprite_zombie_stunned_down.thumb.o
 .debug_abbrev  0x00008e5f       0x45 sprite_zombie_stunned_side.thumb.o
 .debug_abbrev  0x00008ea4       0x45 sprite_zombie_stunned_up.thumb.o
 .debug_abbrev  0x00008ee9       0x45 sprite_zombie_walk_down.thumb.o
 .debug_abbrev  0x00008f2e       0x45 sprite_zombie_walk_side.thumb.o
 .debug_abbrev  0x00008f73       0x45 sprite_zombie_walk_up.thumb.o
 .debug_abbrev  0x00008fb8       0xf9 spriteset_alisa_dashbackwardwithsword_down.thumb.o
 .debug_abbrev  0x000090b1       0xf9 spriteset_alisa_dashbackwardwithsword_left.thumb.o
 .debug_abbrev  0x000091aa       0xf9 spriteset_alisa_dashbackwardwithsword_right.thumb.o
 .debug_abbrev  0x000092a3       0xf9 spriteset_alisa_dashbackwardwithsword_up.thumb.o
 .debug_abbrev  0x0000939c       0xf9 spriteset_alisa_dashforwardwithsword_down.thumb.o
 .debug_abbrev  0x00009495       0xf9 spriteset_alisa_dashforwardwithsword_left.thumb.o
 .debug_abbrev  0x0000958e       0xf9 spriteset_alisa_dashforwardwithsword_right.thumb.o
 .debug_abbrev  0x00009687       0xf9 spriteset_alisa_dashforwardwithsword_up.thumb.o
 .debug_abbrev  0x00009780       0xf9 spriteset_alisa_preparedash_down.thumb.o
 .debug_abbrev  0x00009879       0xf9 spriteset_alisa_preparedash_left.thumb.o
 .debug_abbrev  0x00009972       0xf9 spriteset_alisa_preparedash_right.thumb.o
 .debug_abbrev  0x00009a6b       0xf9 spriteset_alisa_preparedash_up.thumb.o
 .debug_abbrev  0x00009b64       0xf9 spriteset_alisa_runwithsword_down.thumb.o
 .debug_abbrev  0x00009c5d       0xf9 spriteset_alisa_runwithsword_left.thumb.o
 .debug_abbrev  0x00009d56       0xf9 spriteset_alisa_runwithsword_right.thumb.o
 .debug_abbrev  0x00009e4f       0xf9 spriteset_alisa_runwithsword_up.thumb.o
 .debug_abbrev  0x00009f48       0xf9 spriteset_alisa_standwithsword_down.thumb.o
 .debug_abbrev  0x0000a041       0xf9 spriteset_alisa_standwithsword_left.thumb.o
 .debug_abbrev  0x0000a13a       0xf9 spriteset_alisa_standwithsword_right.thumb.o
 .debug_abbrev  0x0000a233       0xf9 spriteset_alisa_standwithsword_up.thumb.o
 .debug_abbrev  0x0000a32c       0xf9 spriteset_alisa_stunnedwithsword_down.thumb.o
 .debug_abbrev  0x0000a425       0xf9 spriteset_alisa_stunnedwithsword_left.thumb.o
 .debug_abbrev  0x0000a51e       0xf9 spriteset_alisa_stunnedwithsword_right.thumb.o
 .debug_abbrev  0x0000a617       0xf9 spriteset_alisa_stunnedwithsword_up.thumb.o
 .debug_abbrev  0x0000a710      0x106 spriteset_alisa_swordslash_down.thumb.o
 .debug_abbrev  0x0000a816       0xf9 spriteset_alisa_swordslash_left.thumb.o
 .debug_abbrev  0x0000a90f       0xf9 spriteset_alisa_swordslash_right.thumb.o
 .debug_abbrev  0x0000aa08      0x106 spriteset_alisa_swordslash_up.thumb.o
 .debug_abbrev  0x0000ab0e       0xf9 spriteset_character_stand_left.thumb.o
 .debug_abbrev  0x0000ac07       0xf9 spriteset_character_stand_right.thumb.o
 .debug_abbrev  0x0000ad00       0xf9 spriteset_character_walk_left.thumb.o
 .debug_abbrev  0x0000adf9       0xf9 spriteset_character_walk_right.thumb.o
 .debug_abbrev  0x0000aef2       0xf9 spriteset_crow.thumb.o
 .debug_abbrev  0x0000afeb       0xf9 spriteset_ghosltyman.thumb.o
 .debug_abbrev  0x0000b0e4       0xf9 spriteset_ghosthand_appear.thumb.o
 .debug_abbrev  0x0000b1dd       0xf9 spriteset_ghosthand_hidden.thumb.o
 .debug_abbrev  0x0000b2d6       0xf9 spriteset_ghostlyman_floating.thumb.o
 .debug_abbrev  0x0000b3cf       0xf9 spriteset_maincharacter_stand.thumb.o
 .debug_abbrev  0x0000b4c8       0xf9 spriteset_maincharacter_walk.thumb.o
 .debug_abbrev  0x0000b5c1       0xf9 spriteset_werewolf_run_down.thumb.o
 .debug_abbrev  0x0000b6ba       0xf9 spriteset_werewolf_run_left.thumb.o
 .debug_abbrev  0x0000b7b3       0xf9 spriteset_werewolf_run_right.thumb.o
 .debug_abbrev  0x0000b8ac       0xf9 spriteset_werewolf_run_up.thumb.o
 .debug_abbrev  0x0000b9a5       0xf9 spriteset_werewolf_stand_down.thumb.o
 .debug_abbrev  0x0000ba9e       0xf9 spriteset_werewolf_stand_left.thumb.o
 .debug_abbrev  0x0000bb97       0xf9 spriteset_werewolf_stand_right.thumb.o
 .debug_abbrev  0x0000bc90       0xf9 spriteset_werewolf_stand_up.thumb.o
 .debug_abbrev  0x0000bd89       0xf9 spriteset_zombie_attack_down.thumb.o
 .debug_abbrev  0x0000be82       0xf9 spriteset_zombie_attack_left.thumb.o
 .debug_abbrev  0x0000bf7b       0xf9 spriteset_zombie_attack_right.thumb.o
 .debug_abbrev  0x0000c074       0xf9 spriteset_zombie_attack_up.thumb.o
 .debug_abbrev  0x0000c16d       0xf9 spriteset_zombie_chase_down.thumb.o
 .debug_abbrev  0x0000c266       0xf9 spriteset_zombie_chase_left.thumb.o
 .debug_abbrev  0x0000c35f       0xf9 spriteset_zombie_chase_right.thumb.o
 .debug_abbrev  0x0000c458       0xf9 spriteset_zombie_chase_up.thumb.o
 .debug_abbrev  0x0000c551       0xf9 spriteset_zombie_stunned_down.thumb.o
 .debug_abbrev  0x0000c64a       0xf9 spriteset_zombie_stunned_left.thumb.o
 .debug_abbrev  0x0000c743       0xf9 spriteset_zombie_stunned_right.thumb.o
 .debug_abbrev  0x0000c83c       0xf9 spriteset_zombie_stunned_up.thumb.o
 .debug_abbrev  0x0000c935       0xf9 spriteset_zombie_walk_down.thumb.o
 .debug_abbrev  0x0000ca2e       0xf9 spriteset_zombie_walk_left.thumb.o
 .debug_abbrev  0x0000cb27       0xf9 spriteset_zombie_walk_right.thumb.o
 .debug_abbrev  0x0000cc20       0xf9 spriteset_zombie_walk_up.thumb.o
 .debug_abbrev  0x0000cd19      0x229 testmap.thumb.o
 .debug_abbrev  0x0000cf42       0x45 tile_map_graveyard.o
 .debug_abbrev  0x0000cf87       0x45 tile_map_night_street.o
 .debug_abbrev  0x0000cfcc       0x45 tile_map_nobinobi_cabin.o
 .debug_abbrev  0x0000d011       0x5b tile_map_shrine.o
 .debug_abbrev  0x0000d06c       0x45 tile_mapforest.o
 .debug_abbrev  0x0000d0b1       0x45 tile_mapgraveyard.o
 .debug_abbrev  0x0000d0f6       0x45 tile_mapsnowfield.o

.debug_line     0x00000000     0xdf12
 *(.debug_line)
 .debug_line    0x00000000      0x362 ActionRpg.thumb.o
 .debug_line    0x00000362      0x4a1 CharacterAlisa.thumb.o
 .debug_line    0x00000803      0x537 CharacterAlisaController.thumb.o
 .debug_line    0x00000d3a        0x0 CharacterBoy.thumb.o
 .debug_line    0x00000d3a        0x0 CharacterBoyController.thumb.o
 .debug_line    0x00000d3a      0xca1 CharacterCommon.thumb.o
 .debug_line    0x000019db      0x389 CharacterCrow.thumb.o
 .debug_line    0x00001d64      0x169 CharacterCrowController.thumb.o
 .debug_line    0x00001ecd      0x393 CharacterGhostMan.thumb.o
 .debug_line    0x00002260      0x34b CharacterGhostlyHand.thumb.o
 .debug_line    0x000025ab      0x151 CharacterGhostlyHandController.thumb.o
 .debug_line    0x000026fc      0x195 CharacterGhostmanController.thumb.o
 .debug_line    0x00002891      0x357 CharacterNameless.thumb.o
 .debug_line    0x00002be8      0x132 CharacterNamelessController.thumb.o
 .debug_line    0x00002d1a      0x22b CharacterType.thumb.o
 .debug_line    0x00002f45      0x421 CharacterWerewolf.thumb.o
 .debug_line    0x00003366      0x1f2 CharacterWerewolfController.thumb.o
 .debug_line    0x00003558      0x4c6 CharacterZombie.thumb.o
 .debug_line    0x00003a1e      0x2c1 CharacterZombieController.thumb.o
 .debug_line    0x00003cdf       0xdf GBATimer.thumb.o
 .debug_line    0x00003dbe      0x351 ManagerBG.thumb.o
 .debug_line    0x0000410f      0x40d ManagerCharacters.thumb.o
 .debug_line    0x0000451c      0x2c5 ManagerCharactersActionEvents.thumb.o
 .debug_line    0x000047e1       0x9e ManagerCollision.thumb.o
 .debug_line    0x0000487f      0x100 ManagerEvents.thumb.o
 .debug_line    0x0000497f      0x11c ManagerGame.thumb.o
 .debug_line    0x00004a9b       0xfd ManagerImageCopy.thumb.o
 .debug_line    0x00004b98      0x253 ManagerOAM.thumb.o
 .debug_line    0x00004deb      0x2c8 ManagerPrinter.thumb.o
 .debug_line    0x000050b3      0x3a7 ManagerScrDisplay.thumb.o
 .debug_line    0x0000545a      0x452 ManagerSound.thumb.o
 .debug_line    0x000058ac      0x248 ManagerVram.thumb.o
 .debug_line    0x00005af4       0x8e ManagerWindow.thumb.o
 .debug_line    0x00005b82      0x32c MapCommon.thumb.o
 .debug_line    0x00005eae      0x22d MapForest.o
 .debug_line    0x000060db      0x236 MapGraveyard.thumb.o
 .debug_line    0x00006311      0x230 MapSnowField.o
 .debug_line    0x00006541      0x243 MapTest.thumb.o
 .debug_line    0x00006784       0xbf SpritePlayer.thumb.o
 .debug_line    0x00006843       0xcd SpriteSetAlisa.thumb.o
 .debug_line    0x00006910       0xcb SpriteSetBoy.thumb.o
 .debug_line    0x000069db       0xd6 SpriteSetGhostMan.thumb.o
 .debug_line    0x00006ab1       0xd6 SpriteSetWerewolf.thumb.o
 .debug_line    0x00006b87       0xd4 SpriteSetZombie.thumb.o
 .debug_line    0x00006c5b      0x148 UpdateGameStatus.arm.o
 .debug_line    0x00006da3       0xd2 UtilCommonValues.thumb.o
 .debug_line    0x00006e75      0x1b3 UtilLzssDecompress.thumb.o
 .debug_line    0x00007028       0xe1 genericBG.thumb.o
 .debug_line    0x00007109       0xe2 genericBG2.thumb.o
 .debug_line    0x000071eb      0x22b map_graveyard.o
 .debug_line    0x00007416      0x234 map_night_street.o
 .debug_line    0x0000764a      0x24e map_nobinobi_cabin.o
 .debug_line    0x00007898      0x228 map_shrine.o
 .debug_line    0x00007ac0       0x72 sampleMusic.thumb.o
 .debug_line    0x00007b32       0xc5 sound_crow.o
 .debug_line    0x00007bf7       0xcb sound_ghost_moan.o
 .debug_line    0x00007cc2       0xcc sound_ghost_moan2.o
 .debug_line    0x00007d8e       0xcb sound_minamohana.o
 .debug_line    0x00007e59       0xc6 sound_slash.o
 .debug_line    0x00007f1f       0x6b sound_test.o
 .debug_line    0x00007f8a       0xcb sound_window_hit.o
 .debug_line    0x00008055       0x8e sprite_alisa_dashbackwardwithsword_down.thumb.o
 .debug_line    0x000080e3       0x8e sprite_alisa_dashbackwardwithsword_side.thumb.o
 .debug_line    0x00008171       0x8c sprite_alisa_dashbackwardwithsword_up.thumb.o
 .debug_line    0x000081fd       0x8d sprite_alisa_dashforwardwithsword_down.thumb.o
 .debug_line    0x0000828a       0x8d sprite_alisa_dashforwardwithsword_side.thumb.o
 .debug_line    0x00008317       0x8b sprite_alisa_dashforwardwithsword_up.thumb.o
 .debug_line    0x000083a2       0x7c sprite_alisa_run_down.thumb.o
 .debug_line    0x0000841e       0x7a sprite_alisa_run_up.thumb.o
 .debug_line    0x00008498       0x85 sprite_alisa_runwithsword_down.thumb.o
 .debug_line    0x0000851d       0x85 sprite_alisa_runwithsword_side.thumb.o
 .debug_line    0x000085a2       0x83 sprite_alisa_runwithsword_up.thumb.o
 .debug_line    0x00008625       0x87 sprite_alisa_standwithsword_down.thumb.o
 .debug_line    0x000086ac       0x84 sprite_alisa_standwithsword_side.thumb.o
 .debug_line    0x00008730       0x85 sprite_alisa_standwithsword_up.thumb.o
 .debug_line    0x000087b5       0x89 sprite_alisa_stunnedwithsword_down.thumb.o
 .debug_line    0x0000883e       0x89 sprite_alisa_stunnedwithsword_side.thumb.o
 .debug_line    0x000088c7       0x87 sprite_alisa_stunnedwithsword_up.thumb.o
 .debug_line    0x0000894e       0x83 sprite_alisa_swordslash_down.thumb.o
 .debug_line    0x000089d1       0x83 sprite_alisa_swordslash_side.thumb.o
 .debug_line    0x00008a54       0x81 sprite_alisa_swordslash_up.thumb.o
 .debug_line    0x00008ad5       0x74 sprite_character.thumb.o
 .debug_line    0x00008b49       0x72 sprite_crow.thumb.o
 .debug_line    0x00008bbb       0x7a sprite_ghostly_hand.thumb.o
 .debug_line    0x00008c35       0x78 sprite_ghostlyman.thumb.o
 .debug_line    0x00008cad       0x84 sprite_ghostlyman_lower_float.thumb.o
 .debug_line    0x00008d31       0x84 sprite_ghostlyman_upper_float.thumb.o
 .debug_line    0x00008db5       0x86 sprite_maincharacterlower_stand.thumb.o
 .debug_line    0x00008e3b       0x85 sprite_maincharacterlower_walk.thumb.o
 .debug_line    0x00008ec0       0x86 sprite_maincharacterupper_stand.thumb.o
 .debug_line    0x00008f46       0x85 sprite_maincharacterupper_walk.thumb.o
 .debug_line    0x00008fcb       0x78 sprite_sword_side.thumb.o
 .debug_line    0x00009043       0x7c sprite_sword_vertical.thumb.o
 .debug_line    0x000090bf       0x7e sprite_werewolfarm_down.thumb.o
 .debug_line    0x0000913d       0x7e sprite_werewolfarm_side.thumb.o
 .debug_line    0x000091bb       0x7c sprite_werewolfarm_up.thumb.o
 .debug_line    0x00009237       0x83 sprite_werewolffeet_run_down.thumb.o
 .debug_line    0x000092ba       0x83 sprite_werewolffeet_run_side.thumb.o
 .debug_line    0x0000933d       0x81 sprite_werewolffeet_run_up.thumb.o
 .debug_line    0x000093be       0x7f sprite_werewolftail_side.thumb.o
 .debug_line    0x0000943d       0x88 sprite_werewolfupperbody_run_down.thumb.o
 .debug_line    0x000094c5       0x88 sprite_werewolfupperbody_run_side.thumb.o
 .debug_line    0x0000954d       0x86 sprite_werewolfupperbody_run_up.thumb.o
 .debug_line    0x000095d3       0x80 sprite_zombie_attack_down.thumb.o
 .debug_line    0x00009653       0x80 sprite_zombie_attack_side.thumb.o
 .debug_line    0x000096d3       0x7e sprite_zombie_attack_up.thumb.o
 .debug_line    0x00009751       0x81 sprite_zombie_stunned_down.thumb.o
 .debug_line    0x000097d2       0x81 sprite_zombie_stunned_side.thumb.o
 .debug_line    0x00009853       0x7f sprite_zombie_stunned_up.thumb.o
 .debug_line    0x000098d2       0x7e sprite_zombie_walk_down.thumb.o
 .debug_line    0x00009950       0x7e sprite_zombie_walk_side.thumb.o
 .debug_line    0x000099ce       0x7c sprite_zombie_walk_up.thumb.o
 .debug_line    0x00009a4a      0x108 spriteset_alisa_dashbackwardwithsword_down.thumb.o
 .debug_line    0x00009b52      0x108 spriteset_alisa_dashbackwardwithsword_left.thumb.o
 .debug_line    0x00009c5a      0x109 spriteset_alisa_dashbackwardwithsword_right.thumb.o
 .debug_line    0x00009d63      0x106 spriteset_alisa_dashbackwardwithsword_up.thumb.o
 .debug_line    0x00009e69      0x107 spriteset_alisa_dashforwardwithsword_down.thumb.o
 .debug_line    0x00009f70      0x107 spriteset_alisa_dashforwardwithsword_left.thumb.o
 .debug_line    0x0000a077      0x108 spriteset_alisa_dashforwardwithsword_right.thumb.o
 .debug_line    0x0000a17f      0x105 spriteset_alisa_dashforwardwithsword_up.thumb.o
 .debug_line    0x0000a284       0xfe spriteset_alisa_preparedash_down.thumb.o
 .debug_line    0x0000a382       0xfe spriteset_alisa_preparedash_left.thumb.o
 .debug_line    0x0000a480       0xff spriteset_alisa_preparedash_right.thumb.o
 .debug_line    0x0000a57f       0xfc spriteset_alisa_preparedash_up.thumb.o
 .debug_line    0x0000a67b       0xff spriteset_alisa_runwithsword_down.thumb.o
 .debug_line    0x0000a77a       0xff spriteset_alisa_runwithsword_left.thumb.o
 .debug_line    0x0000a879      0x100 spriteset_alisa_runwithsword_right.thumb.o
 .debug_line    0x0000a979       0xfd spriteset_alisa_runwithsword_up.thumb.o
 .debug_line    0x0000aa76      0x101 spriteset_alisa_standwithsword_down.thumb.o
 .debug_line    0x0000ab77      0x101 spriteset_alisa_standwithsword_left.thumb.o
 .debug_line    0x0000ac78      0x102 spriteset_alisa_standwithsword_right.thumb.o
 .debug_line    0x0000ad7a       0xff spriteset_alisa_standwithsword_up.thumb.o
 .debug_line    0x0000ae79      0x103 spriteset_alisa_stunnedwithsword_down.thumb.o
 .debug_line    0x0000af7c      0x103 spriteset_alisa_stunnedwithsword_left.thumb.o
 .debug_line    0x0000b07f      0x104 spriteset_alisa_stunnedwithsword_right.thumb.o
 .debug_line    0x0000b183      0x101 spriteset_alisa_stunnedwithsword_up.thumb.o
 .debug_line    0x0000b284       0xfd spriteset_alisa_swordslash_down.thumb.o
 .debug_line    0x0000b381       0xfd spriteset_alisa_swordslash_left.thumb.o
 .debug_line    0x0000b47e       0xfe spriteset_alisa_swordslash_right.thumb.o
 .debug_line    0x0000b57c       0xfb spriteset_alisa_swordslash_up.thumb.o
 .debug_line    0x0000b677       0xfa spriteset_character_stand_left.thumb.o
 .debug_line    0x0000b771       0xfb spriteset_character_stand_right.thumb.o
 .debug_line    0x0000b86c       0xf9 spriteset_character_walk_left.thumb.o
 .debug_line    0x0000b965       0xfa spriteset_character_walk_right.thumb.o
 .debug_line    0x0000ba5f       0xf3 spriteset_crow.thumb.o
 .debug_line    0x0000bb52       0xff spriteset_ghosltyman.thumb.o
 .debug_line    0x0000bc51      0x107 spriteset_ghosthand_appear.thumb.o
 .debug_line    0x0000bd58      0x107 spriteset_ghosthand_hidden.thumb.o
 .debug_line    0x0000be5f      0x137 spriteset_ghostlyman_floating.thumb.o
 .debug_line    0x0000bf96      0x13b spriteset_maincharacter_stand.thumb.o
 .debug_line    0x0000c0d1      0x138 spriteset_maincharacter_walk.thumb.o
 .debug_line    0x0000c209      0x102 spriteset_werewolf_run_down.thumb.o
 .debug_line    0x0000c30b      0x102 spriteset_werewolf_run_left.thumb.o
 .debug_line    0x0000c40d      0x103 spriteset_werewolf_run_right.thumb.o
 .debug_line    0x0000c510      0x100 spriteset_werewolf_run_up.thumb.o
 .debug_line    0x0000c610      0x104 spriteset_werewolf_stand_down.thumb.o
 .debug_line    0x0000c714      0x104 spriteset_werewolf_stand_left.thumb.o
 .debug_line    0x0000c818      0x105 spriteset_werewolf_stand_right.thumb.o
 .debug_line    0x0000c91d      0x102 spriteset_werewolf_stand_up.thumb.o
 .debug_line    0x0000ca1f      0x101 spriteset_zombie_attack_down.thumb.o
 .debug_line    0x0000cb20      0x101 spriteset_zombie_attack_left.thumb.o
 .debug_line    0x0000cc21      0x102 spriteset_zombie_attack_right.thumb.o
 .debug_line    0x0000cd23       0xff spriteset_zombie_attack_up.thumb.o
 .debug_line    0x0000ce22      0x100 spriteset_zombie_chase_down.thumb.o
 .debug_line    0x0000cf22      0x100 spriteset_zombie_chase_left.thumb.o
 .debug_line    0x0000d022      0x101 spriteset_zombie_chase_right.thumb.o
 .debug_line    0x0000d123       0xfe spriteset_zombie_chase_up.thumb.o
 .debug_line    0x0000d221      0x102 spriteset_zombie_stunned_down.thumb.o
 .debug_line    0x0000d323      0x102 spriteset_zombie_stunned_left.thumb.o
 .debug_line    0x0000d425      0x103 spriteset_zombie_stunned_right.thumb.o
 .debug_line    0x0000d528      0x100 spriteset_zombie_stunned_up.thumb.o
 .debug_line    0x0000d628       0xff spriteset_zombie_walk_down.thumb.o
 .debug_line    0x0000d727       0xff spriteset_zombie_walk_left.thumb.o
 .debug_line    0x0000d826      0x100 spriteset_zombie_walk_right.thumb.o
 .debug_line    0x0000d926       0xfd spriteset_zombie_walk_up.thumb.o
 .debug_line    0x0000da23      0x1d1 testmap.thumb.o
 .debug_line    0x0000dbf4       0x70 tile_map_graveyard.o
 .debug_line    0x0000dc64       0x76 tile_map_night_street.o
 .debug_line    0x0000dcda       0x78 tile_map_nobinobi_cabin.o
 .debug_line    0x0000dd52       0x6d tile_map_shrine.o
 .debug_line    0x0000ddbf       0x6f tile_mapforest.o
 .debug_line    0x0000de2e       0x72 tile_mapgraveyard.o
 .debug_line    0x0000dea0       0x72 tile_mapsnowfield.o

.debug_frame    0x00000000     0x1ef4
 *(.debug_frame)
 .debug_frame   0x00000000       0x60 ActionRpg.thumb.o
 .debug_frame   0x00000060      0x1dc CharacterAlisa.thumb.o
 .debug_frame   0x0000023c      0x130 CharacterAlisaController.thumb.o
 .debug_frame   0x0000036c      0x7a4 CharacterCommon.thumb.o
 .debug_frame   0x00000b10       0xb8 CharacterCrow.thumb.o
 .debug_frame   0x00000bc8       0x38 CharacterCrowController.thumb.o
 .debug_frame   0x00000c00       0xf4 CharacterGhostMan.thumb.o
 .debug_frame   0x00000cf4       0xd0 CharacterGhostlyHand.thumb.o
 .debug_frame   0x00000dc4       0x30 CharacterGhostlyHandController.thumb.o
 .debug_frame   0x00000df4       0x70 CharacterGhostmanController.thumb.o
 .debug_frame   0x00000e64       0xd4 CharacterNameless.thumb.o
 .debug_frame   0x00000f38       0x30 CharacterNamelessController.thumb.o
 .debug_frame   0x00000f68      0x164 CharacterWerewolf.thumb.o
 .debug_frame   0x000010cc       0x88 CharacterWerewolfController.thumb.o
 .debug_frame   0x00001154      0x1b4 CharacterZombie.thumb.o
 .debug_frame   0x00001308       0xc4 CharacterZombieController.thumb.o
 .debug_frame   0x000013cc       0x40 GBATimer.thumb.o
 .debug_frame   0x0000140c      0x12c ManagerBG.thumb.o
 .debug_frame   0x00001538      0x1b0 ManagerCharacters.thumb.o
 .debug_frame   0x000016e8       0x6c ManagerCharactersActionEvents.thumb.o
 .debug_frame   0x00001754       0x30 ManagerEvents.thumb.o
 .debug_frame   0x00001784       0x20 ManagerGame.thumb.o
 .debug_frame   0x000017a4       0x38 ManagerImageCopy.thumb.o
 .debug_frame   0x000017dc       0x4c ManagerOAM.thumb.o
 .debug_frame   0x00001828       0xe8 ManagerPrinter.thumb.o
 .debug_frame   0x00001910      0x174 ManagerScrDisplay.thumb.o
 .debug_frame   0x00001a84      0x14c ManagerSound.thumb.o
 .debug_frame   0x00001bd0      0x17c ManagerVram.thumb.o
 .debug_frame   0x00001d4c       0xac MapCommon.thumb.o
 .debug_frame   0x00001df8       0x30 MapTest.thumb.o
 .debug_frame   0x00001e28       0x2c UpdateGameStatus.arm.o
 .debug_frame   0x00001e54       0x64 UtilLzssDecompress.thumb.o
 .debug_frame   0x00001eb8       0x3c testmap.thumb.o

.debug_str      0x00000000     0xd5d1
 *(.debug_str)
 .debug_str     0x00000000     0x1331 ActionRpg.thumb.o
                               0x152b (size before relaxing)
 .debug_str     0x00001331      0x7b5 CharacterAlisa.thumb.o
                               0x18a8 (size before relaxing)
 .debug_str     0x00001ae6      0x278 CharacterAlisaController.thumb.o
                                0xf21 (size before relaxing)
 .debug_str     0x00001d5e       0x50 CharacterBoy.thumb.o
                                 0xde (size before relaxing)
 .debug_str     0x00001dae       0x5a CharacterBoyController.thumb.o
                                 0xe8 (size before relaxing)
 .debug_str     0x00001e08      0x783 CharacterCommon.thumb.o
                               0x199b (size before relaxing)
 .debug_str     0x0000258b      0x1e4 CharacterCrow.thumb.o
                               0x154c (size before relaxing)
 .debug_str     0x0000276f       0x80 CharacterCrowController.thumb.o
                                0xacf (size before relaxing)
 .debug_str     0x000027ef      0x2b8 CharacterGhostMan.thumb.o
                               0x164f (size before relaxing)
 .debug_str     0x00002aa7      0x22f CharacterGhostlyHand.thumb.o
                               0x15bf (size before relaxing)
 .debug_str     0x00002cd6       0x95 CharacterGhostlyHandController.thumb.o
                                0xa8e (size before relaxing)
 .debug_str     0x00002d6b       0xd8 CharacterGhostmanController.thumb.o
                                0xbab (size before relaxing)
 .debug_str     0x00002e43      0x204 CharacterNameless.thumb.o
                               0x14c6 (size before relaxing)
 .debug_str     0x00003047       0x8c CharacterNamelessController.thumb.o
                                0x835 (size before relaxing)
 .debug_str     0x000030d3       0x54 CharacterType.thumb.o
                                0xc94 (size before relaxing)
 .debug_str     0x00003127      0x33f CharacterWerewolf.thumb.o
                               0x17ab (size before relaxing)
 .debug_str     0x00003466      0x123 CharacterWerewolfController.thumb.o
                                0xba7 (size before relaxing)
 .debug_str     0x00003589      0x6d4 CharacterZombie.thumb.o
                               0x1be2 (size before relaxing)
 .debug_str     0x00003c5d      0x16b CharacterZombieController.thumb.o
                                0x9c6 (size before relaxing)
 .debug_str     0x00003dc8       0x8c GBATimer.thumb.o
                                0x166 (size before relaxing)
 .debug_str     0x00003e54      0x336 ManagerBG.thumb.o
                               0x1173 (size before relaxing)
 .debug_str     0x0000418a      0x151 ManagerCharacters.thumb.o
                               0x1369 (size before relaxing)
 .debug_str     0x000042db       0xa7 ManagerCharactersActionEvents.thumb.o
                                0xe0b (size before relaxing)
 .debug_str     0x00004382       0x57 ManagerCollision.thumb.o
                                0x3bd (size before relaxing)
 .debug_str     0x000043d9       0xed ManagerEvents.thumb.o
                                0x8a6 (size before relaxing)
 .debug_str     0x000044c6      0x1de ManagerGame.thumb.o
                                0x2d9 (size before relaxing)
 .debug_str     0x000046a4       0x96 ManagerImageCopy.thumb.o
                                0x7ce (size before relaxing)
 .debug_str     0x0000473a       0x6d ManagerOAM.thumb.o
                                0x74f (size before relaxing)
 .debug_str     0x000047a7      0x1e2 ManagerPrinter.thumb.o
                                0x3da (size before relaxing)
 .debug_str     0x00004989      0x267 ManagerScrDisplay.thumb.o
                                0xc69 (size before relaxing)
 .debug_str     0x00004bf0      0x23e ManagerSound.thumb.o
                                0xa50 (size before relaxing)
 .debug_str     0x00004e2e      0x1dd ManagerVram.thumb.o
                                0x44b (size before relaxing)
 .debug_str     0x0000500b       0x54 ManagerWindow.thumb.o
                                0x2dc (size before relaxing)
 .debug_str     0x0000505f       0xe6 MapCommon.thumb.o
                               0x1130 (size before relaxing)
 .debug_str     0x00005145      0x1fb MapForest.o
                                0xb37 (size before relaxing)
 .debug_str     0x00005340      0x151 MapGraveyard.thumb.o
                                0xaf4 (size before relaxing)
 .debug_str     0x00005491      0x315 MapSnowField.o
                                0xcb2 (size before relaxing)
 .debug_str     0x000057a6      0x103 MapTest.thumb.o
                                0xaae (size before relaxing)
 .debug_str     0x000058a9      0x2d5 SpritePlayer.thumb.o
                                0x3b0 (size before relaxing)
 .debug_str     0x00005b7e      0x33b SpriteSetAlisa.thumb.o
                                0x54d (size before relaxing)
 .debug_str     0x00005eb9       0xa4 SpriteSetBoy.thumb.o
                                0x246 (size before relaxing)
 .debug_str     0x00005f5d       0x81 SpriteSetGhostMan.thumb.o
                                0x22f (size before relaxing)
 .debug_str     0x00005fde       0xee SpriteSetWerewolf.thumb.o
                                0x296 (size before relaxing)
 .debug_str     0x000060cc      0x17a SpriteSetZombie.thumb.o
                                0x33a (size before relaxing)
 .debug_str     0x00006246       0xcd UpdateGameStatus.arm.o
                                0x3df (size before relaxing)
 .debug_str     0x00006313       0x57 UtilCommonValues.thumb.o
                                0x2ec (size before relaxing)
 .debug_str     0x0000636a      0x11c UtilLzssDecompress.thumb.o
                                0x402 (size before relaxing)
 .debug_str     0x00006486       0x9a genericBG.thumb.o
                                0x32f (size before relaxing)
 .debug_str     0x00006520       0xa4 genericBG2.thumb.o
                                0x32c (size before relaxing)
 .debug_str     0x000065c4      0x1ae map_graveyard.o
                                0xb61 (size before relaxing)
 .debug_str     0x00006772      0x273 map_night_street.o
                                0xb7b (size before relaxing)
 .debug_str     0x000069e5      0x354 map_nobinobi_cabin.o
                                0xd30 (size before relaxing)
 .debug_str     0x00006d39      0x209 map_shrine.o
                                0xc30 (size before relaxing)
 .debug_str     0x00006f42       0x59 sampleMusic.thumb.o
                                 0xfc (size before relaxing)
 .debug_str     0x00006f9b       0x56 sound_crow.o
                                0x164 (size before relaxing)
 .debug_str     0x00006ff1       0x62 sound_ghost_moan.o
                                0x176 (size before relaxing)
 .debug_str     0x00007053       0x88 sound_ghost_moan2.o
                                0x1cd (size before relaxing)
 .debug_str     0x000070db       0x51 sound_minamohana.o
                                0x16a (size before relaxing)
 .debug_str     0x0000712c       0x4c sound_slash.o
                                0x161 (size before relaxing)
 .debug_str     0x00007178       0x57 sound_test.o
                                 0xfb (size before relaxing)
 .debug_str     0x000071cf       0x62 sound_window_hit.o
                                0x176 (size before relaxing)
 .debug_str     0x00007231       0xe3 sprite_alisa_dashbackwardwithsword_down.thumb.o
                                0x194 (size before relaxing)
 .debug_str     0x00007314      0x10b sprite_alisa_dashbackwardwithsword_side.thumb.o
                                0x1bc (size before relaxing)
 .debug_str     0x0000741f       0xdb sprite_alisa_dashbackwardwithsword_up.thumb.o
                                0x18c (size before relaxing)
 .debug_str     0x000074fa      0x17b sprite_alisa_dashforwardwithsword_down.thumb.o
                                0x22c (size before relaxing)
 .debug_str     0x00007675      0x17b sprite_alisa_dashforwardwithsword_side.thumb.o
                                0x22c (size before relaxing)
 .debug_str     0x000077f0      0x16b sprite_alisa_dashforwardwithsword_up.thumb.o
                                0x21c (size before relaxing)
 .debug_str     0x0000795b       0xf3 sprite_alisa_run_down.thumb.o
                                0x1a4 (size before relaxing)
 .debug_str     0x00007a4e       0xe3 sprite_alisa_run_up.thumb.o
                                0x194 (size before relaxing)
 .debug_str     0x00007b31      0x13b sprite_alisa_runwithsword_down.thumb.o
                                0x1ec (size before relaxing)
 .debug_str     0x00007c6c      0x13b sprite_alisa_runwithsword_side.thumb.o
                                0x1ec (size before relaxing)
 .debug_str     0x00007da7      0x12b sprite_alisa_runwithsword_up.thumb.o
                                0x1dc (size before relaxing)
 .debug_str     0x00007ed2       0xa6 sprite_alisa_standwithsword_down.thumb.o
                                0x157 (size before relaxing)
 .debug_str     0x00007f78       0x85 sprite_alisa_standwithsword_side.thumb.o
                                0x151 (size before relaxing)
 .debug_str     0x00007ffd       0xbf sprite_alisa_standwithsword_up.thumb.o
                                0x170 (size before relaxing)
 .debug_str     0x000080bc       0xcf sprite_alisa_stunnedwithsword_down.thumb.o
                                0x180 (size before relaxing)
 .debug_str     0x0000818b       0xcf sprite_alisa_stunnedwithsword_side.thumb.o
                                0x180 (size before relaxing)
 .debug_str     0x0000825a       0xc7 sprite_alisa_stunnedwithsword_up.thumb.o
                                0x178 (size before relaxing)
 .debug_str     0x00008321       0xf1 sprite_alisa_swordslash_down.thumb.o
                                0x1a2 (size before relaxing)
 .debug_str     0x00008412       0xf1 sprite_alisa_swordslash_side.thumb.o
                                0x1a2 (size before relaxing)
 .debug_str     0x00008503       0xe5 sprite_alisa_swordslash_up.thumb.o
                                0x196 (size before relaxing)
 .debug_str     0x000085e8       0x54 sprite_character.thumb.o
                                0x157 (size before relaxing)
 .debug_str     0x0000863c       0x52 sprite_crow.thumb.o
                                0x118 (size before relaxing)
 .debug_str     0x0000868e       0xaa sprite_ghostly_hand.thumb.o
                                0x16c (size before relaxing)
 .debug_str     0x00008738       0x6a sprite_ghostlyman.thumb.o
                                0x12a (size before relaxing)
 .debug_str     0x000087a2       0x9d sprite_ghostlyman_lower_float.thumb.o
                                0x14e (size before relaxing)
 .debug_str     0x0000883f       0x9d sprite_ghostlyman_upper_float.thumb.o
                                0x14e (size before relaxing)
 .debug_str     0x000088dc       0x66 sprite_maincharacterlower_stand.thumb.o
                                0x154 (size before relaxing)
 .debug_str     0x00008942      0x11f sprite_maincharacterlower_walk.thumb.o
                                0x1ec (size before relaxing)
 .debug_str     0x00008a61       0xa3 sprite_maincharacterupper_stand.thumb.o
                                0x154 (size before relaxing)
 .debug_str     0x00008b04      0x13b sprite_maincharacterupper_walk.thumb.o
                                0x1ec (size before relaxing)
 .debug_str     0x00008c3f       0x58 sprite_sword_side.thumb.o
                                0x160 (size before relaxing)
 .debug_str     0x00008c97       0xb1 sprite_sword_vertical.thumb.o
                                0x162 (size before relaxing)
 .debug_str     0x00008d48       0x8b sprite_werewolfarm_down.thumb.o
                                0x13c (size before relaxing)
 .debug_str     0x00008dd3       0x8b sprite_werewolfarm_side.thumb.o
                                0x13c (size before relaxing)
 .debug_str     0x00008e5e       0x85 sprite_werewolfarm_up.thumb.o
                                0x136 (size before relaxing)
 .debug_str     0x00008ee3       0xd4 sprite_werewolffeet_run_down.thumb.o
                                0x185 (size before relaxing)
 .debug_str     0x00008fb7      0x10e sprite_werewolffeet_run_side.thumb.o
                                0x1bf (size before relaxing)
 .debug_str     0x000090c5       0xca sprite_werewolffeet_run_up.thumb.o
                                0x17b (size before relaxing)
 .debug_str     0x0000918f       0x8e sprite_werewolftail_side.thumb.o
                                0x13f (size before relaxing)
 .debug_str     0x0000921d       0xac sprite_werewolfupperbody_run_down.thumb.o
                                0x17c (size before relaxing)
 .debug_str     0x000092c9       0xed sprite_werewolfupperbody_run_side.thumb.o
                                0x19e (size before relaxing)
 .debug_str     0x000093b6       0xe3 sprite_werewolfupperbody_run_up.thumb.o
                                0x194 (size before relaxing)
 .debug_str     0x00009499       0x60 sprite_zombie_attack_down.thumb.o
                                0x1aa (size before relaxing)
 .debug_str     0x000094f9       0x60 sprite_zombie_attack_side.thumb.o
                                0x1aa (size before relaxing)
 .debug_str     0x00009559       0x5e sprite_zombie_attack_up.thumb.o
                                0x19c (size before relaxing)
 .debug_str     0x000095b7       0x61 sprite_zombie_stunned_down.thumb.o
                                0x145 (size before relaxing)
 .debug_str     0x00009618       0x61 sprite_zombie_stunned_side.thumb.o
                                0x145 (size before relaxing)
 .debug_str     0x00009679       0x5f sprite_zombie_stunned_up.thumb.o
                                0x13f (size before relaxing)
 .debug_str     0x000096d8       0x5e sprite_zombie_walk_down.thumb.o
                                0x184 (size before relaxing)
 .debug_str     0x00009736       0x5e sprite_zombie_walk_side.thumb.o
                                0x184 (size before relaxing)
 .debug_str     0x00009794       0x5c sprite_zombie_walk_up.thumb.o
                                0x178 (size before relaxing)
 .debug_str     0x000097f0      0x2b9 spriteset_alisa_dashbackwardwithsword_down.thumb.o
                               0x1156 (size before relaxing)
 .debug_str     0x00009aa9       0xee spriteset_alisa_dashbackwardwithsword_left.thumb.o
                               0x1156 (size before relaxing)
 .debug_str     0x00009b97       0xf2 spriteset_alisa_dashbackwardwithsword_right.thumb.o
                               0x115b (size before relaxing)
 .debug_str     0x00009c89       0xe6 spriteset_alisa_dashbackwardwithsword_up.thumb.o
                               0x114c (size before relaxing)
 .debug_str     0x00009d6f      0x13e spriteset_alisa_dashforwardwithsword_down.thumb.o
                               0x11a5 (size before relaxing)
 .debug_str     0x00009ead      0x13e spriteset_alisa_dashforwardwithsword_left.thumb.o
                               0x11a5 (size before relaxing)
 .debug_str     0x00009feb      0x144 spriteset_alisa_dashforwardwithsword_right.thumb.o
                               0x11ac (size before relaxing)
 .debug_str     0x0000a12f      0x132 spriteset_alisa_dashforwardwithsword_up.thumb.o
                               0x1197 (size before relaxing)
 .debug_str     0x0000a261       0xa5 spriteset_alisa_preparedash_down.thumb.o
                               0x1103 (size before relaxing)
 .debug_str     0x0000a306       0xa5 spriteset_alisa_preparedash_left.thumb.o
                               0x1103 (size before relaxing)
 .debug_str     0x0000a3ab       0xa8 spriteset_alisa_preparedash_right.thumb.o
                               0x1107 (size before relaxing)
 .debug_str     0x0000a453       0x9f spriteset_alisa_preparedash_up.thumb.o
                               0x10fb (size before relaxing)
 .debug_str     0x0000a4f2      0x152 spriteset_alisa_runwithsword_down.thumb.o
                               0x11b1 (size before relaxing)
 .debug_str     0x0000a644      0x152 spriteset_alisa_runwithsword_left.thumb.o
                               0x11b1 (size before relaxing)
 .debug_str     0x0000a796      0x15a spriteset_alisa_runwithsword_right.thumb.o
                               0x11ba (size before relaxing)
 .debug_str     0x0000a8f0      0x142 spriteset_alisa_runwithsword_up.thumb.o
                               0x119f (size before relaxing)
 .debug_str     0x0000aa32       0xae spriteset_alisa_standwithsword_down.thumb.o
                               0x110f (size before relaxing)
 .debug_str     0x0000aae0       0xae spriteset_alisa_standwithsword_left.thumb.o
                               0x110f (size before relaxing)
 .debug_str     0x0000ab8e       0xb1 spriteset_alisa_standwithsword_right.thumb.o
                               0x1113 (size before relaxing)
 .debug_str     0x0000ac3f       0xa8 spriteset_alisa_standwithsword_up.thumb.o
                               0x1107 (size before relaxing)
 .debug_str     0x0000ace7       0xb4 spriteset_alisa_stunnedwithsword_down.thumb.o
                               0x1117 (size before relaxing)
 .debug_str     0x0000ad9b       0xb4 spriteset_alisa_stunnedwithsword_left.thumb.o
                               0x1117 (size before relaxing)
 .debug_str     0x0000ae4f       0xb7 spriteset_alisa_stunnedwithsword_right.thumb.o
                               0x111b (size before relaxing)
 .debug_str     0x0000af06       0xae spriteset_alisa_stunnedwithsword_up.thumb.o
                               0x110f (size before relaxing)
 .debug_str     0x0000afb4       0x82 spriteset_alisa_swordslash_down.thumb.o
                               0x10df (size before relaxing)
 .debug_str     0x0000b036      0x102 spriteset_alisa_swordslash_left.thumb.o
                               0x115f (size before relaxing)
 .debug_str     0x0000b138      0x108 spriteset_alisa_swordslash_right.thumb.o
                               0x1166 (size before relaxing)
 .debug_str     0x0000b240       0x7e spriteset_alisa_swordslash_up.thumb.o
                               0x10d9 (size before relaxing)
 .debug_str     0x0000b2be       0x9f spriteset_character_stand_left.thumb.o
                                0x36d (size before relaxing)
 .debug_str     0x0000b35d       0xa2 spriteset_character_stand_right.thumb.o
                                0x371 (size before relaxing)
 .debug_str     0x0000b3ff       0xf6 spriteset_character_walk_left.thumb.o
                                0x3c3 (size before relaxing)
 .debug_str     0x0000b4f5       0xfc spriteset_character_walk_right.thumb.o
                                0x3ca (size before relaxing)
 .debug_str     0x0000b5f1       0x72 spriteset_crow.thumb.o
                                0x2fc (size before relaxing)
 .debug_str     0x0000b663       0x79 spriteset_ghosltyman.thumb.o
                                0x34a (size before relaxing)
 .debug_str     0x0000b6dc      0x11d spriteset_ghosthand_appear.thumb.o
                                0x3f6 (size before relaxing)
 .debug_str     0x0000b7f9       0x96 spriteset_ghosthand_hidden.thumb.o
                                0x36f (size before relaxing)
 .debug_str     0x0000b88f       0x9f spriteset_ghostlyman_floating.thumb.o
                                0x38c (size before relaxing)
 .debug_str     0x0000b92e       0x9f spriteset_maincharacter_stand.thumb.o
                                0x394 (size before relaxing)
 .debug_str     0x0000b9cd      0x12d spriteset_maincharacter_walk.thumb.o
                                0x553 (size before relaxing)
 .debug_str     0x0000bafa      0x15d spriteset_werewolf_run_down.thumb.o
                                0x772 (size before relaxing)
 .debug_str     0x0000bc57      0x15d spriteset_werewolf_run_left.thumb.o
                                0x772 (size before relaxing)
 .debug_str     0x0000bdb4      0x167 spriteset_werewolf_run_right.thumb.o
                                0x77d (size before relaxing)
 .debug_str     0x0000bf1b      0x149 spriteset_werewolf_run_up.thumb.o
                                0x75c (size before relaxing)
 .debug_str     0x0000c064       0xf9 spriteset_werewolf_stand_down.thumb.o
                                0x710 (size before relaxing)
 .debug_str     0x0000c15d       0xf9 spriteset_werewolf_stand_left.thumb.o
                                0x710 (size before relaxing)
 .debug_str     0x0000c256       0xff spriteset_werewolf_stand_right.thumb.o
                                0x717 (size before relaxing)
 .debug_str     0x0000c355       0xed spriteset_werewolf_stand_up.thumb.o
                                0x702 (size before relaxing)
 .debug_str     0x0000c442      0x12d spriteset_zombie_attack_down.thumb.o
                                0x750 (size before relaxing)
 .debug_str     0x0000c56f      0x12d spriteset_zombie_attack_left.thumb.o
                                0x750 (size before relaxing)
 .debug_str     0x0000c69c      0x135 spriteset_zombie_attack_right.thumb.o
                                0x759 (size before relaxing)
 .debug_str     0x0000c7d1      0x11d spriteset_zombie_attack_up.thumb.o
                                0x73e (size before relaxing)
 .debug_str     0x0000c8ee       0xed spriteset_zombie_chase_down.thumb.o
                                0x70f (size before relaxing)
 .debug_str     0x0000c9db       0xed spriteset_zombie_chase_left.thumb.o
                                0x70f (size before relaxing)
 .debug_str     0x0000cac8       0xf3 spriteset_zombie_chase_right.thumb.o
                                0x716 (size before relaxing)
 .debug_str     0x0000cbbb       0xe1 spriteset_zombie_chase_up.thumb.o
                                0x701 (size before relaxing)
 .debug_str     0x0000cc9c       0x9f spriteset_zombie_stunned_down.thumb.o
                                0x6c3 (size before relaxing)
 .debug_str     0x0000cd3b       0x9f spriteset_zombie_stunned_left.thumb.o
                                0x6c3 (size before relaxing)
 .debug_str     0x0000cdda       0xa2 spriteset_zombie_stunned_right.thumb.o
                                0x6c7 (size before relaxing)
 .debug_str     0x0000ce7c       0x99 spriteset_zombie_stunned_up.thumb.o
                                0x6bb (size before relaxing)
 .debug_str     0x0000cf15       0xe7 spriteset_zombie_walk_down.thumb.o
                                0x708 (size before relaxing)
 .debug_str     0x0000cffc       0xe7 spriteset_zombie_walk_left.thumb.o
                                0x708 (size before relaxing)
 .debug_str     0x0000d0e3       0xed spriteset_zombie_walk_right.thumb.o
                                0x70f (size before relaxing)
 .debug_str     0x0000d1d0       0xdb spriteset_zombie_walk_up.thumb.o
                                0x6fa (size before relaxing)
 .debug_str     0x0000d2ab       0xe8 testmap.thumb.o
                                0x46d (size before relaxing)
 .debug_str     0x0000d393       0x50 tile_map_graveyard.o
                                0x16e (size before relaxing)
 .debug_str     0x0000d3e3       0x56 tile_map_night_street.o
                                0x1cc (size before relaxing)
 .debug_str     0x0000d439       0x58 tile_map_nobinobi_cabin.o
                                0x234 (size before relaxing)
 .debug_str     0x0000d491       0x4d tile_map_shrine.o
                                0x20a (size before relaxing)
 .debug_str     0x0000d4de       0x4f tile_mapforest.o
                                0x17c (size before relaxing)
 .debug_str     0x0000d52d       0x52 tile_mapgraveyard.o
                                0x133 (size before relaxing)
 .debug_str     0x0000d57f       0x52 tile_mapsnowfield.o
                                0x231 (size before relaxing)

.debug_loc      0x00000000     0xb467
 *(.debug_loc)
 .debug_loc     0x00000000       0x78 ActionRpg.thumb.o
 .debug_loc     0x00000078      0x7c3 CharacterAlisa.thumb.o
 .debug_loc     0x0000083b      0x94a CharacterAlisaController.thumb.o
 .debug_loc     0x00001185     0x3a8f CharacterCommon.thumb.o
 .debug_loc     0x00004c14      0x346 CharacterCrow.thumb.o
 .debug_loc     0x00004f5a       0xae CharacterCrowController.thumb.o
 .debug_loc     0x00005008      0x3dd CharacterGhostMan.thumb.o
 .debug_loc     0x000053e5      0x2a8 CharacterGhostlyHand.thumb.o
 .debug_loc     0x0000568d       0x21 CharacterGhostlyHandController.thumb.o
 .debug_loc     0x000056ae      0x17a CharacterGhostmanController.thumb.o
 .debug_loc     0x00005828      0x30a CharacterNameless.thumb.o
 .debug_loc     0x00005b32      0x82b CharacterWerewolf.thumb.o
 .debug_loc     0x0000635d      0x1dd CharacterWerewolfController.thumb.o
 .debug_loc     0x0000653a      0x9c6 CharacterZombie.thumb.o
 .debug_loc     0x00006f00      0x5e1 CharacterZombieController.thumb.o
 .debug_loc     0x000074e1       0x2f GBATimer.thumb.o
 .debug_loc     0x00007510      0x7ef ManagerBG.thumb.o
 .debug_loc     0x00007cff      0x71c ManagerCharacters.thumb.o
 .debug_loc     0x0000841b      0x1e5 ManagerCharactersActionEvents.thumb.o
 .debug_loc     0x00008600       0x4f ManagerGame.thumb.o
 .debug_loc     0x0000864f       0x5b ManagerOAM.thumb.o
 .debug_loc     0x000086aa      0x411 ManagerPrinter.thumb.o
 .debug_loc     0x00008abb      0xd62 ManagerScrDisplay.thumb.o
 .debug_loc     0x0000981d      0x7ec ManagerSound.thumb.o
 .debug_loc     0x0000a009      0xcb7 ManagerVram.thumb.o
 .debug_loc     0x0000acc0      0x235 MapCommon.thumb.o
 .debug_loc     0x0000aef5      0x3d7 UtilLzssDecompress.thumb.o
 .debug_loc     0x0000b2cc      0x19b testmap.thumb.o

.debug_macinfo
 *(.debug_macinfo)

.debug_weaknames
 *(.debug_weaknames)

.debug_funcnames
 *(.debug_funcnames)

.debug_typenames
 *(.debug_typenames)

.debug_varnames
 *(.debug_varnames)

.stack          0x00080000        0x0
                0x00080000                _stack = .
 *(.stack)

.note.gnu.arm.ident
 *(.note.gnu.arm.ident)

.ARM.attributes
                0x00000000       0x2c
 *(.ARM.attributes)
 .ARM.attributes
                0x00000000       0x20 c:/devkitpro/devkitarm/bin/../lib/gcc/arm-none-eabi/7.1.0/../../../../arm-none-eabi/lib/gba_crt0.o
 .ARM.attributes
                0x00000020       0x16 c:/devkitpro/devkitarm/bin/../lib/gcc/arm-none-eabi/7.1.0/crti.o
 .ARM.attributes
                0x00000036       0x30 c:/devkitpro/devkitarm/bin/../lib/gcc/arm-none-eabi/7.1.0/crtbegin.o
 .ARM.attributes
                0x00000066       0x30 ActionRpg.thumb.o
 .ARM.attributes
                0x00000096       0x30 CharacterAlisa.thumb.o
 .ARM.attributes
                0x000000c6       0x30 CharacterAlisaController.thumb.o
 .ARM.attributes
                0x000000f6       0x30 CharacterBoy.thumb.o
 .ARM.attributes
                0x00000126       0x30 CharacterBoyController.thumb.o
 .ARM.attributes
                0x00000156       0x30 CharacterCommon.thumb.o
 .ARM.attributes
                0x00000186       0x30 CharacterCrow.thumb.o
 .ARM.attributes
                0x000001b6       0x30 CharacterCrowController.thumb.o
 .ARM.attributes
                0x000001e6       0x30 CharacterGhostMan.thumb.o
 .ARM.attributes
                0x00000216       0x30 CharacterGhostlyHand.thumb.o
 .ARM.attributes
                0x00000246       0x30 CharacterGhostlyHandController.thumb.o
 .ARM.attributes
                0x00000276       0x30 CharacterGhostmanController.thumb.o
 .ARM.attributes
                0x000002a6       0x30 CharacterNameless.thumb.o
 .ARM.attributes
                0x000002d6       0x30 CharacterNamelessController.thumb.o
 .ARM.attributes
                0x00000306       0x30 CharacterType.thumb.o
 .ARM.attributes
                0x00000336       0x30 CharacterWerewolf.thumb.o
 .ARM.attributes
                0x00000366       0x30 CharacterWerewolfController.thumb.o
 .ARM.attributes
                0x00000396       0x30 CharacterZombie.thumb.o
 .ARM.attributes
                0x000003c6       0x30 CharacterZombieController.thumb.o
 .ARM.attributes
                0x000003f6       0x30 GBATimer.thumb.o
 .ARM.attributes
                0x00000426       0x30 ManagerBG.thumb.o
 .ARM.attributes
                0x00000456       0x30 ManagerCharacters.thumb.o
 .ARM.attributes
                0x00000486       0x30 ManagerCharactersActionEvents.thumb.o
 .ARM.attributes
                0x000004b6       0x30 ManagerCollision.thumb.o
 .ARM.attributes
                0x000004e6       0x30 ManagerEvents.thumb.o
 .ARM.attributes
                0x00000516       0x30 ManagerGame.thumb.o
 .ARM.attributes
                0x00000546       0x30 ManagerImageCopy.thumb.o
 .ARM.attributes
                0x00000576       0x30 ManagerOAM.thumb.o
 .ARM.attributes
                0x000005a6       0x30 ManagerPrinter.thumb.o
 .ARM.attributes
                0x000005d6       0x30 ManagerScrDisplay.thumb.o
 .ARM.attributes
                0x00000606       0x30 ManagerSound.thumb.o
 .ARM.attributes
                0x00000636       0x30 ManagerVram.thumb.o
 .ARM.attributes
                0x00000666       0x30 ManagerWindow.thumb.o
 .ARM.attributes
                0x00000696       0x30 MapCommon.thumb.o
 .ARM.attributes
                0x000006c6       0x30 MapForest.o
 .ARM.attributes
                0x000006f6       0x30 MapGraveyard.thumb.o
 .ARM.attributes
                0x00000726       0x30 MapSnowField.o
 .ARM.attributes
                0x00000756       0x30 MapTest.thumb.o
 .ARM.attributes
                0x00000786       0x30 SpritePlayer.thumb.o
 .ARM.attributes
                0x000007b6       0x30 SpriteSetAlisa.thumb.o
 .ARM.attributes
                0x000007e6       0x30 SpriteSetBoy.thumb.o
 .ARM.attributes
                0x00000816       0x30 SpriteSetGhostMan.thumb.o
 .ARM.attributes
                0x00000846       0x30 SpriteSetWerewolf.thumb.o
 .ARM.attributes
                0x00000876       0x30 SpriteSetZombie.thumb.o
 .ARM.attributes
                0x000008a6       0x30 UpdateGameStatus.arm.o
 .ARM.attributes
                0x000008d6       0x30 UtilCommonValues.thumb.o
 .ARM.attributes
                0x00000906       0x30 UtilLzssDecompress.thumb.o
 .ARM.attributes
                0x00000936       0x30 genericBG.thumb.o
 .ARM.attributes
                0x00000966       0x30 genericBG2.thumb.o
 .ARM.attributes
                0x00000996       0x30 map_graveyard.o
 .ARM.attributes
                0x000009c6       0x30 map_night_street.o
 .ARM.attributes
                0x000009f6       0x30 map_nobinobi_cabin.o
 .ARM.attributes
                0x00000a26       0x30 map_shrine.o
 .ARM.attributes
                0x00000a56       0x30 sampleMusic.thumb.o
 .ARM.attributes
                0x00000a86       0x30 sound_crow.o
 .ARM.attributes
                0x00000ab6       0x30 sound_ghost_moan.o
 .ARM.attributes
                0x00000ae6       0x30 sound_ghost_moan2.o
 .ARM.attributes
                0x00000b16       0x30 sound_minamohana.o
 .ARM.attributes
                0x00000b46       0x30 sound_slash.o
 .ARM.attributes
                0x00000b76       0x30 sound_test.o
 .ARM.attributes
                0x00000ba6       0x30 sound_window_hit.o
 .ARM.attributes
                0x00000bd6       0x30 sprite_alisa_dashbackwardwithsword_down.thumb.o
 .ARM.attributes
                0x00000c06       0x30 sprite_alisa_dashbackwardwithsword_side.thumb.o
 .ARM.attributes
                0x00000c36       0x30 sprite_alisa_dashbackwardwithsword_up.thumb.o
 .ARM.attributes
                0x00000c66       0x30 sprite_alisa_dashforwardwithsword_down.thumb.o
 .ARM.attributes
                0x00000c96       0x30 sprite_alisa_dashforwardwithsword_side.thumb.o
 .ARM.attributes
                0x00000cc6       0x30 sprite_alisa_dashforwardwithsword_up.thumb.o
 .ARM.attributes
                0x00000cf6       0x30 sprite_alisa_run_down.thumb.o
 .ARM.attributes
                0x00000d26       0x30 sprite_alisa_run_up.thumb.o
 .ARM.attributes
                0x00000d56       0x30 sprite_alisa_runwithsword_down.thumb.o
 .ARM.attributes
                0x00000d86       0x30 sprite_alisa_runwithsword_side.thumb.o
 .ARM.attributes
                0x00000db6       0x30 sprite_alisa_runwithsword_up.thumb.o
 .ARM.attributes
                0x00000de6       0x30 sprite_alisa_standwithsword_down.thumb.o
 .ARM.attributes
                0x00000e16       0x30 sprite_alisa_standwithsword_side.thumb.o
 .ARM.attributes
                0x00000e46       0x30 sprite_alisa_standwithsword_up.thumb.o
 .ARM.attributes
                0x00000e76       0x30 sprite_alisa_stunnedwithsword_down.thumb.o
 .ARM.attributes
                0x00000ea6       0x30 sprite_alisa_stunnedwithsword_side.thumb.o
 .ARM.attributes
                0x00000ed6       0x30 sprite_alisa_stunnedwithsword_up.thumb.o
 .ARM.attributes
                0x00000f06       0x30 sprite_alisa_swordslash_down.thumb.o
 .ARM.attributes
                0x00000f36       0x30 sprite_alisa_swordslash_side.thumb.o
 .ARM.attributes
                0x00000f66       0x30 sprite_alisa_swordslash_up.thumb.o
 .ARM.attributes
                0x00000f96       0x30 sprite_character.thumb.o
 .ARM.attributes
                0x00000fc6       0x30 sprite_crow.thumb.o
 .ARM.attributes
                0x00000ff6       0x30 sprite_ghostly_hand.thumb.o
 .ARM.attributes
                0x00001026       0x30 sprite_ghostlyman.thumb.o
 .ARM.attributes
                0x00001056       0x30 sprite_ghostlyman_lower_float.thumb.o
 .ARM.attributes
                0x00001086       0x30 sprite_ghostlyman_upper_float.thumb.o
 .ARM.attributes
                0x000010b6       0x30 sprite_maincharacterlower_stand.thumb.o
 .ARM.attributes
                0x000010e6       0x30 sprite_maincharacterlower_walk.thumb.o
 .ARM.attributes
                0x00001116       0x30 sprite_maincharacterupper_stand.thumb.o
 .ARM.attributes
                0x00001146       0x30 sprite_maincharacterupper_walk.thumb.o
 .ARM.attributes
                0x00001176       0x30 sprite_sword_side.thumb.o
 .ARM.attributes
                0x000011a6       0x30 sprite_sword_vertical.thumb.o
 .ARM.attributes
                0x000011d6       0x30 sprite_werewolfarm_down.thumb.o
 .ARM.attributes
                0x00001206       0x30 sprite_werewolfarm_side.thumb.o
 .ARM.attributes
                0x00001236       0x30 sprite_werewolfarm_up.thumb.o
 .ARM.attributes
                0x00001266       0x30 sprite_werewolffeet_run_down.thumb.o
 .ARM.attributes
                0x00001296       0x30 sprite_werewolffeet_run_side.thumb.o
 .ARM.attributes
                0x000012c6       0x30 sprite_werewolffeet_run_up.thumb.o
 .ARM.attributes
                0x000012f6       0x30 sprite_werewolftail_side.thumb.o
 .ARM.attributes
                0x00001326       0x30 sprite_werewolfupperbody_run_down.thumb.o
 .ARM.attributes
                0x00001356       0x30 sprite_werewolfupperbody_run_side.thumb.o
 .ARM.attributes
                0x00001386       0x30 sprite_werewolfupperbody_run_up.thumb.o
 .ARM.attributes
                0x000013b6       0x30 sprite_zombie_attack_down.thumb.o
 .ARM.attributes
                0x000013e6       0x30 sprite_zombie_attack_side.thumb.o
 .ARM.attributes
                0x00001416       0x30 sprite_zombie_attack_up.thumb.o
 .ARM.attributes
                0x00001446       0x30 sprite_zombie_stunned_down.thumb.o
 .ARM.attributes
                0x00001476       0x30 sprite_zombie_stunned_side.thumb.o
 .ARM.attributes
                0x000014a6       0x30 sprite_zombie_stunned_up.thumb.o
 .ARM.attributes
                0x000014d6       0x30 sprite_zombie_walk_down.thumb.o
 .ARM.attributes
                0x00001506       0x30 sprite_zombie_walk_side.thumb.o
 .ARM.attributes
                0x00001536       0x30 sprite_zombie_walk_up.thumb.o
 .ARM.attributes
                0x00001566       0x30 spriteset_alisa_dashbackwardwithsword_down.thumb.o
 .ARM.attributes
                0x00001596       0x30 spriteset_alisa_dashbackwardwithsword_left.thumb.o
 .ARM.attributes
                0x000015c6       0x30 spriteset_alisa_dashbackwardwithsword_right.thumb.o
 .ARM.attributes
                0x000015f6       0x30 spriteset_alisa_dashbackwardwithsword_up.thumb.o
 .ARM.attributes
                0x00001626       0x30 spriteset_alisa_dashforwardwithsword_down.thumb.o
 .ARM.attributes
                0x00001656       0x30 spriteset_alisa_dashforwardwithsword_left.thumb.o
 .ARM.attributes
                0x00001686       0x30 spriteset_alisa_dashforwardwithsword_right.thumb.o
 .ARM.attributes
                0x000016b6       0x30 spriteset_alisa_dashforwardwithsword_up.thumb.o
 .ARM.attributes
                0x000016e6       0x30 spriteset_alisa_preparedash_down.thumb.o
 .ARM.attributes
                0x00001716       0x30 spriteset_alisa_preparedash_left.thumb.o
 .ARM.attributes
                0x00001746       0x30 spriteset_alisa_preparedash_right.thumb.o
 .ARM.attributes
                0x00001776       0x30 spriteset_alisa_preparedash_up.thumb.o
 .ARM.attributes
                0x000017a6       0x30 spriteset_alisa_runwithsword_down.thumb.o
 .ARM.attributes
                0x000017d6       0x30 spriteset_alisa_runwithsword_left.thumb.o
 .ARM.attributes
                0x00001806       0x30 spriteset_alisa_runwithsword_right.thumb.o
 .ARM.attributes
                0x00001836       0x30 spriteset_alisa_runwithsword_up.thumb.o
 .ARM.attributes
                0x00001866       0x30 spriteset_alisa_standwithsword_down.thumb.o
 .ARM.attributes
                0x00001896       0x30 spriteset_alisa_standwithsword_left.thumb.o
 .ARM.attributes
                0x000018c6       0x30 spriteset_alisa_standwithsword_right.thumb.o
 .ARM.attributes
                0x000018f6       0x30 spriteset_alisa_standwithsword_up.thumb.o
 .ARM.attributes
                0x00001926       0x30 spriteset_alisa_stunnedwithsword_down.thumb.o
 .ARM.attributes
                0x00001956       0x30 spriteset_alisa_stunnedwithsword_left.thumb.o
 .ARM.attributes
                0x00001986       0x30 spriteset_alisa_stunnedwithsword_right.thumb.o
 .ARM.attributes
                0x000019b6       0x30 spriteset_alisa_stunnedwithsword_up.thumb.o
 .ARM.attributes
                0x000019e6       0x30 spriteset_alisa_swordslash_down.thumb.o
 .ARM.attributes
                0x00001a16       0x30 spriteset_alisa_swordslash_left.thumb.o
 .ARM.attributes
                0x00001a46       0x30 spriteset_alisa_swordslash_right.thumb.o
 .ARM.attributes
                0x00001a76       0x30 spriteset_alisa_swordslash_up.thumb.o
 .ARM.attributes
                0x00001aa6       0x30 spriteset_character_stand_left.thumb.o
 .ARM.attributes
                0x00001ad6       0x30 spriteset_character_stand_right.thumb.o
 .ARM.attributes
                0x00001b06       0x30 spriteset_character_walk_left.thumb.o
 .ARM.attributes
                0x00001b36       0x30 spriteset_character_walk_right.thumb.o
 .ARM.attributes
                0x00001b66       0x30 spriteset_crow.thumb.o
 .ARM.attributes
                0x00001b96       0x30 spriteset_ghosltyman.thumb.o
 .ARM.attributes
                0x00001bc6       0x30 spriteset_ghosthand_appear.thumb.o
 .ARM.attributes
                0x00001bf6       0x30 spriteset_ghosthand_hidden.thumb.o
 .ARM.attributes
                0x00001c26       0x30 spriteset_ghostlyman_floating.thumb.o
 .ARM.attributes
                0x00001c56       0x30 spriteset_maincharacter_stand.thumb.o
 .ARM.attributes
                0x00001c86       0x30 spriteset_maincharacter_walk.thumb.o
 .ARM.attributes
                0x00001cb6       0x30 spriteset_werewolf_run_down.thumb.o
 .ARM.attributes
                0x00001ce6       0x30 spriteset_werewolf_run_left.thumb.o
 .ARM.attributes
                0x00001d16       0x30 spriteset_werewolf_run_right.thumb.o
 .ARM.attributes
                0x00001d46       0x30 spriteset_werewolf_run_up.thumb.o
 .ARM.attributes
                0x00001d76       0x30 spriteset_werewolf_stand_down.thumb.o
 .ARM.attributes
                0x00001da6       0x30 spriteset_werewolf_stand_left.thumb.o
 .ARM.attributes
                0x00001dd6       0x30 spriteset_werewolf_stand_right.thumb.o
 .ARM.attributes
                0x00001e06       0x30 spriteset_werewolf_stand_up.thumb.o
 .ARM.attributes
                0x00001e36       0x30 spriteset_zombie_attack_down.thumb.o
 .ARM.attributes
                0x00001e66       0x30 spriteset_zombie_attack_left.thumb.o
 .ARM.attributes
                0x00001e96       0x30 spriteset_zombie_attack_right.thumb.o
 .ARM.attributes
                0x00001ec6       0x30 spriteset_zombie_attack_up.thumb.o
 .ARM.attributes
                0x00001ef6       0x30 spriteset_zombie_chase_down.thumb.o
 .ARM.attributes
                0x00001f26       0x30 spriteset_zombie_chase_left.thumb.o
 .ARM.attributes
                0x00001f56       0x30 spriteset_zombie_chase_right.thumb.o
 .ARM.attributes
                0x00001f86       0x30 spriteset_zombie_chase_up.thumb.o
 .ARM.attributes
                0x00001fb6       0x30 spriteset_zombie_stunned_down.thumb.o
 .ARM.attributes
                0x00001fe6       0x30 spriteset_zombie_stunned_left.thumb.o
 .ARM.attributes
                0x00002016       0x30 spriteset_zombie_stunned_right.thumb.o
 .ARM.attributes
                0x00002046       0x30 spriteset_zombie_stunned_up.thumb.o
 .ARM.attributes
                0x00002076       0x30 spriteset_zombie_walk_down.thumb.o
 .ARM.attributes
                0x000020a6       0x30 spriteset_zombie_walk_left.thumb.o
 .ARM.attributes
                0x000020d6       0x30 spriteset_zombie_walk_right.thumb.o
 .ARM.attributes
                0x00002106       0x30 spriteset_zombie_walk_up.thumb.o
 .ARM.attributes
                0x00002136       0x30 testmap.thumb.o
 .ARM.attributes
                0x00002166       0x30 tile_map_graveyard.o
 .ARM.attributes
                0x00002196       0x30 tile_map_night_street.o
 .ARM.attributes
                0x000021c6       0x30 tile_map_nobinobi_cabin.o
 .ARM.attributes
                0x000021f6       0x30 tile_map_shrine.o
 .ARM.attributes
                0x00002226       0x30 tile_mapforest.o
 .ARM.attributes
                0x00002256       0x30 tile_mapgraveyard.o
 .ARM.attributes
                0x00002286       0x30 tile_mapsnowfield.o
 .ARM.attributes
                0x000022b6       0x18 c:/devkitpro/devkitarm/bin/../lib/gcc/arm-none-eabi/7.1.0\libgcc.a(_divsi3.o)
 .ARM.attributes
                0x000022ce       0x18 c:/devkitpro/devkitarm/bin/../lib/gcc/arm-none-eabi/7.1.0\libgcc.a(_dvmd_tls.o)
 .ARM.attributes
                0x000022e6       0x30 c:/devkitpro/devkitarm/bin/../lib/gcc/arm-none-eabi/7.1.0/../../../../arm-none-eabi/lib\libg.a(lib_a-init.o)
 .ARM.attributes
                0x00002316       0x30 c:/devkitpro/devkitarm/bin/../lib/gcc/arm-none-eabi/7.1.0/../../../../arm-none-eabi/lib\libg.a(lib_a-malloc.o)
 .ARM.attributes
                0x00002346       0x30 c:/devkitpro/devkitarm/bin/../lib/gcc/arm-none-eabi/7.1.0/../../../../arm-none-eabi/lib\libg.a(lib_a-mallocr.o)
 .ARM.attributes
                0x00002376       0x30 c:/devkitpro/devkitarm/bin/../lib/gcc/arm-none-eabi/7.1.0/../../../../arm-none-eabi/lib\libg.a(lib_a-memcpy-stub.o)
 .ARM.attributes
                0x000023a6       0x30 c:/devkitpro/devkitarm/bin/../lib/gcc/arm-none-eabi/7.1.0/../../../../arm-none-eabi/lib\libg.a(lib_a-memset.o)
 .ARM.attributes
                0x000023d6       0x30 c:/devkitpro/devkitarm/bin/../lib/gcc/arm-none-eabi/7.1.0/../../../../arm-none-eabi/lib\libg.a(lib_a-mlock.o)
 .ARM.attributes
                0x00002406       0x30 c:/devkitpro/devkitarm/bin/../lib/gcc/arm-none-eabi/7.1.0/../../../../arm-none-eabi/lib\libg.a(lib_a-rand.o)
 .ARM.attributes
                0x00002436       0x30 c:/devkitpro/devkitarm/bin/../lib/gcc/arm-none-eabi/7.1.0/../../../../arm-none-eabi/lib\libg.a(lib_a-strncpy.o)
 .ARM.attributes
                0x00002466       0x30 c:/devkitpro/devkitarm/bin/../lib/gcc/arm-none-eabi/7.1.0/../../../../arm-none-eabi/lib\libg.a(lib_a-freer.o)
 .ARM.attributes
                0x00002496       0x30 c:/devkitpro/devkitarm/bin/../lib/gcc/arm-none-eabi/7.1.0/../../../../arm-none-eabi/lib\libsysbase.a(sbrk.o)
 .ARM.attributes
                0x000024c6       0x30 c:/devkitpro/devkitarm/bin/../lib/gcc/arm-none-eabi/7.1.0/../../../../arm-none-eabi/lib\libsysbase.a(malloc_vars.o)
 .ARM.attributes
                0x000024f6       0x30 c:/devkitpro/devkitarm/bin/../lib/gcc/arm-none-eabi/7.1.0/../../../../arm-none-eabi/lib\libsysbase.a(syscall_support.o)
 .ARM.attributes
                0x00002526       0x30 c:/devkitpro/devkitarm/bin/../lib/gcc/arm-none-eabi/7.1.0/../../../../arm-none-eabi/lib\libsysbase.a(getreent.o)
 .ARM.attributes
                0x00002556       0x30 c:/devkitpro/devkitarm/bin/../lib/gcc/arm-none-eabi/7.1.0/../../../../arm-none-eabi/lib\libg.a(lib_a-impure.o)
 .ARM.attributes
                0x00002586       0x30 c:/devkitpro/devkitarm/bin/../lib/gcc/arm-none-eabi/7.1.0/crtend.o
 .ARM.attributes
                0x000025b6       0x18 c:/devkitpro/devkitarm/bin/../lib/gcc/arm-none-eabi/7.1.0/crtn.o

/DISCARD/
 *(.note.GNU-stack)
LOAD c:/devkitpro/devkitarm/bin/../lib/gcc/arm-none-eabi/7.1.0/../../../../arm-none-eabi/lib/gba_crt0.o
LOAD c:/devkitpro/devkitarm/bin/../lib/gcc/arm-none-eabi/7.1.0/crti.o
LOAD c:/devkitpro/devkitarm/bin/../lib/gcc/arm-none-eabi/7.1.0/crtbegin.o
LOAD ActionRpg.thumb.o
LOAD CharacterAlisa.thumb.o
LOAD CharacterAlisaController.thumb.o
LOAD CharacterBoy.thumb.o
LOAD CharacterBoyController.thumb.o
LOAD CharacterCommon.thumb.o
LOAD CharacterCrow.thumb.o
LOAD CharacterCrowController.thumb.o
LOAD CharacterGhostMan.thumb.o
LOAD CharacterGhostlyHand.thumb.o
LOAD CharacterGhostlyHandController.thumb.o
LOAD CharacterGhostmanController.thumb.o
LOAD CharacterNameless.thumb.o
LOAD CharacterNamelessController.thumb.o
LOAD CharacterType.thumb.o
LOAD CharacterWerewolf.thumb.o
LOAD CharacterWerewolfController.thumb.o
LOAD CharacterZombie.thumb.o
LOAD CharacterZombieController.thumb.o
LOAD GBATimer.thumb.o
LOAD ManagerBG.thumb.o
LOAD ManagerCharacters.thumb.o
LOAD ManagerCharactersActionEvents.thumb.o
LOAD ManagerCollision.thumb.o
LOAD ManagerEvents.thumb.o
LOAD ManagerGame.thumb.o
LOAD ManagerImageCopy.thumb.o
LOAD ManagerOAM.thumb.o
LOAD ManagerPrinter.thumb.o
LOAD ManagerScrDisplay.thumb.o
LOAD ManagerSound.thumb.o
LOAD ManagerVram.thumb.o
LOAD ManagerWindow.thumb.o
LOAD MapCommon.thumb.o
LOAD MapForest.o
LOAD MapGraveyard.thumb.o
LOAD MapSnowField.o
LOAD MapTest.thumb.o
LOAD SpritePlayer.thumb.o
LOAD SpriteSetAlisa.thumb.o
LOAD SpriteSetBoy.thumb.o
LOAD SpriteSetGhostMan.thumb.o
LOAD SpriteSetWerewolf.thumb.o
LOAD SpriteSetZombie.thumb.o
LOAD UpdateGameStatus.arm.o
LOAD UtilCommonValues.thumb.o
LOAD UtilLzssDecompress.thumb.o
LOAD genericBG.thumb.o
LOAD genericBG2.thumb.o
LOAD map_graveyard.o
LOAD map_night_street.o
LOAD map_nobinobi_cabin.o
LOAD map_shrine.o
LOAD sampleMusic.thumb.o
LOAD sound_crow.o
LOAD sound_ghost_moan.o
LOAD sound_ghost_moan2.o
LOAD sound_minamohana.o
LOAD sound_slash.o
LOAD sound_test.o
LOAD sound_window_hit.o
LOAD sprite_alisa_dashbackwardwithsword_down.thumb.o
LOAD sprite_alisa_dashbackwardwithsword_side.thumb.o
LOAD sprite_alisa_dashbackwardwithsword_up.thumb.o
LOAD sprite_alisa_dashforwardwithsword_down.thumb.o
LOAD sprite_alisa_dashforwardwithsword_side.thumb.o
LOAD sprite_alisa_dashforwardwithsword_up.thumb.o
LOAD sprite_alisa_run_down.thumb.o
LOAD sprite_alisa_run_up.thumb.o
LOAD sprite_alisa_runwithsword_down.thumb.o
LOAD sprite_alisa_runwithsword_side.thumb.o
LOAD sprite_alisa_runwithsword_up.thumb.o
LOAD sprite_alisa_standwithsword_down.thumb.o
LOAD sprite_alisa_standwithsword_side.thumb.o
LOAD sprite_alisa_standwithsword_up.thumb.o
LOAD sprite_alisa_stunnedwithsword_down.thumb.o
LOAD sprite_alisa_stunnedwithsword_side.thumb.o
LOAD sprite_alisa_stunnedwithsword_up.thumb.o
LOAD sprite_alisa_swordslash_down.thumb.o
LOAD sprite_alisa_swordslash_side.thumb.o
LOAD sprite_alisa_swordslash_up.thumb.o
LOAD sprite_character.thumb.o
LOAD sprite_crow.thumb.o
LOAD sprite_ghostly_hand.thumb.o
LOAD sprite_ghostlyman.thumb.o
LOAD sprite_ghostlyman_lower_float.thumb.o
LOAD sprite_ghostlyman_upper_float.thumb.o
LOAD sprite_maincharacterlower_stand.thumb.o
LOAD sprite_maincharacterlower_walk.thumb.o
LOAD sprite_maincharacterupper_stand.thumb.o
LOAD sprite_maincharacterupper_walk.thumb.o
LOAD sprite_sword_side.thumb.o
LOAD sprite_sword_vertical.thumb.o
LOAD sprite_werewolfarm_down.thumb.o
LOAD sprite_werewolfarm_side.thumb.o
LOAD sprite_werewolfarm_up.thumb.o
LOAD sprite_werewolffeet_run_down.thumb.o
LOAD sprite_werewolffeet_run_side.thumb.o
LOAD sprite_werewolffeet_run_up.thumb.o
LOAD sprite_werewolftail_side.thumb.o
LOAD sprite_werewolfupperbody_run_down.thumb.o
LOAD sprite_werewolfupperbody_run_side.thumb.o
LOAD sprite_werewolfupperbody_run_up.thumb.o
LOAD sprite_zombie_attack_down.thumb.o
LOAD sprite_zombie_attack_side.thumb.o
LOAD sprite_zombie_attack_up.thumb.o
LOAD sprite_zombie_stunned_down.thumb.o
LOAD sprite_zombie_stunned_side.thumb.o
LOAD sprite_zombie_stunned_up.thumb.o
LOAD sprite_zombie_walk_down.thumb.o
LOAD sprite_zombie_walk_side.thumb.o
LOAD sprite_zombie_walk_up.thumb.o
LOAD spriteset_alisa_dashbackwardwithsword_down.thumb.o
LOAD spriteset_alisa_dashbackwardwithsword_left.thumb.o
LOAD spriteset_alisa_dashbackwardwithsword_right.thumb.o
LOAD spriteset_alisa_dashbackwardwithsword_up.thumb.o
LOAD spriteset_alisa_dashforwardwithsword_down.thumb.o
LOAD spriteset_alisa_dashforwardwithsword_left.thumb.o
LOAD spriteset_alisa_dashforwardwithsword_right.thumb.o
LOAD spriteset_alisa_dashforwardwithsword_up.thumb.o
LOAD spriteset_alisa_preparedash_down.thumb.o
LOAD spriteset_alisa_preparedash_left.thumb.o
LOAD spriteset_alisa_preparedash_right.thumb.o
LOAD spriteset_alisa_preparedash_up.thumb.o
LOAD spriteset_alisa_runwithsword_down.thumb.o
LOAD spriteset_alisa_runwithsword_left.thumb.o
LOAD spriteset_alisa_runwithsword_right.thumb.o
LOAD spriteset_alisa_runwithsword_up.thumb.o
LOAD spriteset_alisa_standwithsword_down.thumb.o
LOAD spriteset_alisa_standwithsword_left.thumb.o
LOAD spriteset_alisa_standwithsword_right.thumb.o
LOAD spriteset_alisa_standwithsword_up.thumb.o
LOAD spriteset_alisa_stunnedwithsword_down.thumb.o
LOAD spriteset_alisa_stunnedwithsword_left.thumb.o
LOAD spriteset_alisa_stunnedwithsword_right.thumb.o
LOAD spriteset_alisa_stunnedwithsword_up.thumb.o
LOAD spriteset_alisa_swordslash_down.thumb.o
LOAD spriteset_alisa_swordslash_left.thumb.o
LOAD spriteset_alisa_swordslash_right.thumb.o
LOAD spriteset_alisa_swordslash_up.thumb.o
LOAD spriteset_character_stand_left.thumb.o
LOAD spriteset_character_stand_right.thumb.o
LOAD spriteset_character_walk_left.thumb.o
LOAD spriteset_character_walk_right.thumb.o
LOAD spriteset_crow.thumb.o
LOAD spriteset_ghosltyman.thumb.o
LOAD spriteset_ghosthand_appear.thumb.o
LOAD spriteset_ghosthand_hidden.thumb.o
LOAD spriteset_ghostlyman_floating.thumb.o
LOAD spriteset_maincharacter_stand.thumb.o
LOAD spriteset_maincharacter_walk.thumb.o
LOAD spriteset_werewolf_run_down.thumb.o
LOAD spriteset_werewolf_run_left.thumb.o
LOAD spriteset_werewolf_run_right.thumb.o
LOAD spriteset_werewolf_run_up.thumb.o
LOAD spriteset_werewolf_stand_down.thumb.o
LOAD spriteset_werewolf_stand_left.thumb.o
LOAD spriteset_werewolf_stand_right.thumb.o
LOAD spriteset_werewolf_stand_up.thumb.o
LOAD spriteset_zombie_attack_down.thumb.o
LOAD spriteset_zombie_attack_left.thumb.o
LOAD spriteset_zombie_attack_right.thumb.o
LOAD spriteset_zombie_attack_up.thumb.o
LOAD spriteset_zombie_chase_down.thumb.o
LOAD spriteset_zombie_chase_left.thumb.o
LOAD spriteset_zombie_chase_right.thumb.o
LOAD spriteset_zombie_chase_up.thumb.o
LOAD spriteset_zombie_stunned_down.thumb.o
LOAD spriteset_zombie_stunned_left.thumb.o
LOAD spriteset_zombie_stunned_right.thumb.o
LOAD spriteset_zombie_stunned_up.thumb.o
LOAD spriteset_zombie_walk_down.thumb.o
LOAD spriteset_zombie_walk_left.thumb.o
LOAD spriteset_zombie_walk_right.thumb.o
LOAD spriteset_zombie_walk_up.thumb.o
LOAD testmap.thumb.o
LOAD tile_map_graveyard.o
LOAD tile_map_night_street.o
LOAD tile_map_nobinobi_cabin.o
LOAD tile_map_shrine.o
LOAD tile_mapforest.o
LOAD tile_mapgraveyard.o
LOAD tile_mapsnowfield.o
LOAD C:\devkitPro/libgba/lib\libgba.a
START GROUP
LOAD c:/devkitpro/devkitarm/bin/../lib/gcc/arm-none-eabi/7.1.0\libgcc.a
LOAD c:/devkitpro/devkitarm/bin/../lib/gcc/arm-none-eabi/7.1.0/../../../../arm-none-eabi/lib\libg.a
LOAD c:/devkitpro/devkitarm/bin/../lib/gcc/arm-none-eabi/7.1.0/../../../../arm-none-eabi/lib\libc.a
LOAD c:/devkitpro/devkitarm/bin/../lib/gcc/arm-none-eabi/7.1.0/../../../../arm-none-eabi/lib\libsysbase.a
END GROUP
LOAD c:/devkitpro/devkitarm/bin/../lib/gcc/arm-none-eabi/7.1.0/crtend.o
LOAD c:/devkitpro/devkitarm/bin/../lib/gcc/arm-none-eabi/7.1.0/crtn.o
OUTPUT(C:/devkitPro/examples/gba/bryan_projects/horror_sample/horror.elf elf32-littlearm)

.debug_ranges   0x00000000     0x28a8
 .debug_ranges  0x00000000       0x18 ActionRpg.thumb.o
 .debug_ranges  0x00000018      0x1e0 CharacterAlisaController.thumb.o
 .debug_ranges  0x000001f8     0x1db8 CharacterCommon.thumb.o
 .debug_ranges  0x00001fb0       0x18 CharacterCrow.thumb.o
 .debug_ranges  0x00001fc8       0x18 CharacterGhostMan.thumb.o
 .debug_ranges  0x00001fe0       0x18 CharacterGhostmanController.thumb.o
 .debug_ranges  0x00001ff8       0x30 CharacterWerewolfController.thumb.o
 .debug_ranges  0x00002028       0x18 CharacterZombie.thumb.o
 .debug_ranges  0x00002040      0x158 CharacterZombieController.thumb.o
 .debug_ranges  0x00002198       0x78 ManagerBG.thumb.o
 .debug_ranges  0x00002210       0x90 ManagerCharacters.thumb.o
 .debug_ranges  0x000022a0       0x68 ManagerGame.thumb.o
 .debug_ranges  0x00002308       0x20 ManagerOAM.thumb.o
 .debug_ranges  0x00002328      0x138 ManagerPrinter.thumb.o
 .debug_ranges  0x00002460      0x208 ManagerScrDisplay.thumb.o
 .debug_ranges  0x00002668      0x110 ManagerSound.thumb.o
 .debug_ranges  0x00002778       0x68 ManagerVram.thumb.o
 .debug_ranges  0x000027e0       0x58 UtilLzssDecompress.thumb.o
 .debug_ranges  0x00002838       0x70 testmap.thumb.o
